
myos.bin:     file format elf32-i386


Disassembly of section .text:

00101000 <_start>:
  101000:	fa                   	cli
  101001:	bc 00 e0 10 00       	mov    esp,0x10e000
  101006:	53                   	push   ebx
  101007:	e8 03 00 00 00       	call   10100f <kernel_main>

0010100c <_start.hang>:
  10100c:	f4                   	hlt
  10100d:	eb fd                	jmp    10100c <_start.hang>

0010100f <kernel_main>:
  10100f:	55                   	push   ebp
  101010:	89 e5                	mov    ebp,esp
  101012:	53                   	push   ebx
  101013:	83 ec 14             	sub    esp,0x14
  101016:	e8 3b 58 00 00       	call   106856 <__x86.get_pc_thunk.bx>
  10101b:	81 c3 ed 7f 00 00    	add    ebx,0x7fed
  101021:	e8 b4 0a 00 00       	call   101ada <gdt_init>
  101026:	e8 9c 0d 00 00       	call   101dc7 <idt_init>
  10102b:	e8 d2 02 00 00       	call   101302 <vga_init>
  101030:	83 ec 0c             	sub    esp,0xc
  101033:	ff 75 08             	push   DWORD PTR [ebp+0x8]
  101036:	e8 11 15 00 00       	call   10254c <pmm_init>
  10103b:	83 c4 10             	add    esp,0x10
  10103e:	e8 e5 1c 00 00       	call   102d28 <vmm_init>
  101043:	e8 80 1e 00 00       	call   102ec8 <heap_init>
  101048:	fb                   	sti
  101049:	e8 b2 22 00 00       	call   103300 <pit_init>
  10104e:	e8 4e 26 00 00       	call   1036a1 <keyboard_init>
  101053:	83 ec 0c             	sub    esp,0xc
  101056:	6a 40                	push   0x40
  101058:	e8 60 1f 00 00       	call   102fbd <kmalloc>
  10105d:	83 c4 10             	add    esp,0x10
  101060:	89 45 f4             	mov    DWORD PTR [ebp-0xc],eax
  101063:	83 ec 0c             	sub    esp,0xc
  101066:	6a 40                	push   0x40
  101068:	e8 50 1f 00 00       	call   102fbd <kmalloc>
  10106d:	83 c4 10             	add    esp,0x10
  101070:	89 45 f0             	mov    DWORD PTR [ebp-0x10],eax
  101073:	83 7d f4 00          	cmp    DWORD PTR [ebp-0xc],0x0
  101077:	74 58                	je     1010d1 <kernel_main+0xc2>
  101079:	83 7d f0 00          	cmp    DWORD PTR [ebp-0x10],0x0
  10107d:	74 52                	je     1010d1 <kernel_main+0xc2>
  10107f:	8b 45 f4             	mov    eax,DWORD PTR [ebp-0xc]
  101082:	c7 00 ef be ad de    	mov    DWORD PTR [eax],0xdeadbeef
  101088:	8b 45 f0             	mov    eax,DWORD PTR [ebp-0x10]
  10108b:	c7 00 42 ee ff c0    	mov    DWORD PTR [eax],0xc0ffee42
  101091:	83 ec 0c             	sub    esp,0xc
  101094:	ff 75 f4             	push   DWORD PTR [ebp-0xc]
  101097:	e8 4d 20 00 00       	call   1030e9 <kfree>
  10109c:	83 c4 10             	add    esp,0x10
  10109f:	83 ec 0c             	sub    esp,0xc
  1010a2:	6a 20                	push   0x20
  1010a4:	e8 14 1f 00 00       	call   102fbd <kmalloc>
  1010a9:	83 c4 10             	add    esp,0x10
  1010ac:	89 45 ec             	mov    DWORD PTR [ebp-0x14],eax
  1010af:	83 ec 0c             	sub    esp,0xc
  1010b2:	ff 75 f0             	push   DWORD PTR [ebp-0x10]
  1010b5:	e8 2f 20 00 00       	call   1030e9 <kfree>
  1010ba:	83 c4 10             	add    esp,0x10
  1010bd:	83 7d ec 00          	cmp    DWORD PTR [ebp-0x14],0x0
  1010c1:	74 0e                	je     1010d1 <kernel_main+0xc2>
  1010c3:	83 ec 0c             	sub    esp,0xc
  1010c6:	ff 75 ec             	push   DWORD PTR [ebp-0x14]
  1010c9:	e8 1b 20 00 00       	call   1030e9 <kfree>
  1010ce:	83 c4 10             	add    esp,0x10
  1010d1:	83 ec 08             	sub    esp,0x8
  1010d4:	6a 00                	push   0x0
  1010d6:	6a 0a                	push   0xa
  1010d8:	e8 fc 01 00 00       	call   1012d9 <vga_set_color>
  1010dd:	83 c4 10             	add    esp,0x10
  1010e0:	83 ec 0c             	sub    esp,0xc
  1010e3:	8d 83 f8 df ff ff    	lea    eax,[ebx-0x2008]
  1010e9:	50                   	push   eax
  1010ea:	e8 69 08 00 00       	call   101958 <vga_print>
  1010ef:	83 c4 10             	add    esp,0x10
  1010f2:	83 ec 08             	sub    esp,0x8
  1010f5:	6a 00                	push   0x0
  1010f7:	6a 0f                	push   0xf
  1010f9:	e8 db 01 00 00       	call   1012d9 <vga_set_color>
  1010fe:	83 c4 10             	add    esp,0x10
  101101:	83 ec 0c             	sub    esp,0xc
  101104:	8d 83 18 e0 ff ff    	lea    eax,[ebx-0x1fe8]
  10110a:	50                   	push   eax
  10110b:	e8 48 08 00 00       	call   101958 <vga_print>
  101110:	83 c4 10             	add    esp,0x10
  101113:	83 ec 0c             	sub    esp,0xc
  101116:	8d 83 30 e0 ff ff    	lea    eax,[ebx-0x1fd0]
  10111c:	50                   	push   eax
  10111d:	e8 36 08 00 00       	call   101958 <vga_print>
  101122:	83 c4 10             	add    esp,0x10
  101125:	83 ec 0c             	sub    esp,0xc
  101128:	8d 83 48 e0 ff ff    	lea    eax,[ebx-0x1fb8]
  10112e:	50                   	push   eax
  10112f:	e8 24 08 00 00       	call   101958 <vga_print>
  101134:	83 c4 10             	add    esp,0x10
  101137:	83 ec 0c             	sub    esp,0xc
  10113a:	8d 83 60 e0 ff ff    	lea    eax,[ebx-0x1fa0]
  101140:	50                   	push   eax
  101141:	e8 12 08 00 00       	call   101958 <vga_print>
  101146:	83 c4 10             	add    esp,0x10
  101149:	83 ec 0c             	sub    esp,0xc
  10114c:	8d 83 78 e0 ff ff    	lea    eax,[ebx-0x1f88]
  101152:	50                   	push   eax
  101153:	e8 00 08 00 00       	call   101958 <vga_print>
  101158:	83 c4 10             	add    esp,0x10
  10115b:	83 ec 0c             	sub    esp,0xc
  10115e:	8d 83 90 e0 ff ff    	lea    eax,[ebx-0x1f70]
  101164:	50                   	push   eax
  101165:	e8 ee 07 00 00       	call   101958 <vga_print>
  10116a:	83 c4 10             	add    esp,0x10
  10116d:	83 ec 0c             	sub    esp,0xc
  101170:	8d 83 a8 e0 ff ff    	lea    eax,[ebx-0x1f58]
  101176:	50                   	push   eax
  101177:	e8 dc 07 00 00       	call   101958 <vga_print>
  10117c:	83 c4 10             	add    esp,0x10
  10117f:	83 ec 0c             	sub    esp,0xc
  101182:	8d 83 c0 e0 ff ff    	lea    eax,[ebx-0x1f40]
  101188:	50                   	push   eax
  101189:	e8 ca 07 00 00       	call   101958 <vga_print>
  10118e:	83 c4 10             	add    esp,0x10
  101191:	83 ec 0c             	sub    esp,0xc
  101194:	8d 83 d9 e0 ff ff    	lea    eax,[ebx-0x1f27]
  10119a:	50                   	push   eax
  10119b:	e8 b8 07 00 00       	call   101958 <vga_print>
  1011a0:	83 c4 10             	add    esp,0x10
  1011a3:	83 ec 0c             	sub    esp,0xc
  1011a6:	8d 83 f1 e0 ff ff    	lea    eax,[ebx-0x1f0f]
  1011ac:	50                   	push   eax
  1011ad:	e8 a6 07 00 00       	call   101958 <vga_print>
  1011b2:	83 c4 10             	add    esp,0x10
  1011b5:	83 ec 08             	sub    esp,0x8
  1011b8:	6a 00                	push   0x0
  1011ba:	6a 08                	push   0x8
  1011bc:	e8 18 01 00 00       	call   1012d9 <vga_set_color>
  1011c1:	83 c4 10             	add    esp,0x10
  1011c4:	83 ec 0c             	sub    esp,0xc
  1011c7:	8d 83 0c e1 ff ff    	lea    eax,[ebx-0x1ef4]
  1011cd:	50                   	push   eax
  1011ce:	e8 85 07 00 00       	call   101958 <vga_print>
  1011d3:	83 c4 10             	add    esp,0x10
  1011d6:	83 ec 0c             	sub    esp,0xc
  1011d9:	8d 83 48 e1 ff ff    	lea    eax,[ebx-0x1eb8]
  1011df:	50                   	push   eax
  1011e0:	e8 73 07 00 00       	call   101958 <vga_print>
  1011e5:	83 c4 10             	add    esp,0x10
  1011e8:	e8 f7 3d 00 00       	call   104fe4 <scroll_init>
  1011ed:	e8 b4 45 00 00       	call   1057a6 <ata_init>
  1011f2:	e8 0d 4b 00 00       	call   105d04 <fat12_init>
  1011f7:	85 c0                	test   eax,eax
  1011f9:	75 32                	jne    10122d <kernel_main+0x21e>
  1011fb:	83 ec 08             	sub    esp,0x8
  1011fe:	6a 00                	push   0x0
  101200:	6a 0a                	push   0xa
  101202:	e8 d2 00 00 00       	call   1012d9 <vga_set_color>
  101207:	83 c4 10             	add    esp,0x10
  10120a:	83 ec 0c             	sub    esp,0xc
  10120d:	8d 83 5e e1 ff ff    	lea    eax,[ebx-0x1ea2]
  101213:	50                   	push   eax
  101214:	e8 3f 07 00 00       	call   101958 <vga_print>
  101219:	83 c4 10             	add    esp,0x10
  10121c:	83 ec 08             	sub    esp,0x8
  10121f:	6a 00                	push   0x0
  101221:	6a 0f                	push   0xf
  101223:	e8 b1 00 00 00       	call   1012d9 <vga_set_color>
  101228:	83 c4 10             	add    esp,0x10
  10122b:	eb 30                	jmp    10125d <kernel_main+0x24e>
  10122d:	83 ec 08             	sub    esp,0x8
  101230:	6a 00                	push   0x0
  101232:	6a 0c                	push   0xc
  101234:	e8 a0 00 00 00       	call   1012d9 <vga_set_color>
  101239:	83 c4 10             	add    esp,0x10
  10123c:	83 ec 0c             	sub    esp,0xc
  10123f:	8d 83 74 e1 ff ff    	lea    eax,[ebx-0x1e8c]
  101245:	50                   	push   eax
  101246:	e8 0d 07 00 00       	call   101958 <vga_print>
  10124b:	83 c4 10             	add    esp,0x10
  10124e:	83 ec 08             	sub    esp,0x8
  101251:	6a 00                	push   0x0
  101253:	6a 0f                	push   0xf
  101255:	e8 7f 00 00 00       	call   1012d9 <vga_set_color>
  10125a:	83 c4 10             	add    esp,0x10
  10125d:	e8 34 3c 00 00       	call   104e96 <shell_run>
  101262:	90                   	nop
  101263:	8b 5d fc             	mov    ebx,DWORD PTR [ebp-0x4]
  101266:	c9                   	leave
  101267:	c3                   	ret

00101268 <make_color>:
  101268:	55                   	push   ebp
  101269:	89 e5                	mov    ebp,esp
  10126b:	e8 ea 55 00 00       	call   10685a <__x86.get_pc_thunk.ax>
  101270:	05 98 7d 00 00       	add    eax,0x7d98
  101275:	8b 45 0c             	mov    eax,DWORD PTR [ebp+0xc]
  101278:	c1 e0 04             	shl    eax,0x4
  10127b:	89 c2                	mov    edx,eax
  10127d:	8b 45 08             	mov    eax,DWORD PTR [ebp+0x8]
  101280:	09 d0                	or     eax,edx
  101282:	5d                   	pop    ebp
  101283:	c3                   	ret

00101284 <make_vga_entry>:
  101284:	55                   	push   ebp
  101285:	89 e5                	mov    ebp,esp
  101287:	83 ec 08             	sub    esp,0x8
  10128a:	e8 cb 55 00 00       	call   10685a <__x86.get_pc_thunk.ax>
  10128f:	05 79 7d 00 00       	add    eax,0x7d79
  101294:	8b 55 08             	mov    edx,DWORD PTR [ebp+0x8]
  101297:	8b 45 0c             	mov    eax,DWORD PTR [ebp+0xc]
  10129a:	88 55 fc             	mov    BYTE PTR [ebp-0x4],dl
  10129d:	88 45 f8             	mov    BYTE PTR [ebp-0x8],al
  1012a0:	66 0f be 55 fc       	movsx  dx,BYTE PTR [ebp-0x4]
  1012a5:	0f b6 45 f8          	movzx  eax,BYTE PTR [ebp-0x8]
  1012a9:	c1 e0 08             	shl    eax,0x8
  1012ac:	09 d0                	or     eax,edx
  1012ae:	c9                   	leave
  1012af:	c3                   	ret

001012b0 <vga_outb>:
  1012b0:	55                   	push   ebp
  1012b1:	89 e5                	mov    ebp,esp
  1012b3:	83 ec 08             	sub    esp,0x8
  1012b6:	e8 9f 55 00 00       	call   10685a <__x86.get_pc_thunk.ax>
  1012bb:	05 4d 7d 00 00       	add    eax,0x7d4d
  1012c0:	8b 55 08             	mov    edx,DWORD PTR [ebp+0x8]
  1012c3:	8b 45 0c             	mov    eax,DWORD PTR [ebp+0xc]
  1012c6:	66 89 55 fc          	mov    WORD PTR [ebp-0x4],dx
  1012ca:	88 45 f8             	mov    BYTE PTR [ebp-0x8],al
  1012cd:	0f b7 55 fc          	movzx  edx,WORD PTR [ebp-0x4]
  1012d1:	0f b6 45 f8          	movzx  eax,BYTE PTR [ebp-0x8]
  1012d5:	ee                   	out    dx,al
  1012d6:	90                   	nop
  1012d7:	c9                   	leave
  1012d8:	c3                   	ret

001012d9 <vga_set_color>:
  1012d9:	55                   	push   ebp
  1012da:	89 e5                	mov    ebp,esp
  1012dc:	53                   	push   ebx
  1012dd:	e8 74 55 00 00       	call   106856 <__x86.get_pc_thunk.bx>
  1012e2:	81 c3 26 7d 00 00    	add    ebx,0x7d26
  1012e8:	ff 75 0c             	push   DWORD PTR [ebp+0xc]
  1012eb:	ff 75 08             	push   DWORD PTR [ebp+0x8]
  1012ee:	e8 75 ff ff ff       	call   101268 <make_color>
  1012f3:	83 c4 08             	add    esp,0x8
  1012f6:	88 83 00 50 00 00    	mov    BYTE PTR [ebx+0x5000],al
  1012fc:	90                   	nop
  1012fd:	8b 5d fc             	mov    ebx,DWORD PTR [ebp-0x4]
  101300:	c9                   	leave
  101301:	c3                   	ret

00101302 <vga_init>:
  101302:	55                   	push   ebp
  101303:	89 e5                	mov    ebp,esp
  101305:	56                   	push   esi
  101306:	53                   	push   ebx
  101307:	83 ec 10             	sub    esp,0x10
  10130a:	e8 47 55 00 00       	call   106856 <__x86.get_pc_thunk.bx>
  10130f:	81 c3 f9 7c 00 00    	add    ebx,0x7cf9
  101315:	6a 0a                	push   0xa
  101317:	68 d4 03 00 00       	push   0x3d4
  10131c:	e8 8f ff ff ff       	call   1012b0 <vga_outb>
  101321:	83 c4 08             	add    esp,0x8
  101324:	6a 0e                	push   0xe
  101326:	68 d5 03 00 00       	push   0x3d5
  10132b:	e8 80 ff ff ff       	call   1012b0 <vga_outb>
  101330:	83 c4 08             	add    esp,0x8
  101333:	6a 0b                	push   0xb
  101335:	68 d4 03 00 00       	push   0x3d4
  10133a:	e8 71 ff ff ff       	call   1012b0 <vga_outb>
  10133f:	83 c4 08             	add    esp,0x8
  101342:	6a 0f                	push   0xf
  101344:	68 d5 03 00 00       	push   0x3d5
  101349:	e8 62 ff ff ff       	call   1012b0 <vga_outb>
  10134e:	83 c4 08             	add    esp,0x8
  101351:	c7 83 f8 4f 00 00 00 	mov    DWORD PTR [ebx+0x4ff8],0x0
  101358:	00 00 00 
  10135b:	c7 83 fc 4f 00 00 00 	mov    DWORD PTR [ebx+0x4ffc],0x0
  101362:	00 00 00 
  101365:	6a 00                	push   0x0
  101367:	6a 0f                	push   0xf
  101369:	e8 fa fe ff ff       	call   101268 <make_color>
  10136e:	83 c4 08             	add    esp,0x8
  101371:	88 83 00 50 00 00    	mov    BYTE PTR [ebx+0x5000],al
  101377:	c7 45 f4 00 00 00 00 	mov    DWORD PTR [ebp-0xc],0x0
  10137e:	eb 53                	jmp    1013d3 <vga_init+0xd1>
  101380:	c7 45 f0 00 00 00 00 	mov    DWORD PTR [ebp-0x10],0x0
  101387:	eb 40                	jmp    1013c9 <vga_init+0xc7>
  101389:	8b 55 f4             	mov    edx,DWORD PTR [ebp-0xc]
  10138c:	89 d0                	mov    eax,edx
  10138e:	c1 e0 02             	shl    eax,0x2
  101391:	01 d0                	add    eax,edx
  101393:	c1 e0 04             	shl    eax,0x4
  101396:	89 c2                	mov    edx,eax
  101398:	8b 45 f0             	mov    eax,DWORD PTR [ebp-0x10]
  10139b:	01 d0                	add    eax,edx
  10139d:	89 45 ec             	mov    DWORD PTR [ebp-0x14],eax
  1013a0:	0f b6 83 00 50 00 00 	movzx  eax,BYTE PTR [ebx+0x5000]
  1013a7:	0f b6 c0             	movzx  eax,al
  1013aa:	b9 00 80 0b 00       	mov    ecx,0xb8000
  1013af:	8b 55 ec             	mov    edx,DWORD PTR [ebp-0x14]
  1013b2:	01 d2                	add    edx,edx
  1013b4:	8d 34 11             	lea    esi,[ecx+edx*1]
  1013b7:	50                   	push   eax
  1013b8:	6a 20                	push   0x20
  1013ba:	e8 c5 fe ff ff       	call   101284 <make_vga_entry>
  1013bf:	83 c4 08             	add    esp,0x8
  1013c2:	66 89 06             	mov    WORD PTR [esi],ax
  1013c5:	83 45 f0 01          	add    DWORD PTR [ebp-0x10],0x1
  1013c9:	83 7d f0 4f          	cmp    DWORD PTR [ebp-0x10],0x4f
  1013cd:	76 ba                	jbe    101389 <vga_init+0x87>
  1013cf:	83 45 f4 01          	add    DWORD PTR [ebp-0xc],0x1
  1013d3:	83 7d f4 18          	cmp    DWORD PTR [ebp-0xc],0x18
  1013d7:	76 a7                	jbe    101380 <vga_init+0x7e>
  1013d9:	e8 21 04 00 00       	call   1017ff <vga_set_cursor>
  1013de:	90                   	nop
  1013df:	8d 65 f8             	lea    esp,[ebp-0x8]
  1013e2:	5b                   	pop    ebx
  1013e3:	5e                   	pop    esi
  1013e4:	5d                   	pop    ebp
  1013e5:	c3                   	ret

001013e6 <vga_scroll>:
  1013e6:	55                   	push   ebp
  1013e7:	89 e5                	mov    ebp,esp
  1013e9:	56                   	push   esi
  1013ea:	53                   	push   ebx
  1013eb:	83 ec 10             	sub    esp,0x10
  1013ee:	e8 63 54 00 00       	call   106856 <__x86.get_pc_thunk.bx>
  1013f3:	81 c3 15 7c 00 00    	add    ebx,0x7c15
  1013f9:	e8 14 3c 00 00       	call   105012 <scroll_on_newline>
  1013fe:	c7 45 f4 00 00 00 00 	mov    DWORD PTR [ebp-0xc],0x0
  101405:	eb 30                	jmp    101437 <vga_scroll+0x51>
  101407:	ba 00 80 0b 00       	mov    edx,0xb8000
  10140c:	8b 45 f4             	mov    eax,DWORD PTR [ebp-0xc]
  10140f:	01 c0                	add    eax,eax
  101411:	01 d0                	add    eax,edx
  101413:	8b 93 98 8e 00 00    	mov    edx,DWORD PTR [ebx+0x8e98]
  101419:	0f b7 08             	movzx  ecx,WORD PTR [eax]
  10141c:	89 d0                	mov    eax,edx
  10141e:	c1 e0 02             	shl    eax,0x2
  101421:	01 d0                	add    eax,edx
  101423:	c1 e0 04             	shl    eax,0x4
  101426:	8b 55 f4             	mov    edx,DWORD PTR [ebp-0xc]
  101429:	01 d0                	add    eax,edx
  10142b:	66 89 8c 43 18 50 00 	mov    WORD PTR [ebx+eax*2+0x5018],cx
  101432:	00 
  101433:	83 45 f4 01          	add    DWORD PTR [ebp-0xc],0x1
  101437:	83 7d f4 4f          	cmp    DWORD PTR [ebp-0xc],0x4f
  10143b:	76 ca                	jbe    101407 <vga_scroll+0x21>
  10143d:	8b 83 98 8e 00 00    	mov    eax,DWORD PTR [ebx+0x8e98]
  101443:	8d 48 01             	lea    ecx,[eax+0x1]
  101446:	ba 1f 85 eb 51       	mov    edx,0x51eb851f
  10144b:	89 c8                	mov    eax,ecx
  10144d:	f7 ea                	imul   edx
  10144f:	89 d0                	mov    eax,edx
  101451:	c1 f8 05             	sar    eax,0x5
  101454:	89 ca                	mov    edx,ecx
  101456:	c1 fa 1f             	sar    edx,0x1f
  101459:	29 d0                	sub    eax,edx
  10145b:	6b d0 64             	imul   edx,eax,0x64
  10145e:	89 c8                	mov    eax,ecx
  101460:	29 d0                	sub    eax,edx
  101462:	89 83 98 8e 00 00    	mov    DWORD PTR [ebx+0x8e98],eax
  101468:	8b 83 9c 8e 00 00    	mov    eax,DWORD PTR [ebx+0x8e9c]
  10146e:	83 f8 63             	cmp    eax,0x63
  101471:	7f 0f                	jg     101482 <vga_scroll+0x9c>
  101473:	8b 83 9c 8e 00 00    	mov    eax,DWORD PTR [ebx+0x8e9c]
  101479:	83 c0 01             	add    eax,0x1
  10147c:	89 83 9c 8e 00 00    	mov    DWORD PTR [ebx+0x8e9c],eax
  101482:	c7 45 f0 01 00 00 00 	mov    DWORD PTR [ebp-0x10],0x1
  101489:	eb 5b                	jmp    1014e6 <vga_scroll+0x100>
  10148b:	c7 45 ec 00 00 00 00 	mov    DWORD PTR [ebp-0x14],0x0
  101492:	eb 48                	jmp    1014dc <vga_scroll+0xf6>
  101494:	b9 00 80 0b 00       	mov    ecx,0xb8000
  101499:	8b 55 f0             	mov    edx,DWORD PTR [ebp-0x10]
  10149c:	89 d0                	mov    eax,edx
  10149e:	c1 e0 02             	shl    eax,0x2
  1014a1:	01 d0                	add    eax,edx
  1014a3:	c1 e0 04             	shl    eax,0x4
  1014a6:	89 c2                	mov    edx,eax
  1014a8:	8b 45 ec             	mov    eax,DWORD PTR [ebp-0x14]
  1014ab:	01 d0                	add    eax,edx
  1014ad:	01 c0                	add    eax,eax
  1014af:	01 c1                	add    ecx,eax
  1014b1:	be 00 80 0b 00       	mov    esi,0xb8000
  1014b6:	8b 45 f0             	mov    eax,DWORD PTR [ebp-0x10]
  1014b9:	8d 50 ff             	lea    edx,[eax-0x1]
  1014bc:	89 d0                	mov    eax,edx
  1014be:	c1 e0 02             	shl    eax,0x2
  1014c1:	01 d0                	add    eax,edx
  1014c3:	c1 e0 04             	shl    eax,0x4
  1014c6:	89 c2                	mov    edx,eax
  1014c8:	8b 45 ec             	mov    eax,DWORD PTR [ebp-0x14]
  1014cb:	01 d0                	add    eax,edx
  1014cd:	01 c0                	add    eax,eax
  1014cf:	8d 14 06             	lea    edx,[esi+eax*1]
  1014d2:	0f b7 01             	movzx  eax,WORD PTR [ecx]
  1014d5:	66 89 02             	mov    WORD PTR [edx],ax
  1014d8:	83 45 ec 01          	add    DWORD PTR [ebp-0x14],0x1
  1014dc:	83 7d ec 4f          	cmp    DWORD PTR [ebp-0x14],0x4f
  1014e0:	76 b2                	jbe    101494 <vga_scroll+0xae>
  1014e2:	83 45 f0 01          	add    DWORD PTR [ebp-0x10],0x1
  1014e6:	83 7d f0 18          	cmp    DWORD PTR [ebp-0x10],0x18
  1014ea:	76 9f                	jbe    10148b <vga_scroll+0xa5>
  1014ec:	c7 45 e8 00 00 00 00 	mov    DWORD PTR [ebp-0x18],0x0
  1014f3:	eb 3a                	jmp    10152f <vga_scroll+0x149>
  1014f5:	83 ec 08             	sub    esp,0x8
  1014f8:	6a 00                	push   0x0
  1014fa:	6a 0f                	push   0xf
  1014fc:	e8 67 fd ff ff       	call   101268 <make_color>
  101501:	83 c4 10             	add    esp,0x10
  101504:	0f b6 c0             	movzx  eax,al
  101507:	b9 00 80 0b 00       	mov    ecx,0xb8000
  10150c:	8b 55 e8             	mov    edx,DWORD PTR [ebp-0x18]
  10150f:	81 c2 80 07 00 00    	add    edx,0x780
  101515:	01 d2                	add    edx,edx
  101517:	8d 34 11             	lea    esi,[ecx+edx*1]
  10151a:	83 ec 08             	sub    esp,0x8
  10151d:	50                   	push   eax
  10151e:	6a 20                	push   0x20
  101520:	e8 5f fd ff ff       	call   101284 <make_vga_entry>
  101525:	83 c4 10             	add    esp,0x10
  101528:	66 89 06             	mov    WORD PTR [esi],ax
  10152b:	83 45 e8 01          	add    DWORD PTR [ebp-0x18],0x1
  10152f:	83 7d e8 4f          	cmp    DWORD PTR [ebp-0x18],0x4f
  101533:	76 c0                	jbe    1014f5 <vga_scroll+0x10f>
  101535:	c7 83 f8 4f 00 00 18 	mov    DWORD PTR [ebx+0x4ff8],0x18
  10153c:	00 00 00 
  10153f:	c7 83 fc 4f 00 00 00 	mov    DWORD PTR [ebx+0x4ffc],0x0
  101546:	00 00 00 
  101549:	90                   	nop
  10154a:	8d 65 f8             	lea    esp,[ebp-0x8]
  10154d:	5b                   	pop    ebx
  10154e:	5e                   	pop    esi
  10154f:	5d                   	pop    ebp
  101550:	c3                   	ret

00101551 <vga_view_reset>:
  101551:	55                   	push   ebp
  101552:	89 e5                	mov    ebp,esp
  101554:	53                   	push   ebx
  101555:	83 ec 14             	sub    esp,0x14
  101558:	e8 01 53 00 00       	call   10685e <__x86.get_pc_thunk.dx>
  10155d:	81 c2 ab 7a 00 00    	add    edx,0x7aab
  101563:	8b 82 58 9e 00 00    	mov    eax,DWORD PTR [edx+0x9e58]
  101569:	85 c0                	test   eax,eax
  10156b:	74 71                	je     1015de <vga_view_reset+0x8d>
  10156d:	c7 45 f4 00 00 00 00 	mov    DWORD PTR [ebp-0xc],0x0
  101574:	eb 51                	jmp    1015c7 <vga_view_reset+0x76>
  101576:	c7 45 f0 00 00 00 00 	mov    DWORD PTR [ebp-0x10],0x0
  10157d:	eb 3e                	jmp    1015bd <vga_view_reset+0x6c>
  10157f:	bb 00 80 0b 00       	mov    ebx,0xb8000
  101584:	8b 4d f4             	mov    ecx,DWORD PTR [ebp-0xc]
  101587:	89 c8                	mov    eax,ecx
  101589:	c1 e0 02             	shl    eax,0x2
  10158c:	01 c8                	add    eax,ecx
  10158e:	c1 e0 04             	shl    eax,0x4
  101591:	89 c1                	mov    ecx,eax
  101593:	8b 45 f0             	mov    eax,DWORD PTR [ebp-0x10]
  101596:	01 c8                	add    eax,ecx
  101598:	01 c0                	add    eax,eax
  10159a:	01 c3                	add    ebx,eax
  10159c:	8b 4d f4             	mov    ecx,DWORD PTR [ebp-0xc]
  10159f:	89 c8                	mov    eax,ecx
  1015a1:	c1 e0 02             	shl    eax,0x2
  1015a4:	01 c8                	add    eax,ecx
  1015a6:	c1 e0 04             	shl    eax,0x4
  1015a9:	8b 4d f0             	mov    ecx,DWORD PTR [ebp-0x10]
  1015ac:	01 c8                	add    eax,ecx
  1015ae:	0f b7 84 42 b8 8e 00 	movzx  eax,WORD PTR [edx+eax*2+0x8eb8]
  1015b5:	00 
  1015b6:	66 89 03             	mov    WORD PTR [ebx],ax
  1015b9:	83 45 f0 01          	add    DWORD PTR [ebp-0x10],0x1
  1015bd:	83 7d f0 4f          	cmp    DWORD PTR [ebp-0x10],0x4f
  1015c1:	76 bc                	jbe    10157f <vga_view_reset+0x2e>
  1015c3:	83 45 f4 01          	add    DWORD PTR [ebp-0xc],0x1
  1015c7:	83 7d f4 18          	cmp    DWORD PTR [ebp-0xc],0x18
  1015cb:	76 a9                	jbe    101576 <vga_view_reset+0x25>
  1015cd:	c7 82 58 9e 00 00 00 	mov    DWORD PTR [edx+0x9e58],0x0
  1015d4:	00 00 00 
  1015d7:	e8 23 02 00 00       	call   1017ff <vga_set_cursor>
  1015dc:	eb 01                	jmp    1015df <vga_view_reset+0x8e>
  1015de:	90                   	nop
  1015df:	8b 5d fc             	mov    ebx,DWORD PTR [ebp-0x4]
  1015e2:	c9                   	leave
  1015e3:	c3                   	ret

001015e4 <vga_view_up>:
  1015e4:	55                   	push   ebp
  1015e5:	89 e5                	mov    ebp,esp
  1015e7:	56                   	push   esi
  1015e8:	53                   	push   ebx
  1015e9:	83 ec 30             	sub    esp,0x30
  1015ec:	e8 71 52 00 00       	call   106862 <__x86.get_pc_thunk.cx>
  1015f1:	81 c1 17 7a 00 00    	add    ecx,0x7a17
  1015f7:	8b 81 9c 8e 00 00    	mov    eax,DWORD PTR [ecx+0x8e9c]
  1015fd:	85 c0                	test   eax,eax
  1015ff:	0f 84 cb 01 00 00    	je     1017d0 <vga_view_up+0x1ec>
  101605:	8b 81 58 9e 00 00    	mov    eax,DWORD PTR [ecx+0x9e58]
  10160b:	85 c0                	test   eax,eax
  10160d:	75 60                	jne    10166f <vga_view_up+0x8b>
  10160f:	c7 45 f4 00 00 00 00 	mov    DWORD PTR [ebp-0xc],0x0
  101616:	eb 51                	jmp    101669 <vga_view_up+0x85>
  101618:	c7 45 f0 00 00 00 00 	mov    DWORD PTR [ebp-0x10],0x0
  10161f:	eb 3e                	jmp    10165f <vga_view_up+0x7b>
  101621:	bb 00 80 0b 00       	mov    ebx,0xb8000
  101626:	8b 55 f4             	mov    edx,DWORD PTR [ebp-0xc]
  101629:	89 d0                	mov    eax,edx
  10162b:	c1 e0 02             	shl    eax,0x2
  10162e:	01 d0                	add    eax,edx
  101630:	c1 e0 04             	shl    eax,0x4
  101633:	89 c2                	mov    edx,eax
  101635:	8b 45 f0             	mov    eax,DWORD PTR [ebp-0x10]
  101638:	01 d0                	add    eax,edx
  10163a:	01 c0                	add    eax,eax
  10163c:	01 d8                	add    eax,ebx
  10163e:	0f b7 18             	movzx  ebx,WORD PTR [eax]
  101641:	8b 55 f4             	mov    edx,DWORD PTR [ebp-0xc]
  101644:	89 d0                	mov    eax,edx
  101646:	c1 e0 02             	shl    eax,0x2
  101649:	01 d0                	add    eax,edx
  10164b:	c1 e0 04             	shl    eax,0x4
  10164e:	8b 55 f0             	mov    edx,DWORD PTR [ebp-0x10]
  101651:	01 d0                	add    eax,edx
  101653:	66 89 9c 41 b8 8e 00 	mov    WORD PTR [ecx+eax*2+0x8eb8],bx
  10165a:	00 
  10165b:	83 45 f0 01          	add    DWORD PTR [ebp-0x10],0x1
  10165f:	83 7d f0 4f          	cmp    DWORD PTR [ebp-0x10],0x4f
  101663:	76 bc                	jbe    101621 <vga_view_up+0x3d>
  101665:	83 45 f4 01          	add    DWORD PTR [ebp-0xc],0x1
  101669:	83 7d f4 18          	cmp    DWORD PTR [ebp-0xc],0x18
  10166d:	76 a9                	jbe    101618 <vga_view_up+0x34>
  10166f:	8b 81 9c 8e 00 00    	mov    eax,DWORD PTR [ecx+0x8e9c]
  101675:	8b 91 58 9e 00 00    	mov    edx,DWORD PTR [ecx+0x9e58]
  10167b:	29 d0                	sub    eax,edx
  10167d:	89 45 d4             	mov    DWORD PTR [ebp-0x2c],eax
  101680:	83 7d d4 00          	cmp    DWORD PTR [ebp-0x2c],0x0
  101684:	0f 8e 49 01 00 00    	jle    1017d3 <vga_view_up+0x1ef>
  10168a:	c7 45 ec 0c 00 00 00 	mov    DWORD PTR [ebp-0x14],0xc
  101691:	8b 45 ec             	mov    eax,DWORD PTR [ebp-0x14]
  101694:	3b 45 d4             	cmp    eax,DWORD PTR [ebp-0x2c]
  101697:	7e 06                	jle    10169f <vga_view_up+0xbb>
  101699:	8b 45 d4             	mov    eax,DWORD PTR [ebp-0x2c]
  10169c:	89 45 ec             	mov    DWORD PTR [ebp-0x14],eax
  10169f:	c7 45 e8 18 00 00 00 	mov    DWORD PTR [ebp-0x18],0x18
  1016a6:	eb 5d                	jmp    101705 <vga_view_up+0x121>
  1016a8:	c7 45 e4 00 00 00 00 	mov    DWORD PTR [ebp-0x1c],0x0
  1016af:	eb 4a                	jmp    1016fb <vga_view_up+0x117>
  1016b1:	bb 00 80 0b 00       	mov    ebx,0xb8000
  1016b6:	8b 45 e8             	mov    eax,DWORD PTR [ebp-0x18]
  1016b9:	2b 45 ec             	sub    eax,DWORD PTR [ebp-0x14]
  1016bc:	89 c2                	mov    edx,eax
  1016be:	89 d0                	mov    eax,edx
  1016c0:	c1 e0 02             	shl    eax,0x2
  1016c3:	01 d0                	add    eax,edx
  1016c5:	c1 e0 04             	shl    eax,0x4
  1016c8:	89 c2                	mov    edx,eax
  1016ca:	8b 45 e4             	mov    eax,DWORD PTR [ebp-0x1c]
  1016cd:	01 d0                	add    eax,edx
  1016cf:	01 c0                	add    eax,eax
  1016d1:	01 c3                	add    ebx,eax
  1016d3:	be 00 80 0b 00       	mov    esi,0xb8000
  1016d8:	8b 55 e8             	mov    edx,DWORD PTR [ebp-0x18]
  1016db:	89 d0                	mov    eax,edx
  1016dd:	c1 e0 02             	shl    eax,0x2
  1016e0:	01 d0                	add    eax,edx
  1016e2:	c1 e0 04             	shl    eax,0x4
  1016e5:	89 c2                	mov    edx,eax
  1016e7:	8b 45 e4             	mov    eax,DWORD PTR [ebp-0x1c]
  1016ea:	01 d0                	add    eax,edx
  1016ec:	01 c0                	add    eax,eax
  1016ee:	8d 14 06             	lea    edx,[esi+eax*1]
  1016f1:	0f b7 03             	movzx  eax,WORD PTR [ebx]
  1016f4:	66 89 02             	mov    WORD PTR [edx],ax
  1016f7:	83 45 e4 01          	add    DWORD PTR [ebp-0x1c],0x1
  1016fb:	83 7d e4 4f          	cmp    DWORD PTR [ebp-0x1c],0x4f
  1016ff:	76 b0                	jbe    1016b1 <vga_view_up+0xcd>
  101701:	83 6d e8 01          	sub    DWORD PTR [ebp-0x18],0x1
  101705:	8b 45 e8             	mov    eax,DWORD PTR [ebp-0x18]
  101708:	3b 45 ec             	cmp    eax,DWORD PTR [ebp-0x14]
  10170b:	7d 9b                	jge    1016a8 <vga_view_up+0xc4>
  10170d:	c7 45 e0 00 00 00 00 	mov    DWORD PTR [ebp-0x20],0x0
  101714:	e9 98 00 00 00       	jmp    1017b1 <vga_view_up+0x1cd>
  101719:	8b 81 98 8e 00 00    	mov    eax,DWORD PTR [ecx+0x8e98]
  10171f:	8b 91 58 9e 00 00    	mov    edx,DWORD PTR [ecx+0x9e58]
  101725:	29 d0                	sub    eax,edx
  101727:	2b 45 ec             	sub    eax,DWORD PTR [ebp-0x14]
  10172a:	89 c2                	mov    edx,eax
  10172c:	8b 45 e0             	mov    eax,DWORD PTR [ebp-0x20]
  10172f:	01 d0                	add    eax,edx
  101731:	89 45 dc             	mov    DWORD PTR [ebp-0x24],eax
  101734:	eb 04                	jmp    10173a <vga_view_up+0x156>
  101736:	83 45 dc 64          	add    DWORD PTR [ebp-0x24],0x64
  10173a:	83 7d dc 00          	cmp    DWORD PTR [ebp-0x24],0x0
  10173e:	78 f6                	js     101736 <vga_view_up+0x152>
  101740:	8b 5d dc             	mov    ebx,DWORD PTR [ebp-0x24]
  101743:	ba 1f 85 eb 51       	mov    edx,0x51eb851f
  101748:	89 d8                	mov    eax,ebx
  10174a:	f7 ea                	imul   edx
  10174c:	c1 fa 05             	sar    edx,0x5
  10174f:	89 d8                	mov    eax,ebx
  101751:	c1 f8 1f             	sar    eax,0x1f
  101754:	29 c2                	sub    edx,eax
  101756:	6b c2 64             	imul   eax,edx,0x64
  101759:	29 c3                	sub    ebx,eax
  10175b:	89 da                	mov    edx,ebx
  10175d:	89 55 dc             	mov    DWORD PTR [ebp-0x24],edx
  101760:	c7 45 d8 00 00 00 00 	mov    DWORD PTR [ebp-0x28],0x0
  101767:	eb 3e                	jmp    1017a7 <vga_view_up+0x1c3>
  101769:	bb 00 80 0b 00       	mov    ebx,0xb8000
  10176e:	8b 55 e0             	mov    edx,DWORD PTR [ebp-0x20]
  101771:	89 d0                	mov    eax,edx
  101773:	c1 e0 02             	shl    eax,0x2
  101776:	01 d0                	add    eax,edx
  101778:	c1 e0 04             	shl    eax,0x4
  10177b:	89 c2                	mov    edx,eax
  10177d:	8b 45 d8             	mov    eax,DWORD PTR [ebp-0x28]
  101780:	01 d0                	add    eax,edx
  101782:	01 c0                	add    eax,eax
  101784:	01 c3                	add    ebx,eax
  101786:	8b 55 dc             	mov    edx,DWORD PTR [ebp-0x24]
  101789:	89 d0                	mov    eax,edx
  10178b:	c1 e0 02             	shl    eax,0x2
  10178e:	01 d0                	add    eax,edx
  101790:	c1 e0 04             	shl    eax,0x4
  101793:	8b 55 d8             	mov    edx,DWORD PTR [ebp-0x28]
  101796:	01 d0                	add    eax,edx
  101798:	0f b7 84 41 18 50 00 	movzx  eax,WORD PTR [ecx+eax*2+0x5018]
  10179f:	00 
  1017a0:	66 89 03             	mov    WORD PTR [ebx],ax
  1017a3:	83 45 d8 01          	add    DWORD PTR [ebp-0x28],0x1
  1017a7:	83 7d d8 4f          	cmp    DWORD PTR [ebp-0x28],0x4f
  1017ab:	76 bc                	jbe    101769 <vga_view_up+0x185>
  1017ad:	83 45 e0 01          	add    DWORD PTR [ebp-0x20],0x1
  1017b1:	8b 45 e0             	mov    eax,DWORD PTR [ebp-0x20]
  1017b4:	3b 45 ec             	cmp    eax,DWORD PTR [ebp-0x14]
  1017b7:	0f 8c 5c ff ff ff    	jl     101719 <vga_view_up+0x135>
  1017bd:	8b 91 58 9e 00 00    	mov    edx,DWORD PTR [ecx+0x9e58]
  1017c3:	8b 45 ec             	mov    eax,DWORD PTR [ebp-0x14]
  1017c6:	01 d0                	add    eax,edx
  1017c8:	89 81 58 9e 00 00    	mov    DWORD PTR [ecx+0x9e58],eax
  1017ce:	eb 04                	jmp    1017d4 <vga_view_up+0x1f0>
  1017d0:	90                   	nop
  1017d1:	eb 01                	jmp    1017d4 <vga_view_up+0x1f0>
  1017d3:	90                   	nop
  1017d4:	83 c4 30             	add    esp,0x30
  1017d7:	5b                   	pop    ebx
  1017d8:	5e                   	pop    esi
  1017d9:	5d                   	pop    ebp
  1017da:	c3                   	ret

001017db <vga_view_down>:
  1017db:	55                   	push   ebp
  1017dc:	89 e5                	mov    ebp,esp
  1017de:	83 ec 08             	sub    esp,0x8
  1017e1:	e8 74 50 00 00       	call   10685a <__x86.get_pc_thunk.ax>
  1017e6:	05 22 78 00 00       	add    eax,0x7822
  1017eb:	8b 80 58 9e 00 00    	mov    eax,DWORD PTR [eax+0x9e58]
  1017f1:	85 c0                	test   eax,eax
  1017f3:	74 07                	je     1017fc <vga_view_down+0x21>
  1017f5:	e8 57 fd ff ff       	call   101551 <vga_view_reset>
  1017fa:	eb 01                	jmp    1017fd <vga_view_down+0x22>
  1017fc:	90                   	nop
  1017fd:	c9                   	leave
  1017fe:	c3                   	ret

001017ff <vga_set_cursor>:
  1017ff:	55                   	push   ebp
  101800:	89 e5                	mov    ebp,esp
  101802:	83 ec 10             	sub    esp,0x10
  101805:	e8 54 50 00 00       	call   10685e <__x86.get_pc_thunk.dx>
  10180a:	81 c2 fe 77 00 00    	add    edx,0x77fe
  101810:	8b 82 f8 4f 00 00    	mov    eax,DWORD PTR [edx+0x4ff8]
  101816:	89 c1                	mov    ecx,eax
  101818:	89 c8                	mov    eax,ecx
  10181a:	c1 e0 02             	shl    eax,0x2
  10181d:	01 c8                	add    eax,ecx
  10181f:	c1 e0 04             	shl    eax,0x4
  101822:	89 c1                	mov    ecx,eax
  101824:	8b 82 fc 4f 00 00    	mov    eax,DWORD PTR [edx+0x4ffc]
  10182a:	01 c8                	add    eax,ecx
  10182c:	66 89 45 fe          	mov    WORD PTR [ebp-0x2],ax
  101830:	6a 0e                	push   0xe
  101832:	68 d4 03 00 00       	push   0x3d4
  101837:	e8 74 fa ff ff       	call   1012b0 <vga_outb>
  10183c:	83 c4 08             	add    esp,0x8
  10183f:	0f b7 45 fe          	movzx  eax,WORD PTR [ebp-0x2]
  101843:	66 c1 e8 08          	shr    ax,0x8
  101847:	0f b6 c0             	movzx  eax,al
  10184a:	50                   	push   eax
  10184b:	68 d5 03 00 00       	push   0x3d5
  101850:	e8 5b fa ff ff       	call   1012b0 <vga_outb>
  101855:	83 c4 08             	add    esp,0x8
  101858:	6a 0f                	push   0xf
  10185a:	68 d4 03 00 00       	push   0x3d4
  10185f:	e8 4c fa ff ff       	call   1012b0 <vga_outb>
  101864:	83 c4 08             	add    esp,0x8
  101867:	0f b7 45 fe          	movzx  eax,WORD PTR [ebp-0x2]
  10186b:	0f b6 c0             	movzx  eax,al
  10186e:	50                   	push   eax
  10186f:	68 d5 03 00 00       	push   0x3d5
  101874:	e8 37 fa ff ff       	call   1012b0 <vga_outb>
  101879:	83 c4 08             	add    esp,0x8
  10187c:	90                   	nop
  10187d:	c9                   	leave
  10187e:	c3                   	ret

0010187f <vga_putchar>:
  10187f:	55                   	push   ebp
  101880:	89 e5                	mov    ebp,esp
  101882:	56                   	push   esi
  101883:	53                   	push   ebx
  101884:	83 ec 20             	sub    esp,0x20
  101887:	e8 ca 4f 00 00       	call   106856 <__x86.get_pc_thunk.bx>
  10188c:	81 c3 7c 77 00 00    	add    ebx,0x777c
  101892:	8b 45 08             	mov    eax,DWORD PTR [ebp+0x8]
  101895:	88 45 e4             	mov    BYTE PTR [ebp-0x1c],al
  101898:	80 7d e4 0a          	cmp    BYTE PTR [ebp-0x1c],0xa
  10189c:	75 33                	jne    1018d1 <vga_putchar+0x52>
  10189e:	c7 83 fc 4f 00 00 00 	mov    DWORD PTR [ebx+0x4ffc],0x0
  1018a5:	00 00 00 
  1018a8:	8b 83 f8 4f 00 00    	mov    eax,DWORD PTR [ebx+0x4ff8]
  1018ae:	83 c0 01             	add    eax,0x1
  1018b1:	89 83 f8 4f 00 00    	mov    DWORD PTR [ebx+0x4ff8],eax
  1018b7:	8b 83 f8 4f 00 00    	mov    eax,DWORD PTR [ebx+0x4ff8]
  1018bd:	83 f8 18             	cmp    eax,0x18
  1018c0:	76 05                	jbe    1018c7 <vga_putchar+0x48>
  1018c2:	e8 1f fb ff ff       	call   1013e6 <vga_scroll>
  1018c7:	e8 33 ff ff ff       	call   1017ff <vga_set_cursor>
  1018cc:	e9 80 00 00 00       	jmp    101951 <vga_putchar+0xd2>
  1018d1:	8b 93 f8 4f 00 00    	mov    edx,DWORD PTR [ebx+0x4ff8]
  1018d7:	89 d0                	mov    eax,edx
  1018d9:	c1 e0 02             	shl    eax,0x2
  1018dc:	01 d0                	add    eax,edx
  1018de:	c1 e0 04             	shl    eax,0x4
  1018e1:	89 c2                	mov    edx,eax
  1018e3:	8b 83 fc 4f 00 00    	mov    eax,DWORD PTR [ebx+0x4ffc]
  1018e9:	01 d0                	add    eax,edx
  1018eb:	89 45 f4             	mov    DWORD PTR [ebp-0xc],eax
  1018ee:	0f b6 83 00 50 00 00 	movzx  eax,BYTE PTR [ebx+0x5000]
  1018f5:	0f b6 d0             	movzx  edx,al
  1018f8:	0f be 45 e4          	movsx  eax,BYTE PTR [ebp-0x1c]
  1018fc:	be 00 80 0b 00       	mov    esi,0xb8000
  101901:	8b 4d f4             	mov    ecx,DWORD PTR [ebp-0xc]
  101904:	01 c9                	add    ecx,ecx
  101906:	01 ce                	add    esi,ecx
  101908:	83 ec 08             	sub    esp,0x8
  10190b:	52                   	push   edx
  10190c:	50                   	push   eax
  10190d:	e8 72 f9 ff ff       	call   101284 <make_vga_entry>
  101912:	83 c4 10             	add    esp,0x10
  101915:	66 89 06             	mov    WORD PTR [esi],ax
  101918:	8b 83 fc 4f 00 00    	mov    eax,DWORD PTR [ebx+0x4ffc]
  10191e:	83 c0 01             	add    eax,0x1
  101921:	89 83 fc 4f 00 00    	mov    DWORD PTR [ebx+0x4ffc],eax
  101927:	8b 83 fc 4f 00 00    	mov    eax,DWORD PTR [ebx+0x4ffc]
  10192d:	83 f8 50             	cmp    eax,0x50
  101930:	75 1a                	jne    10194c <vga_putchar+0xcd>
  101932:	c7 83 fc 4f 00 00 00 	mov    DWORD PTR [ebx+0x4ffc],0x0
  101939:	00 00 00 
  10193c:	8b 83 f8 4f 00 00    	mov    eax,DWORD PTR [ebx+0x4ff8]
  101942:	83 f8 18             	cmp    eax,0x18
  101945:	76 05                	jbe    10194c <vga_putchar+0xcd>
  101947:	e8 9a fa ff ff       	call   1013e6 <vga_scroll>
  10194c:	e8 ae fe ff ff       	call   1017ff <vga_set_cursor>
  101951:	8d 65 f8             	lea    esp,[ebp-0x8]
  101954:	5b                   	pop    ebx
  101955:	5e                   	pop    esi
  101956:	5d                   	pop    ebp
  101957:	c3                   	ret

00101958 <vga_print>:
  101958:	55                   	push   ebp
  101959:	89 e5                	mov    ebp,esp
  10195b:	83 ec 08             	sub    esp,0x8
  10195e:	e8 f7 4e 00 00       	call   10685a <__x86.get_pc_thunk.ax>
  101963:	05 a5 76 00 00       	add    eax,0x76a5
  101968:	eb 19                	jmp    101983 <vga_print+0x2b>
  10196a:	8b 45 08             	mov    eax,DWORD PTR [ebp+0x8]
  10196d:	0f b6 00             	movzx  eax,BYTE PTR [eax]
  101970:	0f be c0             	movsx  eax,al
  101973:	83 ec 0c             	sub    esp,0xc
  101976:	50                   	push   eax
  101977:	e8 03 ff ff ff       	call   10187f <vga_putchar>
  10197c:	83 c4 10             	add    esp,0x10
  10197f:	83 45 08 01          	add    DWORD PTR [ebp+0x8],0x1
  101983:	8b 45 08             	mov    eax,DWORD PTR [ebp+0x8]
  101986:	0f b6 00             	movzx  eax,BYTE PTR [eax]
  101989:	84 c0                	test   al,al
  10198b:	75 dd                	jne    10196a <vga_print+0x12>
  10198d:	90                   	nop
  10198e:	90                   	nop
  10198f:	c9                   	leave
  101990:	c3                   	ret

00101991 <vga_backspace>:
  101991:	55                   	push   ebp
  101992:	89 e5                	mov    ebp,esp
  101994:	53                   	push   ebx
  101995:	83 ec 10             	sub    esp,0x10
  101998:	e8 bd 4e 00 00       	call   10685a <__x86.get_pc_thunk.ax>
  10199d:	05 6b 76 00 00       	add    eax,0x766b
  1019a2:	8b 90 fc 4f 00 00    	mov    edx,DWORD PTR [eax+0x4ffc]
  1019a8:	85 d2                	test   edx,edx
  1019aa:	74 11                	je     1019bd <vga_backspace+0x2c>
  1019ac:	8b 90 fc 4f 00 00    	mov    edx,DWORD PTR [eax+0x4ffc]
  1019b2:	83 ea 01             	sub    edx,0x1
  1019b5:	89 90 fc 4f 00 00    	mov    DWORD PTR [eax+0x4ffc],edx
  1019bb:	eb 23                	jmp    1019e0 <vga_backspace+0x4f>
  1019bd:	8b 90 f8 4f 00 00    	mov    edx,DWORD PTR [eax+0x4ff8]
  1019c3:	85 d2                	test   edx,edx
  1019c5:	74 65                	je     101a2c <vga_backspace+0x9b>
  1019c7:	8b 90 f8 4f 00 00    	mov    edx,DWORD PTR [eax+0x4ff8]
  1019cd:	83 ea 01             	sub    edx,0x1
  1019d0:	89 90 f8 4f 00 00    	mov    DWORD PTR [eax+0x4ff8],edx
  1019d6:	c7 80 fc 4f 00 00 4f 	mov    DWORD PTR [eax+0x4ffc],0x4f
  1019dd:	00 00 00 
  1019e0:	8b 88 f8 4f 00 00    	mov    ecx,DWORD PTR [eax+0x4ff8]
  1019e6:	89 ca                	mov    edx,ecx
  1019e8:	c1 e2 02             	shl    edx,0x2
  1019eb:	01 ca                	add    edx,ecx
  1019ed:	c1 e2 04             	shl    edx,0x4
  1019f0:	8b 80 fc 4f 00 00    	mov    eax,DWORD PTR [eax+0x4ffc]
  1019f6:	01 d0                	add    eax,edx
  1019f8:	89 45 f8             	mov    DWORD PTR [ebp-0x8],eax
  1019fb:	6a 00                	push   0x0
  1019fd:	6a 0f                	push   0xf
  1019ff:	e8 64 f8 ff ff       	call   101268 <make_color>
  101a04:	83 c4 08             	add    esp,0x8
  101a07:	0f b6 c0             	movzx  eax,al
  101a0a:	b9 00 80 0b 00       	mov    ecx,0xb8000
  101a0f:	8b 55 f8             	mov    edx,DWORD PTR [ebp-0x8]
  101a12:	01 d2                	add    edx,edx
  101a14:	8d 1c 11             	lea    ebx,[ecx+edx*1]
  101a17:	50                   	push   eax
  101a18:	6a 20                	push   0x20
  101a1a:	e8 65 f8 ff ff       	call   101284 <make_vga_entry>
  101a1f:	83 c4 08             	add    esp,0x8
  101a22:	66 89 03             	mov    WORD PTR [ebx],ax
  101a25:	e8 d5 fd ff ff       	call   1017ff <vga_set_cursor>
  101a2a:	eb 01                	jmp    101a2d <vga_backspace+0x9c>
  101a2c:	90                   	nop
  101a2d:	8b 5d fc             	mov    ebx,DWORD PTR [ebp-0x4]
  101a30:	c9                   	leave
  101a31:	c3                   	ret

00101a32 <gdt_set_entry>:
  101a32:	55                   	push   ebp
  101a33:	89 e5                	mov    ebp,esp
  101a35:	83 ec 08             	sub    esp,0x8
  101a38:	e8 1d 4e 00 00       	call   10685a <__x86.get_pc_thunk.ax>
  101a3d:	05 cb 75 00 00       	add    eax,0x75cb
  101a42:	8b 4d 14             	mov    ecx,DWORD PTR [ebp+0x14]
  101a45:	8b 55 18             	mov    edx,DWORD PTR [ebp+0x18]
  101a48:	88 4d fc             	mov    BYTE PTR [ebp-0x4],cl
  101a4b:	88 55 f8             	mov    BYTE PTR [ebp-0x8],dl
  101a4e:	8b 55 0c             	mov    edx,DWORD PTR [ebp+0xc]
  101a51:	89 d1                	mov    ecx,edx
  101a53:	8b 55 08             	mov    edx,DWORD PTR [ebp+0x8]
  101a56:	66 89 8c d0 5e 9e 00 	mov    WORD PTR [eax+edx*8+0x9e5e],cx
  101a5d:	00 
  101a5e:	8b 55 0c             	mov    edx,DWORD PTR [ebp+0xc]
  101a61:	c1 ea 10             	shr    edx,0x10
  101a64:	89 d1                	mov    ecx,edx
  101a66:	8b 55 08             	mov    edx,DWORD PTR [ebp+0x8]
  101a69:	88 8c d0 60 9e 00 00 	mov    BYTE PTR [eax+edx*8+0x9e60],cl
  101a70:	8b 55 0c             	mov    edx,DWORD PTR [ebp+0xc]
  101a73:	c1 ea 18             	shr    edx,0x18
  101a76:	89 d1                	mov    ecx,edx
  101a78:	8b 55 08             	mov    edx,DWORD PTR [ebp+0x8]
  101a7b:	88 8c d0 63 9e 00 00 	mov    BYTE PTR [eax+edx*8+0x9e63],cl
  101a82:	8b 55 10             	mov    edx,DWORD PTR [ebp+0x10]
  101a85:	89 d1                	mov    ecx,edx
  101a87:	8b 55 08             	mov    edx,DWORD PTR [ebp+0x8]
  101a8a:	66 89 8c d0 5c 9e 00 	mov    WORD PTR [eax+edx*8+0x9e5c],cx
  101a91:	00 
  101a92:	8b 55 10             	mov    edx,DWORD PTR [ebp+0x10]
  101a95:	c1 ea 10             	shr    edx,0x10
  101a98:	89 d1                	mov    ecx,edx
  101a9a:	83 e1 0f             	and    ecx,0xf
  101a9d:	8b 55 08             	mov    edx,DWORD PTR [ebp+0x8]
  101aa0:	88 8c d0 62 9e 00 00 	mov    BYTE PTR [eax+edx*8+0x9e62],cl
  101aa7:	8b 55 08             	mov    edx,DWORD PTR [ebp+0x8]
  101aaa:	0f b6 94 d0 62 9e 00 	movzx  edx,BYTE PTR [eax+edx*8+0x9e62]
  101ab1:	00 
  101ab2:	89 d1                	mov    ecx,edx
  101ab4:	0f b6 55 f8          	movzx  edx,BYTE PTR [ebp-0x8]
  101ab8:	83 e2 f0             	and    edx,0xfffffff0
  101abb:	09 ca                	or     edx,ecx
  101abd:	89 d1                	mov    ecx,edx
  101abf:	8b 55 08             	mov    edx,DWORD PTR [ebp+0x8]
  101ac2:	88 8c d0 62 9e 00 00 	mov    BYTE PTR [eax+edx*8+0x9e62],cl
  101ac9:	8b 55 08             	mov    edx,DWORD PTR [ebp+0x8]
  101acc:	0f b6 4d fc          	movzx  ecx,BYTE PTR [ebp-0x4]
  101ad0:	88 8c d0 61 9e 00 00 	mov    BYTE PTR [eax+edx*8+0x9e61],cl
  101ad7:	90                   	nop
  101ad8:	c9                   	leave
  101ad9:	c3                   	ret

00101ada <gdt_init>:
  101ada:	55                   	push   ebp
  101adb:	89 e5                	mov    ebp,esp
  101add:	53                   	push   ebx
  101ade:	83 ec 04             	sub    esp,0x4
  101ae1:	e8 70 4d 00 00       	call   106856 <__x86.get_pc_thunk.bx>
  101ae6:	81 c3 22 75 00 00    	add    ebx,0x7522
  101aec:	66 c7 83 74 9e 00 00 	mov    WORD PTR [ebx+0x9e74],0x17
  101af3:	17 00 
  101af5:	8d 83 5c 9e 00 00    	lea    eax,[ebx+0x9e5c]
  101afb:	89 83 76 9e 00 00    	mov    DWORD PTR [ebx+0x9e76],eax
  101b01:	6a 00                	push   0x0
  101b03:	6a 00                	push   0x0
  101b05:	6a 00                	push   0x0
  101b07:	6a 00                	push   0x0
  101b09:	6a 00                	push   0x0
  101b0b:	e8 22 ff ff ff       	call   101a32 <gdt_set_entry>
  101b10:	83 c4 14             	add    esp,0x14
  101b13:	68 cf 00 00 00       	push   0xcf
  101b18:	68 9a 00 00 00       	push   0x9a
  101b1d:	6a ff                	push   0xffffffff
  101b1f:	6a 00                	push   0x0
  101b21:	6a 01                	push   0x1
  101b23:	e8 0a ff ff ff       	call   101a32 <gdt_set_entry>
  101b28:	83 c4 14             	add    esp,0x14
  101b2b:	68 cf 00 00 00       	push   0xcf
  101b30:	68 92 00 00 00       	push   0x92
  101b35:	6a ff                	push   0xffffffff
  101b37:	6a 00                	push   0x0
  101b39:	6a 02                	push   0x2
  101b3b:	e8 f2 fe ff ff       	call   101a32 <gdt_set_entry>
  101b40:	83 c4 14             	add    esp,0x14
  101b43:	8d 83 74 9e 00 00    	lea    eax,[ebx+0x9e74]
  101b49:	83 ec 0c             	sub    esp,0xc
  101b4c:	50                   	push   eax
  101b4d:	e8 0e 00 00 00       	call   101b60 <gdt_flush>
  101b52:	83 c4 10             	add    esp,0x10
  101b55:	90                   	nop
  101b56:	8b 5d fc             	mov    ebx,DWORD PTR [ebp-0x4]
  101b59:	c9                   	leave
  101b5a:	c3                   	ret
  101b5b:	66 90                	xchg   ax,ax
  101b5d:	66 90                	xchg   ax,ax
  101b5f:	90                   	nop

00101b60 <gdt_flush>:
  101b60:	8b 44 24 04          	mov    eax,DWORD PTR [esp+0x4]
  101b64:	0f 01 10             	lgdtd  [eax]
  101b67:	66 b8 10 00          	mov    ax,0x10
  101b6b:	8e d8                	mov    ds,eax
  101b6d:	8e c0                	mov    es,eax
  101b6f:	8e e0                	mov    fs,eax
  101b71:	8e e8                	mov    gs,eax
  101b73:	8e d0                	mov    ss,eax
  101b75:	ea 7c 1b 10 00 08 00 	jmp    0x8:0x101b7c

00101b7c <gdt_flush.flush>:
  101b7c:	c3                   	ret

00101b7d <outb>:
  101b7d:	55                   	push   ebp
  101b7e:	89 e5                	mov    ebp,esp
  101b80:	83 ec 08             	sub    esp,0x8
  101b83:	e8 d2 4c 00 00       	call   10685a <__x86.get_pc_thunk.ax>
  101b88:	05 80 74 00 00       	add    eax,0x7480
  101b8d:	8b 55 08             	mov    edx,DWORD PTR [ebp+0x8]
  101b90:	8b 45 0c             	mov    eax,DWORD PTR [ebp+0xc]
  101b93:	66 89 55 fc          	mov    WORD PTR [ebp-0x4],dx
  101b97:	88 45 f8             	mov    BYTE PTR [ebp-0x8],al
  101b9a:	0f b7 55 fc          	movzx  edx,WORD PTR [ebp-0x4]
  101b9e:	0f b6 45 f8          	movzx  eax,BYTE PTR [ebp-0x8]
  101ba2:	ee                   	out    dx,al
  101ba3:	90                   	nop
  101ba4:	c9                   	leave
  101ba5:	c3                   	ret

00101ba6 <inb>:
  101ba6:	55                   	push   ebp
  101ba7:	89 e5                	mov    ebp,esp
  101ba9:	83 ec 14             	sub    esp,0x14
  101bac:	e8 a9 4c 00 00       	call   10685a <__x86.get_pc_thunk.ax>
  101bb1:	05 57 74 00 00       	add    eax,0x7457
  101bb6:	8b 45 08             	mov    eax,DWORD PTR [ebp+0x8]
  101bb9:	66 89 45 ec          	mov    WORD PTR [ebp-0x14],ax
  101bbd:	0f b7 45 ec          	movzx  eax,WORD PTR [ebp-0x14]
  101bc1:	89 c2                	mov    edx,eax
  101bc3:	ec                   	in     al,dx
  101bc4:	88 45 ff             	mov    BYTE PTR [ebp-0x1],al
  101bc7:	0f b6 45 ff          	movzx  eax,BYTE PTR [ebp-0x1]
  101bcb:	c9                   	leave
  101bcc:	c3                   	ret

00101bcd <io_wait>:
  101bcd:	55                   	push   ebp
  101bce:	89 e5                	mov    ebp,esp
  101bd0:	e8 85 4c 00 00       	call   10685a <__x86.get_pc_thunk.ax>
  101bd5:	05 33 74 00 00       	add    eax,0x7433
  101bda:	6a 00                	push   0x0
  101bdc:	68 80 00 00 00       	push   0x80
  101be1:	e8 97 ff ff ff       	call   101b7d <outb>
  101be6:	83 c4 08             	add    esp,0x8
  101be9:	90                   	nop
  101bea:	c9                   	leave
  101beb:	c3                   	ret

00101bec <idt_set_gate>:
  101bec:	55                   	push   ebp
  101bed:	89 e5                	mov    ebp,esp
  101bef:	53                   	push   ebx
  101bf0:	83 ec 0c             	sub    esp,0xc
  101bf3:	e8 62 4c 00 00       	call   10685a <__x86.get_pc_thunk.ax>
  101bf8:	05 10 74 00 00       	add    eax,0x7410
  101bfd:	8b 5d 08             	mov    ebx,DWORD PTR [ebp+0x8]
  101c00:	8b 4d 10             	mov    ecx,DWORD PTR [ebp+0x10]
  101c03:	8b 55 14             	mov    edx,DWORD PTR [ebp+0x14]
  101c06:	88 5d f8             	mov    BYTE PTR [ebp-0x8],bl
  101c09:	66 89 4d f4          	mov    WORD PTR [ebp-0xc],cx
  101c0d:	88 55 f0             	mov    BYTE PTR [ebp-0x10],dl
  101c10:	0f b6 55 f8          	movzx  edx,BYTE PTR [ebp-0x8]
  101c14:	8b 4d 0c             	mov    ecx,DWORD PTR [ebp+0xc]
  101c17:	66 89 8c d0 98 9e 00 	mov    WORD PTR [eax+edx*8+0x9e98],cx
  101c1e:	00 
  101c1f:	8b 55 0c             	mov    edx,DWORD PTR [ebp+0xc]
  101c22:	c1 ea 10             	shr    edx,0x10
  101c25:	89 d1                	mov    ecx,edx
  101c27:	0f b6 55 f8          	movzx  edx,BYTE PTR [ebp-0x8]
  101c2b:	66 89 8c d0 9e 9e 00 	mov    WORD PTR [eax+edx*8+0x9e9e],cx
  101c32:	00 
  101c33:	0f b6 55 f8          	movzx  edx,BYTE PTR [ebp-0x8]
  101c37:	0f b7 4d f4          	movzx  ecx,WORD PTR [ebp-0xc]
  101c3b:	66 89 8c d0 9a 9e 00 	mov    WORD PTR [eax+edx*8+0x9e9a],cx
  101c42:	00 
  101c43:	0f b6 55 f8          	movzx  edx,BYTE PTR [ebp-0x8]
  101c47:	c6 84 d0 9c 9e 00 00 	mov    BYTE PTR [eax+edx*8+0x9e9c],0x0
  101c4e:	00 
  101c4f:	0f b6 55 f8          	movzx  edx,BYTE PTR [ebp-0x8]
  101c53:	0f b6 4d f0          	movzx  ecx,BYTE PTR [ebp-0x10]
  101c57:	88 8c d0 9d 9e 00 00 	mov    BYTE PTR [eax+edx*8+0x9e9d],cl
  101c5e:	90                   	nop
  101c5f:	8b 5d fc             	mov    ebx,DWORD PTR [ebp-0x4]
  101c62:	c9                   	leave
  101c63:	c3                   	ret

00101c64 <pic_remap>:
  101c64:	55                   	push   ebp
  101c65:	89 e5                	mov    ebp,esp
  101c67:	83 ec 10             	sub    esp,0x10
  101c6a:	e8 eb 4b 00 00       	call   10685a <__x86.get_pc_thunk.ax>
  101c6f:	05 99 73 00 00       	add    eax,0x7399
  101c74:	6a 21                	push   0x21
  101c76:	e8 2b ff ff ff       	call   101ba6 <inb>
  101c7b:	83 c4 04             	add    esp,0x4
  101c7e:	88 45 ff             	mov    BYTE PTR [ebp-0x1],al
  101c81:	68 a1 00 00 00       	push   0xa1
  101c86:	e8 1b ff ff ff       	call   101ba6 <inb>
  101c8b:	83 c4 04             	add    esp,0x4
  101c8e:	88 45 fe             	mov    BYTE PTR [ebp-0x2],al
  101c91:	6a 11                	push   0x11
  101c93:	6a 20                	push   0x20
  101c95:	e8 e3 fe ff ff       	call   101b7d <outb>
  101c9a:	83 c4 08             	add    esp,0x8
  101c9d:	e8 2b ff ff ff       	call   101bcd <io_wait>
  101ca2:	6a 11                	push   0x11
  101ca4:	68 a0 00 00 00       	push   0xa0
  101ca9:	e8 cf fe ff ff       	call   101b7d <outb>
  101cae:	83 c4 08             	add    esp,0x8
  101cb1:	e8 17 ff ff ff       	call   101bcd <io_wait>
  101cb6:	6a 20                	push   0x20
  101cb8:	6a 21                	push   0x21
  101cba:	e8 be fe ff ff       	call   101b7d <outb>
  101cbf:	83 c4 08             	add    esp,0x8
  101cc2:	e8 06 ff ff ff       	call   101bcd <io_wait>
  101cc7:	6a 28                	push   0x28
  101cc9:	68 a1 00 00 00       	push   0xa1
  101cce:	e8 aa fe ff ff       	call   101b7d <outb>
  101cd3:	83 c4 08             	add    esp,0x8
  101cd6:	e8 f2 fe ff ff       	call   101bcd <io_wait>
  101cdb:	6a 04                	push   0x4
  101cdd:	6a 21                	push   0x21
  101cdf:	e8 99 fe ff ff       	call   101b7d <outb>
  101ce4:	83 c4 08             	add    esp,0x8
  101ce7:	e8 e1 fe ff ff       	call   101bcd <io_wait>
  101cec:	6a 02                	push   0x2
  101cee:	68 a1 00 00 00       	push   0xa1
  101cf3:	e8 85 fe ff ff       	call   101b7d <outb>
  101cf8:	83 c4 08             	add    esp,0x8
  101cfb:	e8 cd fe ff ff       	call   101bcd <io_wait>
  101d00:	6a 01                	push   0x1
  101d02:	6a 21                	push   0x21
  101d04:	e8 74 fe ff ff       	call   101b7d <outb>
  101d09:	83 c4 08             	add    esp,0x8
  101d0c:	e8 bc fe ff ff       	call   101bcd <io_wait>
  101d11:	6a 01                	push   0x1
  101d13:	68 a1 00 00 00       	push   0xa1
  101d18:	e8 60 fe ff ff       	call   101b7d <outb>
  101d1d:	83 c4 08             	add    esp,0x8
  101d20:	e8 a8 fe ff ff       	call   101bcd <io_wait>
  101d25:	68 ff 00 00 00       	push   0xff
  101d2a:	6a 21                	push   0x21
  101d2c:	e8 4c fe ff ff       	call   101b7d <outb>
  101d31:	83 c4 08             	add    esp,0x8
  101d34:	68 ff 00 00 00       	push   0xff
  101d39:	68 a1 00 00 00       	push   0xa1
  101d3e:	e8 3a fe ff ff       	call   101b7d <outb>
  101d43:	83 c4 08             	add    esp,0x8
  101d46:	90                   	nop
  101d47:	c9                   	leave
  101d48:	c3                   	ret

00101d49 <isr_handler>:
  101d49:	55                   	push   ebp
  101d4a:	89 e5                	mov    ebp,esp
  101d4c:	53                   	push   ebx
  101d4d:	83 ec 04             	sub    esp,0x4
  101d50:	e8 01 4b 00 00       	call   106856 <__x86.get_pc_thunk.bx>
  101d55:	81 c3 b3 72 00 00    	add    ebx,0x72b3
  101d5b:	8b 45 2c             	mov    eax,DWORD PTR [ebp+0x2c]
  101d5e:	83 f8 0e             	cmp    eax,0xe
  101d61:	75 11                	jne    101d74 <isr_handler+0x2b>
  101d63:	8b 45 30             	mov    eax,DWORD PTR [ebp+0x30]
  101d66:	83 ec 0c             	sub    esp,0xc
  101d69:	50                   	push   eax
  101d6a:	e8 ad 0d 00 00       	call   102b1c <vmm_page_fault>
  101d6f:	83 c4 10             	add    esp,0x10
  101d72:	eb 4e                	jmp    101dc2 <isr_handler+0x79>
  101d74:	83 ec 08             	sub    esp,0x8
  101d77:	6a 00                	push   0x0
  101d79:	6a 0c                	push   0xc
  101d7b:	e8 59 f5 ff ff       	call   1012d9 <vga_set_color>
  101d80:	83 c4 10             	add    esp,0x10
  101d83:	83 ec 0c             	sub    esp,0xc
  101d86:	8d 83 e0 e2 ff ff    	lea    eax,[ebx-0x1d20]
  101d8c:	50                   	push   eax
  101d8d:	e8 c6 fb ff ff       	call   101958 <vga_print>
  101d92:	83 c4 10             	add    esp,0x10
  101d95:	8b 45 2c             	mov    eax,DWORD PTR [ebp+0x2c]
  101d98:	83 f8 1f             	cmp    eax,0x1f
  101d9b:	77 16                	ja     101db3 <isr_handler+0x6a>
  101d9d:	8b 45 2c             	mov    eax,DWORD PTR [ebp+0x2c]
  101da0:	8b 84 83 18 00 00 00 	mov    eax,DWORD PTR [ebx+eax*4+0x18]
  101da7:	83 ec 0c             	sub    esp,0xc
  101daa:	50                   	push   eax
  101dab:	e8 a8 fb ff ff       	call   101958 <vga_print>
  101db0:	83 c4 10             	add    esp,0x10
  101db3:	83 ec 08             	sub    esp,0x8
  101db6:	6a 00                	push   0x0
  101db8:	6a 0f                	push   0xf
  101dba:	e8 1a f5 ff ff       	call   1012d9 <vga_set_color>
  101dbf:	83 c4 10             	add    esp,0x10
  101dc2:	8b 5d fc             	mov    ebx,DWORD PTR [ebp-0x4]
  101dc5:	c9                   	leave
  101dc6:	c3                   	ret

00101dc7 <idt_init>:
  101dc7:	55                   	push   ebp
  101dc8:	89 e5                	mov    ebp,esp
  101dca:	53                   	push   ebx
  101dcb:	83 ec 04             	sub    esp,0x4
  101dce:	e8 83 4a 00 00       	call   106856 <__x86.get_pc_thunk.bx>
  101dd3:	81 c3 35 72 00 00    	add    ebx,0x7235
  101dd9:	66 c7 83 98 a6 00 00 	mov    WORD PTR [ebx+0xa698],0x7ff
  101de0:	ff 07 
  101de2:	8d 83 98 9e 00 00    	lea    eax,[ebx+0x9e98]
  101de8:	89 83 9a a6 00 00    	mov    DWORD PTR [ebx+0xa69a],eax
  101dee:	c7 c0 90 22 10 00    	mov    eax,0x102290
  101df4:	68 8e 00 00 00       	push   0x8e
  101df9:	6a 08                	push   0x8
  101dfb:	50                   	push   eax
  101dfc:	6a 00                	push   0x0
  101dfe:	e8 e9 fd ff ff       	call   101bec <idt_set_gate>
  101e03:	83 c4 10             	add    esp,0x10
  101e06:	c7 c0 99 22 10 00    	mov    eax,0x102299
  101e0c:	68 8e 00 00 00       	push   0x8e
  101e11:	6a 08                	push   0x8
  101e13:	50                   	push   eax
  101e14:	6a 01                	push   0x1
  101e16:	e8 d1 fd ff ff       	call   101bec <idt_set_gate>
  101e1b:	83 c4 10             	add    esp,0x10
  101e1e:	c7 c0 a2 22 10 00    	mov    eax,0x1022a2
  101e24:	68 8e 00 00 00       	push   0x8e
  101e29:	6a 08                	push   0x8
  101e2b:	50                   	push   eax
  101e2c:	6a 02                	push   0x2
  101e2e:	e8 b9 fd ff ff       	call   101bec <idt_set_gate>
  101e33:	83 c4 10             	add    esp,0x10
  101e36:	c7 c0 ab 22 10 00    	mov    eax,0x1022ab
  101e3c:	68 8e 00 00 00       	push   0x8e
  101e41:	6a 08                	push   0x8
  101e43:	50                   	push   eax
  101e44:	6a 03                	push   0x3
  101e46:	e8 a1 fd ff ff       	call   101bec <idt_set_gate>
  101e4b:	83 c4 10             	add    esp,0x10
  101e4e:	c7 c0 b4 22 10 00    	mov    eax,0x1022b4
  101e54:	68 8e 00 00 00       	push   0x8e
  101e59:	6a 08                	push   0x8
  101e5b:	50                   	push   eax
  101e5c:	6a 04                	push   0x4
  101e5e:	e8 89 fd ff ff       	call   101bec <idt_set_gate>
  101e63:	83 c4 10             	add    esp,0x10
  101e66:	c7 c0 bd 22 10 00    	mov    eax,0x1022bd
  101e6c:	68 8e 00 00 00       	push   0x8e
  101e71:	6a 08                	push   0x8
  101e73:	50                   	push   eax
  101e74:	6a 05                	push   0x5
  101e76:	e8 71 fd ff ff       	call   101bec <idt_set_gate>
  101e7b:	83 c4 10             	add    esp,0x10
  101e7e:	c7 c0 c6 22 10 00    	mov    eax,0x1022c6
  101e84:	68 8e 00 00 00       	push   0x8e
  101e89:	6a 08                	push   0x8
  101e8b:	50                   	push   eax
  101e8c:	6a 06                	push   0x6
  101e8e:	e8 59 fd ff ff       	call   101bec <idt_set_gate>
  101e93:	83 c4 10             	add    esp,0x10
  101e96:	c7 c0 cf 22 10 00    	mov    eax,0x1022cf
  101e9c:	68 8e 00 00 00       	push   0x8e
  101ea1:	6a 08                	push   0x8
  101ea3:	50                   	push   eax
  101ea4:	6a 07                	push   0x7
  101ea6:	e8 41 fd ff ff       	call   101bec <idt_set_gate>
  101eab:	83 c4 10             	add    esp,0x10
  101eae:	c7 c0 d8 22 10 00    	mov    eax,0x1022d8
  101eb4:	68 8e 00 00 00       	push   0x8e
  101eb9:	6a 08                	push   0x8
  101ebb:	50                   	push   eax
  101ebc:	6a 08                	push   0x8
  101ebe:	e8 29 fd ff ff       	call   101bec <idt_set_gate>
  101ec3:	83 c4 10             	add    esp,0x10
  101ec6:	c7 c0 dc 22 10 00    	mov    eax,0x1022dc
  101ecc:	68 8e 00 00 00       	push   0x8e
  101ed1:	6a 08                	push   0x8
  101ed3:	50                   	push   eax
  101ed4:	6a 09                	push   0x9
  101ed6:	e8 11 fd ff ff       	call   101bec <idt_set_gate>
  101edb:	83 c4 10             	add    esp,0x10
  101ede:	c7 c0 e2 22 10 00    	mov    eax,0x1022e2
  101ee4:	68 8e 00 00 00       	push   0x8e
  101ee9:	6a 08                	push   0x8
  101eeb:	50                   	push   eax
  101eec:	6a 0a                	push   0xa
  101eee:	e8 f9 fc ff ff       	call   101bec <idt_set_gate>
  101ef3:	83 c4 10             	add    esp,0x10
  101ef6:	c7 c0 e6 22 10 00    	mov    eax,0x1022e6
  101efc:	68 8e 00 00 00       	push   0x8e
  101f01:	6a 08                	push   0x8
  101f03:	50                   	push   eax
  101f04:	6a 0b                	push   0xb
  101f06:	e8 e1 fc ff ff       	call   101bec <idt_set_gate>
  101f0b:	83 c4 10             	add    esp,0x10
  101f0e:	c7 c0 ea 22 10 00    	mov    eax,0x1022ea
  101f14:	68 8e 00 00 00       	push   0x8e
  101f19:	6a 08                	push   0x8
  101f1b:	50                   	push   eax
  101f1c:	6a 0c                	push   0xc
  101f1e:	e8 c9 fc ff ff       	call   101bec <idt_set_gate>
  101f23:	83 c4 10             	add    esp,0x10
  101f26:	c7 c0 ee 22 10 00    	mov    eax,0x1022ee
  101f2c:	68 8e 00 00 00       	push   0x8e
  101f31:	6a 08                	push   0x8
  101f33:	50                   	push   eax
  101f34:	6a 0d                	push   0xd
  101f36:	e8 b1 fc ff ff       	call   101bec <idt_set_gate>
  101f3b:	83 c4 10             	add    esp,0x10
  101f3e:	c7 c0 f2 22 10 00    	mov    eax,0x1022f2
  101f44:	68 8e 00 00 00       	push   0x8e
  101f49:	6a 08                	push   0x8
  101f4b:	50                   	push   eax
  101f4c:	6a 0e                	push   0xe
  101f4e:	e8 99 fc ff ff       	call   101bec <idt_set_gate>
  101f53:	83 c4 10             	add    esp,0x10
  101f56:	c7 c0 f6 22 10 00    	mov    eax,0x1022f6
  101f5c:	68 8e 00 00 00       	push   0x8e
  101f61:	6a 08                	push   0x8
  101f63:	50                   	push   eax
  101f64:	6a 0f                	push   0xf
  101f66:	e8 81 fc ff ff       	call   101bec <idt_set_gate>
  101f6b:	83 c4 10             	add    esp,0x10
  101f6e:	c7 c0 fc 22 10 00    	mov    eax,0x1022fc
  101f74:	68 8e 00 00 00       	push   0x8e
  101f79:	6a 08                	push   0x8
  101f7b:	50                   	push   eax
  101f7c:	6a 10                	push   0x10
  101f7e:	e8 69 fc ff ff       	call   101bec <idt_set_gate>
  101f83:	83 c4 10             	add    esp,0x10
  101f86:	c7 c0 02 23 10 00    	mov    eax,0x102302
  101f8c:	68 8e 00 00 00       	push   0x8e
  101f91:	6a 08                	push   0x8
  101f93:	50                   	push   eax
  101f94:	6a 11                	push   0x11
  101f96:	e8 51 fc ff ff       	call   101bec <idt_set_gate>
  101f9b:	83 c4 10             	add    esp,0x10
  101f9e:	c7 c0 06 23 10 00    	mov    eax,0x102306
  101fa4:	68 8e 00 00 00       	push   0x8e
  101fa9:	6a 08                	push   0x8
  101fab:	50                   	push   eax
  101fac:	6a 12                	push   0x12
  101fae:	e8 39 fc ff ff       	call   101bec <idt_set_gate>
  101fb3:	83 c4 10             	add    esp,0x10
  101fb6:	c7 c0 0c 23 10 00    	mov    eax,0x10230c
  101fbc:	68 8e 00 00 00       	push   0x8e
  101fc1:	6a 08                	push   0x8
  101fc3:	50                   	push   eax
  101fc4:	6a 13                	push   0x13
  101fc6:	e8 21 fc ff ff       	call   101bec <idt_set_gate>
  101fcb:	83 c4 10             	add    esp,0x10
  101fce:	c7 c0 12 23 10 00    	mov    eax,0x102312
  101fd4:	68 8e 00 00 00       	push   0x8e
  101fd9:	6a 08                	push   0x8
  101fdb:	50                   	push   eax
  101fdc:	6a 14                	push   0x14
  101fde:	e8 09 fc ff ff       	call   101bec <idt_set_gate>
  101fe3:	83 c4 10             	add    esp,0x10
  101fe6:	c7 c0 18 23 10 00    	mov    eax,0x102318
  101fec:	68 8e 00 00 00       	push   0x8e
  101ff1:	6a 08                	push   0x8
  101ff3:	50                   	push   eax
  101ff4:	6a 15                	push   0x15
  101ff6:	e8 f1 fb ff ff       	call   101bec <idt_set_gate>
  101ffb:	83 c4 10             	add    esp,0x10
  101ffe:	c7 c0 1e 23 10 00    	mov    eax,0x10231e
  102004:	68 8e 00 00 00       	push   0x8e
  102009:	6a 08                	push   0x8
  10200b:	50                   	push   eax
  10200c:	6a 16                	push   0x16
  10200e:	e8 d9 fb ff ff       	call   101bec <idt_set_gate>
  102013:	83 c4 10             	add    esp,0x10
  102016:	c7 c0 24 23 10 00    	mov    eax,0x102324
  10201c:	68 8e 00 00 00       	push   0x8e
  102021:	6a 08                	push   0x8
  102023:	50                   	push   eax
  102024:	6a 17                	push   0x17
  102026:	e8 c1 fb ff ff       	call   101bec <idt_set_gate>
  10202b:	83 c4 10             	add    esp,0x10
  10202e:	c7 c0 2a 23 10 00    	mov    eax,0x10232a
  102034:	68 8e 00 00 00       	push   0x8e
  102039:	6a 08                	push   0x8
  10203b:	50                   	push   eax
  10203c:	6a 18                	push   0x18
  10203e:	e8 a9 fb ff ff       	call   101bec <idt_set_gate>
  102043:	83 c4 10             	add    esp,0x10
  102046:	c7 c0 30 23 10 00    	mov    eax,0x102330
  10204c:	68 8e 00 00 00       	push   0x8e
  102051:	6a 08                	push   0x8
  102053:	50                   	push   eax
  102054:	6a 19                	push   0x19
  102056:	e8 91 fb ff ff       	call   101bec <idt_set_gate>
  10205b:	83 c4 10             	add    esp,0x10
  10205e:	c7 c0 36 23 10 00    	mov    eax,0x102336
  102064:	68 8e 00 00 00       	push   0x8e
  102069:	6a 08                	push   0x8
  10206b:	50                   	push   eax
  10206c:	6a 1a                	push   0x1a
  10206e:	e8 79 fb ff ff       	call   101bec <idt_set_gate>
  102073:	83 c4 10             	add    esp,0x10
  102076:	c7 c0 3c 23 10 00    	mov    eax,0x10233c
  10207c:	68 8e 00 00 00       	push   0x8e
  102081:	6a 08                	push   0x8
  102083:	50                   	push   eax
  102084:	6a 1b                	push   0x1b
  102086:	e8 61 fb ff ff       	call   101bec <idt_set_gate>
  10208b:	83 c4 10             	add    esp,0x10
  10208e:	c7 c0 42 23 10 00    	mov    eax,0x102342
  102094:	68 8e 00 00 00       	push   0x8e
  102099:	6a 08                	push   0x8
  10209b:	50                   	push   eax
  10209c:	6a 1c                	push   0x1c
  10209e:	e8 49 fb ff ff       	call   101bec <idt_set_gate>
  1020a3:	83 c4 10             	add    esp,0x10
  1020a6:	c7 c0 48 23 10 00    	mov    eax,0x102348
  1020ac:	68 8e 00 00 00       	push   0x8e
  1020b1:	6a 08                	push   0x8
  1020b3:	50                   	push   eax
  1020b4:	6a 1d                	push   0x1d
  1020b6:	e8 31 fb ff ff       	call   101bec <idt_set_gate>
  1020bb:	83 c4 10             	add    esp,0x10
  1020be:	c7 c0 4e 23 10 00    	mov    eax,0x10234e
  1020c4:	68 8e 00 00 00       	push   0x8e
  1020c9:	6a 08                	push   0x8
  1020cb:	50                   	push   eax
  1020cc:	6a 1e                	push   0x1e
  1020ce:	e8 19 fb ff ff       	call   101bec <idt_set_gate>
  1020d3:	83 c4 10             	add    esp,0x10
  1020d6:	c7 c0 54 23 10 00    	mov    eax,0x102354
  1020dc:	68 8e 00 00 00       	push   0x8e
  1020e1:	6a 08                	push   0x8
  1020e3:	50                   	push   eax
  1020e4:	6a 1f                	push   0x1f
  1020e6:	e8 01 fb ff ff       	call   101bec <idt_set_gate>
  1020eb:	83 c4 10             	add    esp,0x10
  1020ee:	c7 c0 10 34 10 00    	mov    eax,0x103410
  1020f4:	68 8e 00 00 00       	push   0x8e
  1020f9:	6a 08                	push   0x8
  1020fb:	50                   	push   eax
  1020fc:	6a 20                	push   0x20
  1020fe:	e8 e9 fa ff ff       	call   101bec <idt_set_gate>
  102103:	83 c4 10             	add    esp,0x10
  102106:	c7 c0 14 34 10 00    	mov    eax,0x103414
  10210c:	68 8e 00 00 00       	push   0x8e
  102111:	6a 08                	push   0x8
  102113:	50                   	push   eax
  102114:	6a 21                	push   0x21
  102116:	e8 d1 fa ff ff       	call   101bec <idt_set_gate>
  10211b:	83 c4 10             	add    esp,0x10
  10211e:	c7 c0 18 34 10 00    	mov    eax,0x103418
  102124:	68 8e 00 00 00       	push   0x8e
  102129:	6a 08                	push   0x8
  10212b:	50                   	push   eax
  10212c:	6a 22                	push   0x22
  10212e:	e8 b9 fa ff ff       	call   101bec <idt_set_gate>
  102133:	83 c4 10             	add    esp,0x10
  102136:	c7 c0 1c 34 10 00    	mov    eax,0x10341c
  10213c:	68 8e 00 00 00       	push   0x8e
  102141:	6a 08                	push   0x8
  102143:	50                   	push   eax
  102144:	6a 23                	push   0x23
  102146:	e8 a1 fa ff ff       	call   101bec <idt_set_gate>
  10214b:	83 c4 10             	add    esp,0x10
  10214e:	c7 c0 20 34 10 00    	mov    eax,0x103420
  102154:	68 8e 00 00 00       	push   0x8e
  102159:	6a 08                	push   0x8
  10215b:	50                   	push   eax
  10215c:	6a 24                	push   0x24
  10215e:	e8 89 fa ff ff       	call   101bec <idt_set_gate>
  102163:	83 c4 10             	add    esp,0x10
  102166:	c7 c0 24 34 10 00    	mov    eax,0x103424
  10216c:	68 8e 00 00 00       	push   0x8e
  102171:	6a 08                	push   0x8
  102173:	50                   	push   eax
  102174:	6a 25                	push   0x25
  102176:	e8 71 fa ff ff       	call   101bec <idt_set_gate>
  10217b:	83 c4 10             	add    esp,0x10
  10217e:	c7 c0 28 34 10 00    	mov    eax,0x103428
  102184:	68 8e 00 00 00       	push   0x8e
  102189:	6a 08                	push   0x8
  10218b:	50                   	push   eax
  10218c:	6a 26                	push   0x26
  10218e:	e8 59 fa ff ff       	call   101bec <idt_set_gate>
  102193:	83 c4 10             	add    esp,0x10
  102196:	c7 c0 2c 34 10 00    	mov    eax,0x10342c
  10219c:	68 8e 00 00 00       	push   0x8e
  1021a1:	6a 08                	push   0x8
  1021a3:	50                   	push   eax
  1021a4:	6a 27                	push   0x27
  1021a6:	e8 41 fa ff ff       	call   101bec <idt_set_gate>
  1021ab:	83 c4 10             	add    esp,0x10
  1021ae:	c7 c0 30 34 10 00    	mov    eax,0x103430
  1021b4:	68 8e 00 00 00       	push   0x8e
  1021b9:	6a 08                	push   0x8
  1021bb:	50                   	push   eax
  1021bc:	6a 28                	push   0x28
  1021be:	e8 29 fa ff ff       	call   101bec <idt_set_gate>
  1021c3:	83 c4 10             	add    esp,0x10
  1021c6:	c7 c0 34 34 10 00    	mov    eax,0x103434
  1021cc:	68 8e 00 00 00       	push   0x8e
  1021d1:	6a 08                	push   0x8
  1021d3:	50                   	push   eax
  1021d4:	6a 29                	push   0x29
  1021d6:	e8 11 fa ff ff       	call   101bec <idt_set_gate>
  1021db:	83 c4 10             	add    esp,0x10
  1021de:	c7 c0 38 34 10 00    	mov    eax,0x103438
  1021e4:	68 8e 00 00 00       	push   0x8e
  1021e9:	6a 08                	push   0x8
  1021eb:	50                   	push   eax
  1021ec:	6a 2a                	push   0x2a
  1021ee:	e8 f9 f9 ff ff       	call   101bec <idt_set_gate>
  1021f3:	83 c4 10             	add    esp,0x10
  1021f6:	c7 c0 3c 34 10 00    	mov    eax,0x10343c
  1021fc:	68 8e 00 00 00       	push   0x8e
  102201:	6a 08                	push   0x8
  102203:	50                   	push   eax
  102204:	6a 2b                	push   0x2b
  102206:	e8 e1 f9 ff ff       	call   101bec <idt_set_gate>
  10220b:	83 c4 10             	add    esp,0x10
  10220e:	c7 c0 40 34 10 00    	mov    eax,0x103440
  102214:	68 8e 00 00 00       	push   0x8e
  102219:	6a 08                	push   0x8
  10221b:	50                   	push   eax
  10221c:	6a 2c                	push   0x2c
  10221e:	e8 c9 f9 ff ff       	call   101bec <idt_set_gate>
  102223:	83 c4 10             	add    esp,0x10
  102226:	c7 c0 44 34 10 00    	mov    eax,0x103444
  10222c:	68 8e 00 00 00       	push   0x8e
  102231:	6a 08                	push   0x8
  102233:	50                   	push   eax
  102234:	6a 2d                	push   0x2d
  102236:	e8 b1 f9 ff ff       	call   101bec <idt_set_gate>
  10223b:	83 c4 10             	add    esp,0x10
  10223e:	c7 c0 48 34 10 00    	mov    eax,0x103448
  102244:	68 8e 00 00 00       	push   0x8e
  102249:	6a 08                	push   0x8
  10224b:	50                   	push   eax
  10224c:	6a 2e                	push   0x2e
  10224e:	e8 99 f9 ff ff       	call   101bec <idt_set_gate>
  102253:	83 c4 10             	add    esp,0x10
  102256:	c7 c0 4c 34 10 00    	mov    eax,0x10344c
  10225c:	68 8e 00 00 00       	push   0x8e
  102261:	6a 08                	push   0x8
  102263:	50                   	push   eax
  102264:	6a 2f                	push   0x2f
  102266:	e8 81 f9 ff ff       	call   101bec <idt_set_gate>
  10226b:	83 c4 10             	add    esp,0x10
  10226e:	e8 f1 f9 ff ff       	call   101c64 <pic_remap>
  102273:	8d 83 98 a6 00 00    	lea    eax,[ebx+0xa698]
  102279:	83 ec 0c             	sub    esp,0xc
  10227c:	50                   	push   eax
  10227d:	e8 fc 00 00 00       	call   10237e <idt_flush>
  102282:	83 c4 10             	add    esp,0x10
  102285:	90                   	nop
  102286:	8b 5d fc             	mov    ebx,DWORD PTR [ebp-0x4]
  102289:	c9                   	leave
  10228a:	c3                   	ret
  10228b:	66 90                	xchg   ax,ax
  10228d:	66 90                	xchg   ax,ax
  10228f:	90                   	nop

00102290 <isr0>:
  102290:	6a 00                	push   0x0
  102292:	6a 00                	push   0x0
  102294:	e9 c1 00 00 00       	jmp    10235a <isr_common_stub>

00102299 <isr1>:
  102299:	6a 00                	push   0x0
  10229b:	6a 01                	push   0x1
  10229d:	e9 b8 00 00 00       	jmp    10235a <isr_common_stub>

001022a2 <isr2>:
  1022a2:	6a 00                	push   0x0
  1022a4:	6a 02                	push   0x2
  1022a6:	e9 af 00 00 00       	jmp    10235a <isr_common_stub>

001022ab <isr3>:
  1022ab:	6a 00                	push   0x0
  1022ad:	6a 03                	push   0x3
  1022af:	e9 a6 00 00 00       	jmp    10235a <isr_common_stub>

001022b4 <isr4>:
  1022b4:	6a 00                	push   0x0
  1022b6:	6a 04                	push   0x4
  1022b8:	e9 9d 00 00 00       	jmp    10235a <isr_common_stub>

001022bd <isr5>:
  1022bd:	6a 00                	push   0x0
  1022bf:	6a 05                	push   0x5
  1022c1:	e9 94 00 00 00       	jmp    10235a <isr_common_stub>

001022c6 <isr6>:
  1022c6:	6a 00                	push   0x0
  1022c8:	6a 06                	push   0x6
  1022ca:	e9 8b 00 00 00       	jmp    10235a <isr_common_stub>

001022cf <isr7>:
  1022cf:	6a 00                	push   0x0
  1022d1:	6a 07                	push   0x7
  1022d3:	e9 82 00 00 00       	jmp    10235a <isr_common_stub>

001022d8 <isr8>:
  1022d8:	6a 08                	push   0x8
  1022da:	eb 7e                	jmp    10235a <isr_common_stub>

001022dc <isr9>:
  1022dc:	6a 00                	push   0x0
  1022de:	6a 09                	push   0x9
  1022e0:	eb 78                	jmp    10235a <isr_common_stub>

001022e2 <isr10>:
  1022e2:	6a 0a                	push   0xa
  1022e4:	eb 74                	jmp    10235a <isr_common_stub>

001022e6 <isr11>:
  1022e6:	6a 0b                	push   0xb
  1022e8:	eb 70                	jmp    10235a <isr_common_stub>

001022ea <isr12>:
  1022ea:	6a 0c                	push   0xc
  1022ec:	eb 6c                	jmp    10235a <isr_common_stub>

001022ee <isr13>:
  1022ee:	6a 0d                	push   0xd
  1022f0:	eb 68                	jmp    10235a <isr_common_stub>

001022f2 <isr14>:
  1022f2:	6a 0e                	push   0xe
  1022f4:	eb 64                	jmp    10235a <isr_common_stub>

001022f6 <isr15>:
  1022f6:	6a 00                	push   0x0
  1022f8:	6a 0f                	push   0xf
  1022fa:	eb 5e                	jmp    10235a <isr_common_stub>

001022fc <isr16>:
  1022fc:	6a 00                	push   0x0
  1022fe:	6a 10                	push   0x10
  102300:	eb 58                	jmp    10235a <isr_common_stub>

00102302 <isr17>:
  102302:	6a 11                	push   0x11
  102304:	eb 54                	jmp    10235a <isr_common_stub>

00102306 <isr18>:
  102306:	6a 00                	push   0x0
  102308:	6a 12                	push   0x12
  10230a:	eb 4e                	jmp    10235a <isr_common_stub>

0010230c <isr19>:
  10230c:	6a 00                	push   0x0
  10230e:	6a 13                	push   0x13
  102310:	eb 48                	jmp    10235a <isr_common_stub>

00102312 <isr20>:
  102312:	6a 00                	push   0x0
  102314:	6a 14                	push   0x14
  102316:	eb 42                	jmp    10235a <isr_common_stub>

00102318 <isr21>:
  102318:	6a 00                	push   0x0
  10231a:	6a 15                	push   0x15
  10231c:	eb 3c                	jmp    10235a <isr_common_stub>

0010231e <isr22>:
  10231e:	6a 00                	push   0x0
  102320:	6a 16                	push   0x16
  102322:	eb 36                	jmp    10235a <isr_common_stub>

00102324 <isr23>:
  102324:	6a 00                	push   0x0
  102326:	6a 17                	push   0x17
  102328:	eb 30                	jmp    10235a <isr_common_stub>

0010232a <isr24>:
  10232a:	6a 00                	push   0x0
  10232c:	6a 18                	push   0x18
  10232e:	eb 2a                	jmp    10235a <isr_common_stub>

00102330 <isr25>:
  102330:	6a 00                	push   0x0
  102332:	6a 19                	push   0x19
  102334:	eb 24                	jmp    10235a <isr_common_stub>

00102336 <isr26>:
  102336:	6a 00                	push   0x0
  102338:	6a 1a                	push   0x1a
  10233a:	eb 1e                	jmp    10235a <isr_common_stub>

0010233c <isr27>:
  10233c:	6a 00                	push   0x0
  10233e:	6a 1b                	push   0x1b
  102340:	eb 18                	jmp    10235a <isr_common_stub>

00102342 <isr28>:
  102342:	6a 00                	push   0x0
  102344:	6a 1c                	push   0x1c
  102346:	eb 12                	jmp    10235a <isr_common_stub>

00102348 <isr29>:
  102348:	6a 00                	push   0x0
  10234a:	6a 1d                	push   0x1d
  10234c:	eb 0c                	jmp    10235a <isr_common_stub>

0010234e <isr30>:
  10234e:	6a 00                	push   0x0
  102350:	6a 1e                	push   0x1e
  102352:	eb 06                	jmp    10235a <isr_common_stub>

00102354 <isr31>:
  102354:	6a 00                	push   0x0
  102356:	6a 1f                	push   0x1f
  102358:	eb 00                	jmp    10235a <isr_common_stub>

0010235a <isr_common_stub>:
  10235a:	60                   	pusha
  10235b:	66 8c d8             	mov    ax,ds
  10235e:	50                   	push   eax
  10235f:	66 b8 10 00          	mov    ax,0x10
  102363:	8e d8                	mov    ds,eax
  102365:	8e c0                	mov    es,eax
  102367:	8e e0                	mov    fs,eax
  102369:	8e e8                	mov    gs,eax
  10236b:	e8 d9 f9 ff ff       	call   101d49 <isr_handler>
  102370:	58                   	pop    eax
  102371:	8e d8                	mov    ds,eax
  102373:	8e c0                	mov    es,eax
  102375:	8e e0                	mov    fs,eax
  102377:	8e e8                	mov    gs,eax
  102379:	61                   	popa
  10237a:	83 c4 08             	add    esp,0x8
  10237d:	cf                   	iret

0010237e <idt_flush>:
  10237e:	8b 44 24 04          	mov    eax,DWORD PTR [esp+0x4]
  102382:	0f 01 18             	lidtd  [eax]
  102385:	c3                   	ret

00102386 <pmm_set_frame>:
  102386:	55                   	push   ebp
  102387:	89 e5                	mov    ebp,esp
  102389:	56                   	push   esi
  10238a:	53                   	push   ebx
  10238b:	83 ec 10             	sub    esp,0x10
  10238e:	e8 c7 44 00 00       	call   10685a <__x86.get_pc_thunk.ax>
  102393:	05 75 6c 00 00       	add    eax,0x6c75
  102398:	8b 55 08             	mov    edx,DWORD PTR [ebp+0x8]
  10239b:	c1 ea 0c             	shr    edx,0xc
  10239e:	89 55 f4             	mov    DWORD PTR [ebp-0xc],edx
  1023a1:	8b 55 f4             	mov    edx,DWORD PTR [ebp-0xc]
  1023a4:	c1 ea 03             	shr    edx,0x3
  1023a7:	89 55 f0             	mov    DWORD PTR [ebp-0x10],edx
  1023aa:	8b 55 f4             	mov    edx,DWORD PTR [ebp-0xc]
  1023ad:	83 e2 07             	and    edx,0x7
  1023b0:	88 55 ef             	mov    BYTE PTR [ebp-0x11],dl
  1023b3:	8d 88 b8 a6 00 00    	lea    ecx,[eax+0xa6b8]
  1023b9:	8b 55 f0             	mov    edx,DWORD PTR [ebp-0x10]
  1023bc:	01 ca                	add    edx,ecx
  1023be:	0f b6 12             	movzx  edx,BYTE PTR [edx]
  1023c1:	89 d6                	mov    esi,edx
  1023c3:	0f b6 55 ef          	movzx  edx,BYTE PTR [ebp-0x11]
  1023c7:	bb 01 00 00 00       	mov    ebx,0x1
  1023cc:	89 d1                	mov    ecx,edx
  1023ce:	d3 e3                	shl    ebx,cl
  1023d0:	89 da                	mov    edx,ebx
  1023d2:	09 f2                	or     edx,esi
  1023d4:	89 d1                	mov    ecx,edx
  1023d6:	8d 90 b8 a6 00 00    	lea    edx,[eax+0xa6b8]
  1023dc:	8b 45 f0             	mov    eax,DWORD PTR [ebp-0x10]
  1023df:	01 d0                	add    eax,edx
  1023e1:	88 08                	mov    BYTE PTR [eax],cl
  1023e3:	90                   	nop
  1023e4:	83 c4 10             	add    esp,0x10
  1023e7:	5b                   	pop    ebx
  1023e8:	5e                   	pop    esi
  1023e9:	5d                   	pop    ebp
  1023ea:	c3                   	ret

001023eb <pmm_clear_frame>:
  1023eb:	55                   	push   ebp
  1023ec:	89 e5                	mov    ebp,esp
  1023ee:	56                   	push   esi
  1023ef:	53                   	push   ebx
  1023f0:	83 ec 10             	sub    esp,0x10
  1023f3:	e8 62 44 00 00       	call   10685a <__x86.get_pc_thunk.ax>
  1023f8:	05 10 6c 00 00       	add    eax,0x6c10
  1023fd:	8b 55 08             	mov    edx,DWORD PTR [ebp+0x8]
  102400:	c1 ea 0c             	shr    edx,0xc
  102403:	89 55 f4             	mov    DWORD PTR [ebp-0xc],edx
  102406:	8b 55 f4             	mov    edx,DWORD PTR [ebp-0xc]
  102409:	c1 ea 03             	shr    edx,0x3
  10240c:	89 55 f0             	mov    DWORD PTR [ebp-0x10],edx
  10240f:	8b 55 f4             	mov    edx,DWORD PTR [ebp-0xc]
  102412:	83 e2 07             	and    edx,0x7
  102415:	88 55 ef             	mov    BYTE PTR [ebp-0x11],dl
  102418:	8d 88 b8 a6 00 00    	lea    ecx,[eax+0xa6b8]
  10241e:	8b 55 f0             	mov    edx,DWORD PTR [ebp-0x10]
  102421:	01 ca                	add    edx,ecx
  102423:	0f b6 12             	movzx  edx,BYTE PTR [edx]
  102426:	89 d6                	mov    esi,edx
  102428:	0f b6 55 ef          	movzx  edx,BYTE PTR [ebp-0x11]
  10242c:	bb 01 00 00 00       	mov    ebx,0x1
  102431:	89 d1                	mov    ecx,edx
  102433:	d3 e3                	shl    ebx,cl
  102435:	89 da                	mov    edx,ebx
  102437:	f7 d2                	not    edx
  102439:	21 f2                	and    edx,esi
  10243b:	89 d1                	mov    ecx,edx
  10243d:	8d 90 b8 a6 00 00    	lea    edx,[eax+0xa6b8]
  102443:	8b 45 f0             	mov    eax,DWORD PTR [ebp-0x10]
  102446:	01 d0                	add    eax,edx
  102448:	88 08                	mov    BYTE PTR [eax],cl
  10244a:	90                   	nop
  10244b:	83 c4 10             	add    esp,0x10
  10244e:	5b                   	pop    ebx
  10244f:	5e                   	pop    esi
  102450:	5d                   	pop    ebp
  102451:	c3                   	ret

00102452 <pmm_test_frame>:
  102452:	55                   	push   ebp
  102453:	89 e5                	mov    ebp,esp
  102455:	53                   	push   ebx
  102456:	83 ec 10             	sub    esp,0x10
  102459:	e8 fc 43 00 00       	call   10685a <__x86.get_pc_thunk.ax>
  10245e:	05 aa 6b 00 00       	add    eax,0x6baa
  102463:	8b 55 08             	mov    edx,DWORD PTR [ebp+0x8]
  102466:	c1 ea 0c             	shr    edx,0xc
  102469:	89 55 f8             	mov    DWORD PTR [ebp-0x8],edx
  10246c:	8b 55 f8             	mov    edx,DWORD PTR [ebp-0x8]
  10246f:	c1 ea 03             	shr    edx,0x3
  102472:	89 55 f4             	mov    DWORD PTR [ebp-0xc],edx
  102475:	8b 55 f8             	mov    edx,DWORD PTR [ebp-0x8]
  102478:	83 e2 07             	and    edx,0x7
  10247b:	88 55 f3             	mov    BYTE PTR [ebp-0xd],dl
  10247e:	8d 90 b8 a6 00 00    	lea    edx,[eax+0xa6b8]
  102484:	8b 45 f4             	mov    eax,DWORD PTR [ebp-0xc]
  102487:	01 d0                	add    eax,edx
  102489:	0f b6 00             	movzx  eax,BYTE PTR [eax]
  10248c:	0f b6 d0             	movzx  edx,al
  10248f:	0f b6 45 f3          	movzx  eax,BYTE PTR [ebp-0xd]
  102493:	bb 01 00 00 00       	mov    ebx,0x1
  102498:	89 c1                	mov    ecx,eax
  10249a:	d3 e3                	shl    ebx,cl
  10249c:	89 d8                	mov    eax,ebx
  10249e:	21 d0                	and    eax,edx
  1024a0:	8b 5d fc             	mov    ebx,DWORD PTR [ebp-0x4]
  1024a3:	c9                   	leave
  1024a4:	c3                   	ret

001024a5 <print_uint32>:
  1024a5:	55                   	push   ebp
  1024a6:	89 e5                	mov    ebp,esp
  1024a8:	53                   	push   ebx
  1024a9:	83 ec 14             	sub    esp,0x14
  1024ac:	e8 b1 43 00 00       	call   106862 <__x86.get_pc_thunk.cx>
  1024b1:	81 c1 57 6b 00 00    	add    ecx,0x6b57
  1024b7:	83 7d 08 00          	cmp    DWORD PTR [ebp+0x8],0x0
  1024bb:	75 16                	jne    1024d3 <print_uint32+0x2e>
  1024bd:	83 ec 0c             	sub    esp,0xc
  1024c0:	8d 81 f0 e2 ff ff    	lea    eax,[ecx-0x1d10]
  1024c6:	50                   	push   eax
  1024c7:	89 cb                	mov    ebx,ecx
  1024c9:	e8 8a f4 ff ff       	call   101958 <vga_print>
  1024ce:	83 c4 10             	add    esp,0x10
  1024d1:	eb 74                	jmp    102547 <print_uint32+0xa2>
  1024d3:	c7 45 f4 0a 00 00 00 	mov    DWORD PTR [ebp-0xc],0xa
  1024da:	c6 45 f3 00          	mov    BYTE PTR [ebp-0xd],0x0
  1024de:	eb 42                	jmp    102522 <print_uint32+0x7d>
  1024e0:	8b 5d 08             	mov    ebx,DWORD PTR [ebp+0x8]
  1024e3:	ba cd cc cc cc       	mov    edx,0xcccccccd
  1024e8:	89 d8                	mov    eax,ebx
  1024ea:	f7 e2                	mul    edx
  1024ec:	c1 ea 03             	shr    edx,0x3
  1024ef:	89 d0                	mov    eax,edx
  1024f1:	c1 e0 02             	shl    eax,0x2
  1024f4:	01 d0                	add    eax,edx
  1024f6:	01 c0                	add    eax,eax
  1024f8:	29 c3                	sub    ebx,eax
  1024fa:	89 da                	mov    edx,ebx
  1024fc:	89 d0                	mov    eax,edx
  1024fe:	8d 58 30             	lea    ebx,[eax+0x30]
  102501:	8b 45 f4             	mov    eax,DWORD PTR [ebp-0xc]
  102504:	8d 50 ff             	lea    edx,[eax-0x1]
  102507:	89 55 f4             	mov    DWORD PTR [ebp-0xc],edx
  10250a:	89 da                	mov    edx,ebx
  10250c:	88 54 05 e8          	mov    BYTE PTR [ebp+eax*1-0x18],dl
  102510:	8b 45 08             	mov    eax,DWORD PTR [ebp+0x8]
  102513:	ba cd cc cc cc       	mov    edx,0xcccccccd
  102518:	f7 e2                	mul    edx
  10251a:	89 d0                	mov    eax,edx
  10251c:	c1 e8 03             	shr    eax,0x3
  10251f:	89 45 08             	mov    DWORD PTR [ebp+0x8],eax
  102522:	83 7d 08 00          	cmp    DWORD PTR [ebp+0x8],0x0
  102526:	74 06                	je     10252e <print_uint32+0x89>
  102528:	83 7d f4 00          	cmp    DWORD PTR [ebp-0xc],0x0
  10252c:	79 b2                	jns    1024e0 <print_uint32+0x3b>
  10252e:	8b 45 f4             	mov    eax,DWORD PTR [ebp-0xc]
  102531:	8d 50 01             	lea    edx,[eax+0x1]
  102534:	8d 45 e8             	lea    eax,[ebp-0x18]
  102537:	01 d0                	add    eax,edx
  102539:	83 ec 0c             	sub    esp,0xc
  10253c:	50                   	push   eax
  10253d:	89 cb                	mov    ebx,ecx
  10253f:	e8 14 f4 ff ff       	call   101958 <vga_print>
  102544:	83 c4 10             	add    esp,0x10
  102547:	8b 5d fc             	mov    ebx,DWORD PTR [ebp-0x4]
  10254a:	c9                   	leave
  10254b:	c3                   	ret

0010254c <pmm_init>:
  10254c:	55                   	push   ebp
  10254d:	89 e5                	mov    ebp,esp
  10254f:	57                   	push   edi
  102550:	56                   	push   esi
  102551:	53                   	push   ebx
  102552:	83 ec 5c             	sub    esp,0x5c
  102555:	e8 fc 42 00 00       	call   106856 <__x86.get_pc_thunk.bx>
  10255a:	81 c3 ae 6a 00 00    	add    ebx,0x6aae
  102560:	c7 45 e4 00 00 00 00 	mov    DWORD PTR [ebp-0x1c],0x0
  102567:	eb 12                	jmp    10257b <pmm_init+0x2f>
  102569:	8d 93 b8 a6 00 00    	lea    edx,[ebx+0xa6b8]
  10256f:	8b 45 e4             	mov    eax,DWORD PTR [ebp-0x1c]
  102572:	01 d0                	add    eax,edx
  102574:	c6 00 ff             	mov    BYTE PTR [eax],0xff
  102577:	83 45 e4 01          	add    DWORD PTR [ebp-0x1c],0x1
  10257b:	81 7d e4 ff 7f 00 00 	cmp    DWORD PTR [ebp-0x1c],0x7fff
  102582:	76 e5                	jbe    102569 <pmm_init+0x1d>
  102584:	8b 45 08             	mov    eax,DWORD PTR [ebp+0x8]
  102587:	89 45 c4             	mov    DWORD PTR [ebp-0x3c],eax
  10258a:	8b 45 08             	mov    eax,DWORD PTR [ebp+0x8]
  10258d:	83 c0 08             	add    eax,0x8
  102590:	89 45 e0             	mov    DWORD PTR [ebp-0x20],eax
  102593:	c7 45 dc 00 00 00 00 	mov    DWORD PTR [ebp-0x24],0x0
  10259a:	eb 2e                	jmp    1025ca <pmm_init+0x7e>
  10259c:	8b 45 e0             	mov    eax,DWORD PTR [ebp-0x20]
  10259f:	8b 00                	mov    eax,DWORD PTR [eax]
  1025a1:	83 f8 06             	cmp    eax,0x6
  1025a4:	75 08                	jne    1025ae <pmm_init+0x62>
  1025a6:	8b 45 e0             	mov    eax,DWORD PTR [ebp-0x20]
  1025a9:	89 45 dc             	mov    DWORD PTR [ebp-0x24],eax
  1025ac:	eb 25                	jmp    1025d3 <pmm_init+0x87>
  1025ae:	8b 45 e0             	mov    eax,DWORD PTR [ebp-0x20]
  1025b1:	8b 40 04             	mov    eax,DWORD PTR [eax+0x4]
  1025b4:	83 c0 07             	add    eax,0x7
  1025b7:	83 e0 f8             	and    eax,0xfffffff8
  1025ba:	89 c2                	mov    edx,eax
  1025bc:	8b 45 e0             	mov    eax,DWORD PTR [ebp-0x20]
  1025bf:	01 d0                	add    eax,edx
  1025c1:	89 45 c0             	mov    DWORD PTR [ebp-0x40],eax
  1025c4:	8b 45 c0             	mov    eax,DWORD PTR [ebp-0x40]
  1025c7:	89 45 e0             	mov    DWORD PTR [ebp-0x20],eax
  1025ca:	8b 45 e0             	mov    eax,DWORD PTR [ebp-0x20]
  1025cd:	8b 00                	mov    eax,DWORD PTR [eax]
  1025cf:	85 c0                	test   eax,eax
  1025d1:	75 c9                	jne    10259c <pmm_init+0x50>
  1025d3:	83 7d dc 00          	cmp    DWORD PTR [ebp-0x24],0x0
  1025d7:	75 26                	jne    1025ff <pmm_init+0xb3>
  1025d9:	83 ec 08             	sub    esp,0x8
  1025dc:	6a 00                	push   0x0
  1025de:	6a 0c                	push   0xc
  1025e0:	e8 f4 ec ff ff       	call   1012d9 <vga_set_color>
  1025e5:	83 c4 10             	add    esp,0x10
  1025e8:	83 ec 0c             	sub    esp,0xc
  1025eb:	8d 83 f4 e2 ff ff    	lea    eax,[ebx-0x1d0c]
  1025f1:	50                   	push   eax
  1025f2:	e8 61 f3 ff ff       	call   101958 <vga_print>
  1025f7:	83 c4 10             	add    esp,0x10
  1025fa:	e9 af 02 00 00       	jmp    1028ae <pmm_init+0x362>
  1025ff:	8b 45 dc             	mov    eax,DWORD PTR [ebp-0x24]
  102602:	83 c0 10             	add    eax,0x10
  102605:	89 45 d8             	mov    DWORD PTR [ebp-0x28],eax
  102608:	8b 45 dc             	mov    eax,DWORD PTR [ebp-0x24]
  10260b:	8b 50 04             	mov    edx,DWORD PTR [eax+0x4]
  10260e:	8b 45 dc             	mov    eax,DWORD PTR [ebp-0x24]
  102611:	01 d0                	add    eax,edx
  102613:	89 45 bc             	mov    DWORD PTR [ebp-0x44],eax
  102616:	c7 45 d0 00 00 00 00 	mov    DWORD PTR [ebp-0x30],0x0
  10261d:	c7 45 d4 00 00 00 00 	mov    DWORD PTR [ebp-0x2c],0x0
  102624:	e9 b7 00 00 00       	jmp    1026e0 <pmm_init+0x194>
  102629:	8b 45 d8             	mov    eax,DWORD PTR [ebp-0x28]
  10262c:	89 45 b0             	mov    DWORD PTR [ebp-0x50],eax
  10262f:	8b 45 b0             	mov    eax,DWORD PTR [ebp-0x50]
  102632:	8b 40 10             	mov    eax,DWORD PTR [eax+0x10]
  102635:	83 f8 01             	cmp    eax,0x1
  102638:	0f 85 99 00 00 00    	jne    1026d7 <pmm_init+0x18b>
  10263e:	8b 45 b0             	mov    eax,DWORD PTR [ebp-0x50]
  102641:	8b 50 04             	mov    edx,DWORD PTR [eax+0x4]
  102644:	8b 00                	mov    eax,DWORD PTR [eax]
  102646:	89 45 ac             	mov    DWORD PTR [ebp-0x54],eax
  102649:	8b 45 b0             	mov    eax,DWORD PTR [ebp-0x50]
  10264c:	8b 50 0c             	mov    edx,DWORD PTR [eax+0xc]
  10264f:	8b 40 08             	mov    eax,DWORD PTR [eax+0x8]
  102652:	89 45 a8             	mov    DWORD PTR [ebp-0x58],eax
  102655:	8b 55 ac             	mov    edx,DWORD PTR [ebp-0x54]
  102658:	8b 45 a8             	mov    eax,DWORD PTR [ebp-0x58]
  10265b:	01 d0                	add    eax,edx
  10265d:	89 45 a4             	mov    DWORD PTR [ebp-0x5c],eax
  102660:	8b 45 b0             	mov    eax,DWORD PTR [ebp-0x50]
  102663:	8b 30                	mov    esi,DWORD PTR [eax]
  102665:	8b 78 04             	mov    edi,DWORD PTR [eax+0x4]
  102668:	8b 45 b0             	mov    eax,DWORD PTR [ebp-0x50]
  10266b:	8b 50 0c             	mov    edx,DWORD PTR [eax+0xc]
  10266e:	8b 40 08             	mov    eax,DWORD PTR [eax+0x8]
  102671:	01 f0                	add    eax,esi
  102673:	11 fa                	adc    edx,edi
  102675:	8b 4d d4             	mov    ecx,DWORD PTR [ebp-0x2c]
  102678:	39 45 d0             	cmp    DWORD PTR [ebp-0x30],eax
  10267b:	19 d1                	sbb    ecx,edx
  10267d:	73 1b                	jae    10269a <pmm_init+0x14e>
  10267f:	8b 45 b0             	mov    eax,DWORD PTR [ebp-0x50]
  102682:	8b 30                	mov    esi,DWORD PTR [eax]
  102684:	8b 78 04             	mov    edi,DWORD PTR [eax+0x4]
  102687:	8b 45 b0             	mov    eax,DWORD PTR [ebp-0x50]
  10268a:	8b 50 0c             	mov    edx,DWORD PTR [eax+0xc]
  10268d:	8b 40 08             	mov    eax,DWORD PTR [eax+0x8]
  102690:	01 f0                	add    eax,esi
  102692:	11 fa                	adc    edx,edi
  102694:	89 45 d0             	mov    DWORD PTR [ebp-0x30],eax
  102697:	89 55 d4             	mov    DWORD PTR [ebp-0x2c],edx
  10269a:	8b 45 ac             	mov    eax,DWORD PTR [ebp-0x54]
  10269d:	89 45 cc             	mov    DWORD PTR [ebp-0x34],eax
  1026a0:	eb 24                	jmp    1026c6 <pmm_init+0x17a>
  1026a2:	83 ec 0c             	sub    esp,0xc
  1026a5:	ff 75 cc             	push   DWORD PTR [ebp-0x34]
  1026a8:	e8 3e fd ff ff       	call   1023eb <pmm_clear_frame>
  1026ad:	83 c4 10             	add    esp,0x10
  1026b0:	8b 83 bc 26 01 00    	mov    eax,DWORD PTR [ebx+0x126bc]
  1026b6:	83 c0 01             	add    eax,0x1
  1026b9:	89 83 bc 26 01 00    	mov    DWORD PTR [ebx+0x126bc],eax
  1026bf:	81 45 cc 00 10 00 00 	add    DWORD PTR [ebp-0x34],0x1000
  1026c6:	8b 45 cc             	mov    eax,DWORD PTR [ebp-0x34]
  1026c9:	3b 45 a4             	cmp    eax,DWORD PTR [ebp-0x5c]
  1026cc:	73 09                	jae    1026d7 <pmm_init+0x18b>
  1026ce:	81 7d cc ff ff ff 3f 	cmp    DWORD PTR [ebp-0x34],0x3fffffff
  1026d5:	76 cb                	jbe    1026a2 <pmm_init+0x156>
  1026d7:	8b 45 dc             	mov    eax,DWORD PTR [ebp-0x24]
  1026da:	8b 40 08             	mov    eax,DWORD PTR [eax+0x8]
  1026dd:	01 45 d8             	add    DWORD PTR [ebp-0x28],eax
  1026e0:	8b 45 d8             	mov    eax,DWORD PTR [ebp-0x28]
  1026e3:	3b 45 bc             	cmp    eax,DWORD PTR [ebp-0x44]
  1026e6:	0f 82 3d ff ff ff    	jb     102629 <pmm_init+0xdd>
  1026ec:	8b 45 d0             	mov    eax,DWORD PTR [ebp-0x30]
  1026ef:	8b 55 d4             	mov    edx,DWORD PTR [ebp-0x2c]
  1026f2:	0f ac d0 0c          	shrd   eax,edx,0xc
  1026f6:	c1 ea 0c             	shr    edx,0xc
  1026f9:	89 83 b8 26 01 00    	mov    DWORD PTR [ebx+0x126b8],eax
  1026ff:	8b 83 b8 26 01 00    	mov    eax,DWORD PTR [ebx+0x126b8]
  102705:	3d 00 00 04 00       	cmp    eax,0x40000
  10270a:	76 0a                	jbe    102716 <pmm_init+0x1ca>
  10270c:	c7 83 b8 26 01 00 00 	mov    DWORD PTR [ebx+0x126b8],0x40000
  102713:	00 04 00 
  102716:	c7 45 c8 00 00 00 00 	mov    DWORD PTR [ebp-0x38],0x0
  10271d:	eb 40                	jmp    10275f <pmm_init+0x213>
  10271f:	83 ec 0c             	sub    esp,0xc
  102722:	ff 75 c8             	push   DWORD PTR [ebp-0x38]
  102725:	e8 28 fd ff ff       	call   102452 <pmm_test_frame>
  10272a:	83 c4 10             	add    esp,0x10
  10272d:	85 c0                	test   eax,eax
  10272f:	75 27                	jne    102758 <pmm_init+0x20c>
  102731:	83 ec 0c             	sub    esp,0xc
  102734:	ff 75 c8             	push   DWORD PTR [ebp-0x38]
  102737:	e8 4a fc ff ff       	call   102386 <pmm_set_frame>
  10273c:	83 c4 10             	add    esp,0x10
  10273f:	8b 83 bc 26 01 00    	mov    eax,DWORD PTR [ebx+0x126bc]
  102745:	85 c0                	test   eax,eax
  102747:	74 0f                	je     102758 <pmm_init+0x20c>
  102749:	8b 83 bc 26 01 00    	mov    eax,DWORD PTR [ebx+0x126bc]
  10274f:	83 e8 01             	sub    eax,0x1
  102752:	89 83 bc 26 01 00    	mov    DWORD PTR [ebx+0x126bc],eax
  102758:	81 45 c8 00 10 00 00 	add    DWORD PTR [ebp-0x38],0x1000
  10275f:	81 7d c8 ff ff 0f 00 	cmp    DWORD PTR [ebp-0x38],0xfffff
  102766:	76 b7                	jbe    10271f <pmm_init+0x1d3>
  102768:	c7 c0 00 00 10 00    	mov    eax,0x100000
  10276e:	25 00 f0 ff ff       	and    eax,0xfffff000
  102773:	89 45 b8             	mov    DWORD PTR [ebp-0x48],eax
  102776:	c7 c0 c0 f3 12 00    	mov    eax,0x12f3c0
  10277c:	05 ff 0f 00 00       	add    eax,0xfff
  102781:	25 00 f0 ff ff       	and    eax,0xfffff000
  102786:	89 45 b4             	mov    DWORD PTR [ebp-0x4c],eax
  102789:	8b 45 b8             	mov    eax,DWORD PTR [ebp-0x48]
  10278c:	89 45 c8             	mov    DWORD PTR [ebp-0x38],eax
  10278f:	eb 40                	jmp    1027d1 <pmm_init+0x285>
  102791:	83 ec 0c             	sub    esp,0xc
  102794:	ff 75 c8             	push   DWORD PTR [ebp-0x38]
  102797:	e8 b6 fc ff ff       	call   102452 <pmm_test_frame>
  10279c:	83 c4 10             	add    esp,0x10
  10279f:	85 c0                	test   eax,eax
  1027a1:	75 27                	jne    1027ca <pmm_init+0x27e>
  1027a3:	83 ec 0c             	sub    esp,0xc
  1027a6:	ff 75 c8             	push   DWORD PTR [ebp-0x38]
  1027a9:	e8 d8 fb ff ff       	call   102386 <pmm_set_frame>
  1027ae:	83 c4 10             	add    esp,0x10
  1027b1:	8b 83 bc 26 01 00    	mov    eax,DWORD PTR [ebx+0x126bc]
  1027b7:	85 c0                	test   eax,eax
  1027b9:	74 0f                	je     1027ca <pmm_init+0x27e>
  1027bb:	8b 83 bc 26 01 00    	mov    eax,DWORD PTR [ebx+0x126bc]
  1027c1:	83 e8 01             	sub    eax,0x1
  1027c4:	89 83 bc 26 01 00    	mov    DWORD PTR [ebx+0x126bc],eax
  1027ca:	81 45 c8 00 10 00 00 	add    DWORD PTR [ebp-0x38],0x1000
  1027d1:	8b 45 c8             	mov    eax,DWORD PTR [ebp-0x38]
  1027d4:	3b 45 b4             	cmp    eax,DWORD PTR [ebp-0x4c]
  1027d7:	72 b8                	jb     102791 <pmm_init+0x245>
  1027d9:	83 ec 08             	sub    esp,0x8
  1027dc:	6a 00                	push   0x0
  1027de:	6a 0b                	push   0xb
  1027e0:	e8 f4 ea ff ff       	call   1012d9 <vga_set_color>
  1027e5:	83 c4 10             	add    esp,0x10
  1027e8:	83 ec 0c             	sub    esp,0xc
  1027eb:	8d 83 22 e3 ff ff    	lea    eax,[ebx-0x1cde]
  1027f1:	50                   	push   eax
  1027f2:	e8 61 f1 ff ff       	call   101958 <vga_print>
  1027f7:	83 c4 10             	add    esp,0x10
  1027fa:	83 ec 08             	sub    esp,0x8
  1027fd:	6a 00                	push   0x0
  1027ff:	6a 0f                	push   0xf
  102801:	e8 d3 ea ff ff       	call   1012d9 <vga_set_color>
  102806:	83 c4 10             	add    esp,0x10
  102809:	83 ec 0c             	sub    esp,0xc
  10280c:	8d 83 3b e3 ff ff    	lea    eax,[ebx-0x1cc5]
  102812:	50                   	push   eax
  102813:	e8 40 f1 ff ff       	call   101958 <vga_print>
  102818:	83 c4 10             	add    esp,0x10
  10281b:	8b 83 b8 26 01 00    	mov    eax,DWORD PTR [ebx+0x126b8]
  102821:	83 ec 0c             	sub    esp,0xc
  102824:	50                   	push   eax
  102825:	e8 7b fc ff ff       	call   1024a5 <print_uint32>
  10282a:	83 c4 10             	add    esp,0x10
  10282d:	83 ec 0c             	sub    esp,0xc
  102830:	8d 83 51 e3 ff ff    	lea    eax,[ebx-0x1caf]
  102836:	50                   	push   eax
  102837:	e8 1c f1 ff ff       	call   101958 <vga_print>
  10283c:	83 c4 10             	add    esp,0x10
  10283f:	83 ec 0c             	sub    esp,0xc
  102842:	8d 83 53 e3 ff ff    	lea    eax,[ebx-0x1cad]
  102848:	50                   	push   eax
  102849:	e8 0a f1 ff ff       	call   101958 <vga_print>
  10284e:	83 c4 10             	add    esp,0x10
  102851:	8b 83 bc 26 01 00    	mov    eax,DWORD PTR [ebx+0x126bc]
  102857:	83 ec 0c             	sub    esp,0xc
  10285a:	50                   	push   eax
  10285b:	e8 45 fc ff ff       	call   1024a5 <print_uint32>
  102860:	83 c4 10             	add    esp,0x10
  102863:	83 ec 0c             	sub    esp,0xc
  102866:	8d 83 51 e3 ff ff    	lea    eax,[ebx-0x1caf]
  10286c:	50                   	push   eax
  10286d:	e8 e6 f0 ff ff       	call   101958 <vga_print>
  102872:	83 c4 10             	add    esp,0x10
  102875:	83 ec 0c             	sub    esp,0xc
  102878:	8d 83 69 e3 ff ff    	lea    eax,[ebx-0x1c97]
  10287e:	50                   	push   eax
  10287f:	e8 d4 f0 ff ff       	call   101958 <vga_print>
  102884:	83 c4 10             	add    esp,0x10
  102887:	8b 83 bc 26 01 00    	mov    eax,DWORD PTR [ebx+0x126bc]
  10288d:	c1 e0 02             	shl    eax,0x2
  102890:	83 ec 0c             	sub    esp,0xc
  102893:	50                   	push   eax
  102894:	e8 0c fc ff ff       	call   1024a5 <print_uint32>
  102899:	83 c4 10             	add    esp,0x10
  10289c:	83 ec 0c             	sub    esp,0xc
  10289f:	8d 83 7f e3 ff ff    	lea    eax,[ebx-0x1c81]
  1028a5:	50                   	push   eax
  1028a6:	e8 ad f0 ff ff       	call   101958 <vga_print>
  1028ab:	83 c4 10             	add    esp,0x10
  1028ae:	8d 65 f4             	lea    esp,[ebp-0xc]
  1028b1:	5b                   	pop    ebx
  1028b2:	5e                   	pop    esi
  1028b3:	5f                   	pop    edi
  1028b4:	5d                   	pop    ebp
  1028b5:	c3                   	ret

001028b6 <pmm_alloc_frame>:
  1028b6:	55                   	push   ebp
  1028b7:	89 e5                	mov    ebp,esp
  1028b9:	53                   	push   ebx
  1028ba:	83 ec 10             	sub    esp,0x10
  1028bd:	e8 94 3f 00 00       	call   106856 <__x86.get_pc_thunk.bx>
  1028c2:	81 c3 46 67 00 00    	add    ebx,0x6746
  1028c8:	8b 83 bc 26 01 00    	mov    eax,DWORD PTR [ebx+0x126bc]
  1028ce:	85 c0                	test   eax,eax
  1028d0:	75 0a                	jne    1028dc <pmm_alloc_frame+0x26>
  1028d2:	b8 00 00 00 00       	mov    eax,0x0
  1028d7:	e9 a4 00 00 00       	jmp    102980 <pmm_alloc_frame+0xca>
  1028dc:	c7 45 f8 00 00 00 00 	mov    DWORD PTR [ebp-0x8],0x0
  1028e3:	e9 86 00 00 00       	jmp    10296e <pmm_alloc_frame+0xb8>
  1028e8:	8d 93 b8 a6 00 00    	lea    edx,[ebx+0xa6b8]
  1028ee:	8b 45 f8             	mov    eax,DWORD PTR [ebp-0x8]
  1028f1:	01 d0                	add    eax,edx
  1028f3:	0f b6 00             	movzx  eax,BYTE PTR [eax]
  1028f6:	3c ff                	cmp    al,0xff
  1028f8:	74 6f                	je     102969 <pmm_alloc_frame+0xb3>
  1028fa:	c6 45 f7 00          	mov    BYTE PTR [ebp-0x9],0x0
  1028fe:	eb 61                	jmp    102961 <pmm_alloc_frame+0xab>
  102900:	8d 93 b8 a6 00 00    	lea    edx,[ebx+0xa6b8]
  102906:	8b 45 f8             	mov    eax,DWORD PTR [ebp-0x8]
  102909:	01 d0                	add    eax,edx
  10290b:	0f b6 00             	movzx  eax,BYTE PTR [eax]
  10290e:	0f b6 d0             	movzx  edx,al
  102911:	0f b6 45 f7          	movzx  eax,BYTE PTR [ebp-0x9]
  102915:	89 c1                	mov    ecx,eax
  102917:	d3 fa                	sar    edx,cl
  102919:	89 d0                	mov    eax,edx
  10291b:	83 e0 01             	and    eax,0x1
  10291e:	85 c0                	test   eax,eax
  102920:	75 35                	jne    102957 <pmm_alloc_frame+0xa1>
  102922:	8b 45 f8             	mov    eax,DWORD PTR [ebp-0x8]
  102925:	8d 14 c5 00 00 00 00 	lea    edx,[eax*8+0x0]
  10292c:	0f b6 45 f7          	movzx  eax,BYTE PTR [ebp-0x9]
  102930:	01 d0                	add    eax,edx
  102932:	c1 e0 0c             	shl    eax,0xc
  102935:	89 45 f0             	mov    DWORD PTR [ebp-0x10],eax
  102938:	ff 75 f0             	push   DWORD PTR [ebp-0x10]
  10293b:	e8 46 fa ff ff       	call   102386 <pmm_set_frame>
  102940:	83 c4 04             	add    esp,0x4
  102943:	8b 83 bc 26 01 00    	mov    eax,DWORD PTR [ebx+0x126bc]
  102949:	83 e8 01             	sub    eax,0x1
  10294c:	89 83 bc 26 01 00    	mov    DWORD PTR [ebx+0x126bc],eax
  102952:	8b 45 f0             	mov    eax,DWORD PTR [ebp-0x10]
  102955:	eb 29                	jmp    102980 <pmm_alloc_frame+0xca>
  102957:	0f b6 45 f7          	movzx  eax,BYTE PTR [ebp-0x9]
  10295b:	83 c0 01             	add    eax,0x1
  10295e:	88 45 f7             	mov    BYTE PTR [ebp-0x9],al
  102961:	80 7d f7 07          	cmp    BYTE PTR [ebp-0x9],0x7
  102965:	76 99                	jbe    102900 <pmm_alloc_frame+0x4a>
  102967:	eb 01                	jmp    10296a <pmm_alloc_frame+0xb4>
  102969:	90                   	nop
  10296a:	83 45 f8 01          	add    DWORD PTR [ebp-0x8],0x1
  10296e:	81 7d f8 ff 7f 00 00 	cmp    DWORD PTR [ebp-0x8],0x7fff
  102975:	0f 86 6d ff ff ff    	jbe    1028e8 <pmm_alloc_frame+0x32>
  10297b:	b8 00 00 00 00       	mov    eax,0x0
  102980:	8b 5d fc             	mov    ebx,DWORD PTR [ebp-0x4]
  102983:	c9                   	leave
  102984:	c3                   	ret

00102985 <pmm_free_frame>:
  102985:	55                   	push   ebp
  102986:	89 e5                	mov    ebp,esp
  102988:	53                   	push   ebx
  102989:	e8 c8 3e 00 00       	call   106856 <__x86.get_pc_thunk.bx>
  10298e:	81 c3 7a 66 00 00    	add    ebx,0x667a
  102994:	ff 75 08             	push   DWORD PTR [ebp+0x8]
  102997:	e8 4f fa ff ff       	call   1023eb <pmm_clear_frame>
  10299c:	83 c4 04             	add    esp,0x4
  10299f:	8b 83 bc 26 01 00    	mov    eax,DWORD PTR [ebx+0x126bc]
  1029a5:	83 c0 01             	add    eax,0x1
  1029a8:	89 83 bc 26 01 00    	mov    DWORD PTR [ebx+0x126bc],eax
  1029ae:	90                   	nop
  1029af:	8b 5d fc             	mov    ebx,DWORD PTR [ebp-0x4]
  1029b2:	c9                   	leave
  1029b3:	c3                   	ret

001029b4 <pmm_get_total_frames>:
  1029b4:	55                   	push   ebp
  1029b5:	89 e5                	mov    ebp,esp
  1029b7:	e8 9e 3e 00 00       	call   10685a <__x86.get_pc_thunk.ax>
  1029bc:	05 4c 66 00 00       	add    eax,0x664c
  1029c1:	8b 80 b8 26 01 00    	mov    eax,DWORD PTR [eax+0x126b8]
  1029c7:	5d                   	pop    ebp
  1029c8:	c3                   	ret

001029c9 <pmm_get_free_frames>:
  1029c9:	55                   	push   ebp
  1029ca:	89 e5                	mov    ebp,esp
  1029cc:	e8 89 3e 00 00       	call   10685a <__x86.get_pc_thunk.ax>
  1029d1:	05 37 66 00 00       	add    eax,0x6637
  1029d6:	8b 80 bc 26 01 00    	mov    eax,DWORD PTR [eax+0x126bc]
  1029dc:	5d                   	pop    ebp
  1029dd:	c3                   	ret

001029de <page_fault_handler>:
  1029de:	55                   	push   ebp
  1029df:	89 e5                	mov    ebp,esp
  1029e1:	53                   	push   ebx
  1029e2:	83 ec 14             	sub    esp,0x14
  1029e5:	e8 6c 3e 00 00       	call   106856 <__x86.get_pc_thunk.bx>
  1029ea:	81 c3 1e 66 00 00    	add    ebx,0x661e
  1029f0:	83 ec 08             	sub    esp,0x8
  1029f3:	6a 00                	push   0x0
  1029f5:	6a 0c                	push   0xc
  1029f7:	e8 dd e8 ff ff       	call   1012d9 <vga_set_color>
  1029fc:	83 c4 10             	add    esp,0x10
  1029ff:	83 ec 0c             	sub    esp,0xc
  102a02:	8d 83 84 e3 ff ff    	lea    eax,[ebx-0x1c7c]
  102a08:	50                   	push   eax
  102a09:	e8 4a ef ff ff       	call   101958 <vga_print>
  102a0e:	83 c4 10             	add    esp,0x10
  102a11:	83 ec 08             	sub    esp,0x8
  102a14:	6a 00                	push   0x0
  102a16:	6a 0f                	push   0xf
  102a18:	e8 bc e8 ff ff       	call   1012d9 <vga_set_color>
  102a1d:	83 c4 10             	add    esp,0x10
  102a20:	83 ec 0c             	sub    esp,0xc
  102a23:	8d 83 93 e3 ff ff    	lea    eax,[ebx-0x1c6d]
  102a29:	50                   	push   eax
  102a2a:	e8 29 ef ff ff       	call   101958 <vga_print>
  102a2f:	83 c4 10             	add    esp,0x10
  102a32:	c6 45 f2 00          	mov    BYTE PTR [ebp-0xe],0x0
  102a36:	c7 45 f4 07 00 00 00 	mov    DWORD PTR [ebp-0xc],0x7
  102a3d:	eb 35                	jmp    102a74 <page_fault_handler+0x96>
  102a3f:	8b 45 0c             	mov    eax,DWORD PTR [ebp+0xc]
  102a42:	83 e0 0f             	and    eax,0xf
  102a45:	88 45 f3             	mov    BYTE PTR [ebp-0xd],al
  102a48:	80 7d f3 09          	cmp    BYTE PTR [ebp-0xd],0x9
  102a4c:	77 0b                	ja     102a59 <page_fault_handler+0x7b>
  102a4e:	0f b6 45 f3          	movzx  eax,BYTE PTR [ebp-0xd]
  102a52:	83 c0 30             	add    eax,0x30
  102a55:	89 c1                	mov    ecx,eax
  102a57:	eb 09                	jmp    102a62 <page_fault_handler+0x84>
  102a59:	0f b6 45 f3          	movzx  eax,BYTE PTR [ebp-0xd]
  102a5d:	83 c0 37             	add    eax,0x37
  102a60:	89 c1                	mov    ecx,eax
  102a62:	8d 55 ea             	lea    edx,[ebp-0x16]
  102a65:	8b 45 f4             	mov    eax,DWORD PTR [ebp-0xc]
  102a68:	01 d0                	add    eax,edx
  102a6a:	88 08                	mov    BYTE PTR [eax],cl
  102a6c:	c1 6d 0c 04          	shr    DWORD PTR [ebp+0xc],0x4
  102a70:	83 6d f4 01          	sub    DWORD PTR [ebp-0xc],0x1
  102a74:	83 7d f4 00          	cmp    DWORD PTR [ebp-0xc],0x0
  102a78:	79 c5                	jns    102a3f <page_fault_handler+0x61>
  102a7a:	83 ec 0c             	sub    esp,0xc
  102a7d:	8d 45 ea             	lea    eax,[ebp-0x16]
  102a80:	50                   	push   eax
  102a81:	e8 d2 ee ff ff       	call   101958 <vga_print>
  102a86:	83 c4 10             	add    esp,0x10
  102a89:	83 ec 0c             	sub    esp,0xc
  102a8c:	8d 83 a8 e3 ff ff    	lea    eax,[ebx-0x1c58]
  102a92:	50                   	push   eax
  102a93:	e8 c0 ee ff ff       	call   101958 <vga_print>
  102a98:	83 c4 10             	add    esp,0x10
  102a9b:	83 ec 0c             	sub    esp,0xc
  102a9e:	8d 83 aa e3 ff ff    	lea    eax,[ebx-0x1c56]
  102aa4:	50                   	push   eax
  102aa5:	e8 ae ee ff ff       	call   101958 <vga_print>
  102aaa:	83 c4 10             	add    esp,0x10
  102aad:	8b 45 08             	mov    eax,DWORD PTR [ebp+0x8]
  102ab0:	83 e0 01             	and    eax,0x1
  102ab3:	85 c0                	test   eax,eax
  102ab5:	74 08                	je     102abf <page_fault_handler+0xe1>
  102ab7:	8d 83 bd e3 ff ff    	lea    eax,[ebx-0x1c43]
  102abd:	eb 06                	jmp    102ac5 <page_fault_handler+0xe7>
  102abf:	8d 83 c9 e3 ff ff    	lea    eax,[ebx-0x1c37]
  102ac5:	83 ec 0c             	sub    esp,0xc
  102ac8:	50                   	push   eax
  102ac9:	e8 8a ee ff ff       	call   101958 <vga_print>
  102ace:	83 c4 10             	add    esp,0x10
  102ad1:	8b 45 08             	mov    eax,DWORD PTR [ebp+0x8]
  102ad4:	83 e0 02             	and    eax,0x2
  102ad7:	85 c0                	test   eax,eax
  102ad9:	74 08                	je     102ae3 <page_fault_handler+0x105>
  102adb:	8d 83 d6 e3 ff ff    	lea    eax,[ebx-0x1c2a]
  102ae1:	eb 06                	jmp    102ae9 <page_fault_handler+0x10b>
  102ae3:	8d 83 dd e3 ff ff    	lea    eax,[ebx-0x1c23]
  102ae9:	83 ec 0c             	sub    esp,0xc
  102aec:	50                   	push   eax
  102aed:	e8 66 ee ff ff       	call   101958 <vga_print>
  102af2:	83 c4 10             	add    esp,0x10
  102af5:	8b 45 08             	mov    eax,DWORD PTR [ebp+0x8]
  102af8:	83 e0 04             	and    eax,0x4
  102afb:	85 c0                	test   eax,eax
  102afd:	74 08                	je     102b07 <page_fault_handler+0x129>
  102aff:	8d 83 e3 e3 ff ff    	lea    eax,[ebx-0x1c1d]
  102b05:	eb 06                	jmp    102b0d <page_fault_handler+0x12f>
  102b07:	8d 83 e9 e3 ff ff    	lea    eax,[ebx-0x1c17]
  102b0d:	83 ec 0c             	sub    esp,0xc
  102b10:	50                   	push   eax
  102b11:	e8 42 ee ff ff       	call   101958 <vga_print>
  102b16:	83 c4 10             	add    esp,0x10
  102b19:	f4                   	hlt
  102b1a:	eb fd                	jmp    102b19 <page_fault_handler+0x13b>

00102b1c <vmm_page_fault>:
  102b1c:	55                   	push   ebp
  102b1d:	89 e5                	mov    ebp,esp
  102b1f:	83 ec 18             	sub    esp,0x18
  102b22:	e8 33 3d 00 00       	call   10685a <__x86.get_pc_thunk.ax>
  102b27:	05 e1 64 00 00       	add    eax,0x64e1
  102b2c:	0f 20 d0             	mov    eax,cr2
  102b2f:	89 45 f4             	mov    DWORD PTR [ebp-0xc],eax
  102b32:	83 ec 08             	sub    esp,0x8
  102b35:	ff 75 f4             	push   DWORD PTR [ebp-0xc]
  102b38:	ff 75 08             	push   DWORD PTR [ebp+0x8]
  102b3b:	e8 9e fe ff ff       	call   1029de <page_fault_handler>
  102b40:	83 c4 10             	add    esp,0x10
  102b43:	90                   	nop
  102b44:	c9                   	leave
  102b45:	c3                   	ret

00102b46 <vmm_map_page>:
  102b46:	55                   	push   ebp
  102b47:	89 e5                	mov    ebp,esp
  102b49:	53                   	push   ebx
  102b4a:	83 ec 24             	sub    esp,0x24
  102b4d:	e8 04 3d 00 00       	call   106856 <__x86.get_pc_thunk.bx>
  102b52:	81 c3 b6 64 00 00    	add    ebx,0x64b6
  102b58:	8b 45 08             	mov    eax,DWORD PTR [ebp+0x8]
  102b5b:	c1 e8 16             	shr    eax,0x16
  102b5e:	89 45 ec             	mov    DWORD PTR [ebp-0x14],eax
  102b61:	8b 45 08             	mov    eax,DWORD PTR [ebp+0x8]
  102b64:	c1 e8 0c             	shr    eax,0xc
  102b67:	25 ff 03 00 00       	and    eax,0x3ff
  102b6c:	89 45 e8             	mov    DWORD PTR [ebp-0x18],eax
  102b6f:	8b 45 ec             	mov    eax,DWORD PTR [ebp-0x14]
  102b72:	8b 84 83 f8 2f 01 00 	mov    eax,DWORD PTR [ebx+eax*4+0x12ff8]
  102b79:	83 e0 01             	and    eax,0x1
  102b7c:	85 c0                	test   eax,eax
  102b7e:	75 68                	jne    102be8 <vmm_map_page+0xa2>
  102b80:	e8 31 fd ff ff       	call   1028b6 <pmm_alloc_frame>
  102b85:	89 45 e4             	mov    DWORD PTR [ebp-0x1c],eax
  102b88:	83 7d e4 00          	cmp    DWORD PTR [ebp-0x1c],0x0
  102b8c:	75 15                	jne    102ba3 <vmm_map_page+0x5d>
  102b8e:	83 ec 0c             	sub    esp,0xc
  102b91:	8d 83 f4 e3 ff ff    	lea    eax,[ebx-0x1c0c]
  102b97:	50                   	push   eax
  102b98:	e8 bb ed ff ff       	call   101958 <vga_print>
  102b9d:	83 c4 10             	add    esp,0x10
  102ba0:	f4                   	hlt
  102ba1:	eb fd                	jmp    102ba0 <vmm_map_page+0x5a>
  102ba3:	8b 45 e4             	mov    eax,DWORD PTR [ebp-0x1c]
  102ba6:	89 45 f4             	mov    DWORD PTR [ebp-0xc],eax
  102ba9:	c7 45 f0 00 00 00 00 	mov    DWORD PTR [ebp-0x10],0x0
  102bb0:	eb 19                	jmp    102bcb <vmm_map_page+0x85>
  102bb2:	8b 45 f0             	mov    eax,DWORD PTR [ebp-0x10]
  102bb5:	8d 14 85 00 00 00 00 	lea    edx,[eax*4+0x0]
  102bbc:	8b 45 f4             	mov    eax,DWORD PTR [ebp-0xc]
  102bbf:	01 d0                	add    eax,edx
  102bc1:	c7 00 00 00 00 00    	mov    DWORD PTR [eax],0x0
  102bc7:	83 45 f0 01          	add    DWORD PTR [ebp-0x10],0x1
  102bcb:	81 7d f0 ff 03 00 00 	cmp    DWORD PTR [ebp-0x10],0x3ff
  102bd2:	76 de                	jbe    102bb2 <vmm_map_page+0x6c>
  102bd4:	8b 45 e4             	mov    eax,DWORD PTR [ebp-0x1c]
  102bd7:	83 c8 03             	or     eax,0x3
  102bda:	89 c2                	mov    edx,eax
  102bdc:	8b 45 ec             	mov    eax,DWORD PTR [ebp-0x14]
  102bdf:	89 94 83 f8 2f 01 00 	mov    DWORD PTR [ebx+eax*4+0x12ff8],edx
  102be6:	eb 12                	jmp    102bfa <vmm_map_page+0xb4>
  102be8:	8b 45 ec             	mov    eax,DWORD PTR [ebp-0x14]
  102beb:	8b 84 83 f8 2f 01 00 	mov    eax,DWORD PTR [ebx+eax*4+0x12ff8]
  102bf2:	25 00 f0 ff ff       	and    eax,0xfffff000
  102bf7:	89 45 f4             	mov    DWORD PTR [ebp-0xc],eax
  102bfa:	8b 45 0c             	mov    eax,DWORD PTR [ebp+0xc]
  102bfd:	25 00 f0 ff ff       	and    eax,0xfffff000
  102c02:	89 c2                	mov    edx,eax
  102c04:	8b 45 10             	mov    eax,DWORD PTR [ebp+0x10]
  102c07:	25 ff 0f 00 00       	and    eax,0xfff
  102c0c:	09 c2                	or     edx,eax
  102c0e:	8b 45 e8             	mov    eax,DWORD PTR [ebp-0x18]
  102c11:	8d 0c 85 00 00 00 00 	lea    ecx,[eax*4+0x0]
  102c18:	8b 45 f4             	mov    eax,DWORD PTR [ebp-0xc]
  102c1b:	01 c8                	add    eax,ecx
  102c1d:	83 ca 01             	or     edx,0x1
  102c20:	89 10                	mov    DWORD PTR [eax],edx
  102c22:	90                   	nop
  102c23:	8b 5d fc             	mov    ebx,DWORD PTR [ebp-0x4]
  102c26:	c9                   	leave
  102c27:	c3                   	ret

00102c28 <vmm_unmap_page>:
  102c28:	55                   	push   ebp
  102c29:	89 e5                	mov    ebp,esp
  102c2b:	83 ec 10             	sub    esp,0x10
  102c2e:	e8 27 3c 00 00       	call   10685a <__x86.get_pc_thunk.ax>
  102c33:	05 d5 63 00 00       	add    eax,0x63d5
  102c38:	8b 55 08             	mov    edx,DWORD PTR [ebp+0x8]
  102c3b:	c1 ea 16             	shr    edx,0x16
  102c3e:	89 55 fc             	mov    DWORD PTR [ebp-0x4],edx
  102c41:	8b 55 08             	mov    edx,DWORD PTR [ebp+0x8]
  102c44:	c1 ea 0c             	shr    edx,0xc
  102c47:	81 e2 ff 03 00 00    	and    edx,0x3ff
  102c4d:	89 55 f8             	mov    DWORD PTR [ebp-0x8],edx
  102c50:	8b 55 fc             	mov    edx,DWORD PTR [ebp-0x4]
  102c53:	8b 94 90 f8 2f 01 00 	mov    edx,DWORD PTR [eax+edx*4+0x12ff8]
  102c5a:	83 e2 01             	and    edx,0x1
  102c5d:	85 d2                	test   edx,edx
  102c5f:	74 2f                	je     102c90 <vmm_unmap_page+0x68>
  102c61:	8b 55 fc             	mov    edx,DWORD PTR [ebp-0x4]
  102c64:	8b 84 90 f8 2f 01 00 	mov    eax,DWORD PTR [eax+edx*4+0x12ff8]
  102c6b:	25 00 f0 ff ff       	and    eax,0xfffff000
  102c70:	89 45 f4             	mov    DWORD PTR [ebp-0xc],eax
  102c73:	8b 45 f8             	mov    eax,DWORD PTR [ebp-0x8]
  102c76:	8d 14 85 00 00 00 00 	lea    edx,[eax*4+0x0]
  102c7d:	8b 45 f4             	mov    eax,DWORD PTR [ebp-0xc]
  102c80:	01 d0                	add    eax,edx
  102c82:	c7 00 00 00 00 00    	mov    DWORD PTR [eax],0x0
  102c88:	8b 45 08             	mov    eax,DWORD PTR [ebp+0x8]
  102c8b:	0f 01 38             	invlpg BYTE PTR [eax]
  102c8e:	eb 01                	jmp    102c91 <vmm_unmap_page+0x69>
  102c90:	90                   	nop
  102c91:	c9                   	leave
  102c92:	c3                   	ret

00102c93 <vmm_get_physical>:
  102c93:	55                   	push   ebp
  102c94:	89 e5                	mov    ebp,esp
  102c96:	83 ec 10             	sub    esp,0x10
  102c99:	e8 bc 3b 00 00       	call   10685a <__x86.get_pc_thunk.ax>
  102c9e:	05 6a 63 00 00       	add    eax,0x636a
  102ca3:	8b 55 08             	mov    edx,DWORD PTR [ebp+0x8]
  102ca6:	c1 ea 16             	shr    edx,0x16
  102ca9:	89 55 fc             	mov    DWORD PTR [ebp-0x4],edx
  102cac:	8b 55 08             	mov    edx,DWORD PTR [ebp+0x8]
  102caf:	c1 ea 0c             	shr    edx,0xc
  102cb2:	81 e2 ff 03 00 00    	and    edx,0x3ff
  102cb8:	89 55 f8             	mov    DWORD PTR [ebp-0x8],edx
  102cbb:	8b 55 fc             	mov    edx,DWORD PTR [ebp-0x4]
  102cbe:	8b 94 90 f8 2f 01 00 	mov    edx,DWORD PTR [eax+edx*4+0x12ff8]
  102cc5:	83 e2 01             	and    edx,0x1
  102cc8:	85 d2                	test   edx,edx
  102cca:	75 07                	jne    102cd3 <vmm_get_physical+0x40>
  102ccc:	b8 00 00 00 00       	mov    eax,0x0
  102cd1:	eb 53                	jmp    102d26 <vmm_get_physical+0x93>
  102cd3:	8b 55 fc             	mov    edx,DWORD PTR [ebp-0x4]
  102cd6:	8b 84 90 f8 2f 01 00 	mov    eax,DWORD PTR [eax+edx*4+0x12ff8]
  102cdd:	25 00 f0 ff ff       	and    eax,0xfffff000
  102ce2:	89 45 f4             	mov    DWORD PTR [ebp-0xc],eax
  102ce5:	8b 45 f8             	mov    eax,DWORD PTR [ebp-0x8]
  102ce8:	8d 14 85 00 00 00 00 	lea    edx,[eax*4+0x0]
  102cef:	8b 45 f4             	mov    eax,DWORD PTR [ebp-0xc]
  102cf2:	01 d0                	add    eax,edx
  102cf4:	8b 00                	mov    eax,DWORD PTR [eax]
  102cf6:	83 e0 01             	and    eax,0x1
  102cf9:	85 c0                	test   eax,eax
  102cfb:	75 07                	jne    102d04 <vmm_get_physical+0x71>
  102cfd:	b8 00 00 00 00       	mov    eax,0x0
  102d02:	eb 22                	jmp    102d26 <vmm_get_physical+0x93>
  102d04:	8b 45 f8             	mov    eax,DWORD PTR [ebp-0x8]
  102d07:	8d 14 85 00 00 00 00 	lea    edx,[eax*4+0x0]
  102d0e:	8b 45 f4             	mov    eax,DWORD PTR [ebp-0xc]
  102d11:	01 d0                	add    eax,edx
  102d13:	8b 00                	mov    eax,DWORD PTR [eax]
  102d15:	25 00 f0 ff ff       	and    eax,0xfffff000
  102d1a:	89 c2                	mov    edx,eax
  102d1c:	8b 45 08             	mov    eax,DWORD PTR [ebp+0x8]
  102d1f:	25 ff 0f 00 00       	and    eax,0xfff
  102d24:	09 d0                	or     eax,edx
  102d26:	c9                   	leave
  102d27:	c3                   	ret

00102d28 <vmm_init>:
  102d28:	55                   	push   ebp
  102d29:	89 e5                	mov    ebp,esp
  102d2b:	53                   	push   ebx
  102d2c:	83 ec 24             	sub    esp,0x24
  102d2f:	e8 22 3b 00 00       	call   106856 <__x86.get_pc_thunk.bx>
  102d34:	81 c3 d4 62 00 00    	add    ebx,0x62d4
  102d3a:	c7 45 f4 00 00 00 00 	mov    DWORD PTR [ebp-0xc],0x0
  102d41:	eb 12                	jmp    102d55 <vmm_init+0x2d>
  102d43:	8b 45 f4             	mov    eax,DWORD PTR [ebp-0xc]
  102d46:	c7 84 83 f8 2f 01 00 	mov    DWORD PTR [ebx+eax*4+0x12ff8],0x0
  102d4d:	00 00 00 00 
  102d51:	83 45 f4 01          	add    DWORD PTR [ebp-0xc],0x1
  102d55:	81 7d f4 ff 03 00 00 	cmp    DWORD PTR [ebp-0xc],0x3ff
  102d5c:	76 e5                	jbe    102d43 <vmm_init+0x1b>
  102d5e:	c7 45 f0 00 00 00 00 	mov    DWORD PTR [ebp-0x10],0x0
  102d65:	eb 1a                	jmp    102d81 <vmm_init+0x59>
  102d67:	83 ec 04             	sub    esp,0x4
  102d6a:	6a 03                	push   0x3
  102d6c:	ff 75 f0             	push   DWORD PTR [ebp-0x10]
  102d6f:	ff 75 f0             	push   DWORD PTR [ebp-0x10]
  102d72:	e8 cf fd ff ff       	call   102b46 <vmm_map_page>
  102d77:	83 c4 10             	add    esp,0x10
  102d7a:	81 45 f0 00 10 00 00 	add    DWORD PTR [ebp-0x10],0x1000
  102d81:	81 7d f0 ff ff 3f 00 	cmp    DWORD PTR [ebp-0x10],0x3fffff
  102d88:	76 dd                	jbe    102d67 <vmm_init+0x3f>
  102d8a:	8d 83 f8 2f 01 00    	lea    eax,[ebx+0x12ff8]
  102d90:	0f 22 d8             	mov    cr3,eax
  102d93:	0f 20 c0             	mov    eax,cr0
  102d96:	89 45 e4             	mov    DWORD PTR [ebp-0x1c],eax
  102d99:	81 4d e4 00 00 00 80 	or     DWORD PTR [ebp-0x1c],0x80000000
  102da0:	8b 45 e4             	mov    eax,DWORD PTR [ebp-0x1c]
  102da3:	0f 22 c0             	mov    cr0,eax
  102da6:	83 ec 08             	sub    esp,0x8
  102da9:	6a 00                	push   0x0
  102dab:	6a 0b                	push   0xb
  102dad:	e8 27 e5 ff ff       	call   1012d9 <vga_set_color>
  102db2:	83 c4 10             	add    esp,0x10
  102db5:	83 ec 0c             	sub    esp,0xc
  102db8:	8d 83 1f e4 ff ff    	lea    eax,[ebx-0x1be1]
  102dbe:	50                   	push   eax
  102dbf:	e8 94 eb ff ff       	call   101958 <vga_print>
  102dc4:	83 c4 10             	add    esp,0x10
  102dc7:	83 ec 08             	sub    esp,0x8
  102dca:	6a 00                	push   0x0
  102dcc:	6a 0f                	push   0xf
  102dce:	e8 06 e5 ff ff       	call   1012d9 <vga_set_color>
  102dd3:	83 c4 10             	add    esp,0x10
  102dd6:	83 ec 0c             	sub    esp,0xc
  102dd9:	8d 83 38 e4 ff ff    	lea    eax,[ebx-0x1bc8]
  102ddf:	50                   	push   eax
  102de0:	e8 73 eb ff ff       	call   101958 <vga_print>
  102de5:	83 c4 10             	add    esp,0x10
  102de8:	83 ec 0c             	sub    esp,0xc
  102deb:	8d 83 69 e4 ff ff    	lea    eax,[ebx-0x1b97]
  102df1:	50                   	push   eax
  102df2:	e8 61 eb ff ff       	call   101958 <vga_print>
  102df7:	83 c4 10             	add    esp,0x10
  102dfa:	8d 83 f8 2f 01 00    	lea    eax,[ebx+0x12ff8]
  102e00:	89 45 ec             	mov    DWORD PTR [ebp-0x14],eax
  102e03:	c6 45 e2 00          	mov    BYTE PTR [ebp-0x1e],0x0
  102e07:	c7 45 e8 07 00 00 00 	mov    DWORD PTR [ebp-0x18],0x7
  102e0e:	eb 35                	jmp    102e45 <vmm_init+0x11d>
  102e10:	8b 45 ec             	mov    eax,DWORD PTR [ebp-0x14]
  102e13:	83 e0 0f             	and    eax,0xf
  102e16:	88 45 e3             	mov    BYTE PTR [ebp-0x1d],al
  102e19:	80 7d e3 09          	cmp    BYTE PTR [ebp-0x1d],0x9
  102e1d:	77 0b                	ja     102e2a <vmm_init+0x102>
  102e1f:	0f b6 45 e3          	movzx  eax,BYTE PTR [ebp-0x1d]
  102e23:	83 c0 30             	add    eax,0x30
  102e26:	89 c1                	mov    ecx,eax
  102e28:	eb 09                	jmp    102e33 <vmm_init+0x10b>
  102e2a:	0f b6 45 e3          	movzx  eax,BYTE PTR [ebp-0x1d]
  102e2e:	83 c0 37             	add    eax,0x37
  102e31:	89 c1                	mov    ecx,eax
  102e33:	8d 55 da             	lea    edx,[ebp-0x26]
  102e36:	8b 45 e8             	mov    eax,DWORD PTR [ebp-0x18]
  102e39:	01 d0                	add    eax,edx
  102e3b:	88 08                	mov    BYTE PTR [eax],cl
  102e3d:	c1 6d ec 04          	shr    DWORD PTR [ebp-0x14],0x4
  102e41:	83 6d e8 01          	sub    DWORD PTR [ebp-0x18],0x1
  102e45:	83 7d e8 00          	cmp    DWORD PTR [ebp-0x18],0x0
  102e49:	79 c5                	jns    102e10 <vmm_init+0xe8>
  102e4b:	83 ec 0c             	sub    esp,0xc
  102e4e:	8d 45 da             	lea    eax,[ebp-0x26]
  102e51:	50                   	push   eax
  102e52:	e8 01 eb ff ff       	call   101958 <vga_print>
  102e57:	83 c4 10             	add    esp,0x10
  102e5a:	83 ec 0c             	sub    esp,0xc
  102e5d:	8d 83 a8 e3 ff ff    	lea    eax,[ebx-0x1c58]
  102e63:	50                   	push   eax
  102e64:	e8 ef ea ff ff       	call   101958 <vga_print>
  102e69:	83 c4 10             	add    esp,0x10
  102e6c:	90                   	nop
  102e6d:	8b 5d fc             	mov    ebx,DWORD PTR [ebp-0x4]
  102e70:	c9                   	leave
  102e71:	c3                   	ret

00102e72 <heap_panic>:
  102e72:	55                   	push   ebp
  102e73:	89 e5                	mov    ebp,esp
  102e75:	53                   	push   ebx
  102e76:	83 ec 04             	sub    esp,0x4
  102e79:	e8 d8 39 00 00       	call   106856 <__x86.get_pc_thunk.bx>
  102e7e:	81 c3 8a 61 00 00    	add    ebx,0x618a
  102e84:	83 ec 08             	sub    esp,0x8
  102e87:	6a 00                	push   0x0
  102e89:	6a 0c                	push   0xc
  102e8b:	e8 49 e4 ff ff       	call   1012d9 <vga_set_color>
  102e90:	83 c4 10             	add    esp,0x10
  102e93:	83 ec 0c             	sub    esp,0xc
  102e96:	8d 83 84 e4 ff ff    	lea    eax,[ebx-0x1b7c]
  102e9c:	50                   	push   eax
  102e9d:	e8 b6 ea ff ff       	call   101958 <vga_print>
  102ea2:	83 c4 10             	add    esp,0x10
  102ea5:	83 ec 0c             	sub    esp,0xc
  102ea8:	ff 75 08             	push   DWORD PTR [ebp+0x8]
  102eab:	e8 a8 ea ff ff       	call   101958 <vga_print>
  102eb0:	83 c4 10             	add    esp,0x10
  102eb3:	83 ec 0c             	sub    esp,0xc
  102eb6:	8d 83 93 e4 ff ff    	lea    eax,[ebx-0x1b6d]
  102ebc:	50                   	push   eax
  102ebd:	e8 96 ea ff ff       	call   101958 <vga_print>
  102ec2:	83 c4 10             	add    esp,0x10
  102ec5:	f4                   	hlt
  102ec6:	eb fd                	jmp    102ec5 <heap_panic+0x53>

00102ec8 <heap_init>:
  102ec8:	55                   	push   ebp
  102ec9:	89 e5                	mov    ebp,esp
  102ecb:	53                   	push   ebx
  102ecc:	83 ec 14             	sub    esp,0x14
  102ecf:	e8 82 39 00 00       	call   106856 <__x86.get_pc_thunk.bx>
  102ed4:	81 c3 34 61 00 00    	add    ebx,0x6134
  102eda:	c7 45 f4 00 00 00 01 	mov    DWORD PTR [ebp-0xc],0x1000000
  102ee1:	c7 45 f0 00 00 00 00 	mov    DWORD PTR [ebp-0x10],0x0
  102ee8:	eb 46                	jmp    102f30 <heap_init+0x68>
  102eea:	e8 c7 f9 ff ff       	call   1028b6 <pmm_alloc_frame>
  102eef:	89 45 e8             	mov    DWORD PTR [ebp-0x18],eax
  102ef2:	83 7d e8 00          	cmp    DWORD PTR [ebp-0x18],0x0
  102ef6:	75 17                	jne    102f0f <heap_init+0x47>
  102ef8:	83 ec 0c             	sub    esp,0xc
  102efb:	8d 83 98 e4 ff ff    	lea    eax,[ebx-0x1b68]
  102f01:	50                   	push   eax
  102f02:	e8 6b ff ff ff       	call   102e72 <heap_panic>
  102f07:	83 c4 10             	add    esp,0x10
  102f0a:	e9 a9 00 00 00       	jmp    102fb8 <heap_init+0xf0>
  102f0f:	83 ec 04             	sub    esp,0x4
  102f12:	6a 03                	push   0x3
  102f14:	ff 75 e8             	push   DWORD PTR [ebp-0x18]
  102f17:	ff 75 f4             	push   DWORD PTR [ebp-0xc]
  102f1a:	e8 27 fc ff ff       	call   102b46 <vmm_map_page>
  102f1f:	83 c4 10             	add    esp,0x10
  102f22:	81 45 f4 00 10 00 00 	add    DWORD PTR [ebp-0xc],0x1000
  102f29:	81 45 f0 00 10 00 00 	add    DWORD PTR [ebp-0x10],0x1000
  102f30:	81 7d f0 ff ff 0f 00 	cmp    DWORD PTR [ebp-0x10],0xfffff
  102f37:	76 b1                	jbe    102eea <heap_init+0x22>
  102f39:	c7 83 f8 ff ff ff 00 	mov    DWORD PTR [ebx-0x8],0x1100000
  102f40:	00 10 01 
  102f43:	c7 45 ec 00 00 00 01 	mov    DWORD PTR [ebp-0x14],0x1000000
  102f4a:	8b 45 ec             	mov    eax,DWORD PTR [ebp-0x14]
  102f4d:	c7 00 42 ee ff c0    	mov    DWORD PTR [eax],0xc0ffee42
  102f53:	8b 45 ec             	mov    eax,DWORD PTR [ebp-0x14]
  102f56:	c7 40 04 f4 ff 0f 00 	mov    DWORD PTR [eax+0x4],0xffff4
  102f5d:	8b 45 ec             	mov    eax,DWORD PTR [ebp-0x14]
  102f60:	c6 40 08 01          	mov    BYTE PTR [eax+0x8],0x1
  102f64:	83 ec 08             	sub    esp,0x8
  102f67:	6a 00                	push   0x0
  102f69:	6a 0b                	push   0xb
  102f6b:	e8 69 e3 ff ff       	call   1012d9 <vga_set_color>
  102f70:	83 c4 10             	add    esp,0x10
  102f73:	83 ec 0c             	sub    esp,0xc
  102f76:	8d 83 c4 e4 ff ff    	lea    eax,[ebx-0x1b3c]
  102f7c:	50                   	push   eax
  102f7d:	e8 d6 e9 ff ff       	call   101958 <vga_print>
  102f82:	83 c4 10             	add    esp,0x10
  102f85:	83 ec 08             	sub    esp,0x8
  102f88:	6a 00                	push   0x0
  102f8a:	6a 0f                	push   0xf
  102f8c:	e8 48 e3 ff ff       	call   1012d9 <vga_set_color>
  102f91:	83 c4 10             	add    esp,0x10
  102f94:	83 ec 0c             	sub    esp,0xc
  102f97:	8d 83 d8 e4 ff ff    	lea    eax,[ebx-0x1b28]
  102f9d:	50                   	push   eax
  102f9e:	e8 b5 e9 ff ff       	call   101958 <vga_print>
  102fa3:	83 c4 10             	add    esp,0x10
  102fa6:	83 ec 0c             	sub    esp,0xc
  102fa9:	8d 83 f5 e4 ff ff    	lea    eax,[ebx-0x1b0b]
  102faf:	50                   	push   eax
  102fb0:	e8 a3 e9 ff ff       	call   101958 <vga_print>
  102fb5:	83 c4 10             	add    esp,0x10
  102fb8:	8b 5d fc             	mov    ebx,DWORD PTR [ebp-0x4]
  102fbb:	c9                   	leave
  102fbc:	c3                   	ret

00102fbd <kmalloc>:
  102fbd:	55                   	push   ebp
  102fbe:	89 e5                	mov    ebp,esp
  102fc0:	53                   	push   ebx
  102fc1:	83 ec 14             	sub    esp,0x14
  102fc4:	e8 8d 38 00 00       	call   106856 <__x86.get_pc_thunk.bx>
  102fc9:	81 c3 3f 60 00 00    	add    ebx,0x603f
  102fcf:	83 7d 08 00          	cmp    DWORD PTR [ebp+0x8],0x0
  102fd3:	75 0a                	jne    102fdf <kmalloc+0x22>
  102fd5:	b8 00 00 00 00       	mov    eax,0x0
  102fda:	e9 05 01 00 00       	jmp    1030e4 <kmalloc+0x127>
  102fdf:	8b 45 08             	mov    eax,DWORD PTR [ebp+0x8]
  102fe2:	83 c0 03             	add    eax,0x3
  102fe5:	83 e0 fc             	and    eax,0xfffffffc
  102fe8:	89 45 08             	mov    DWORD PTR [ebp+0x8],eax
  102feb:	c7 45 f4 00 00 00 01 	mov    DWORD PTR [ebp-0xc],0x1000000
  102ff2:	e9 a7 00 00 00       	jmp    10309e <kmalloc+0xe1>
  102ff7:	8b 45 f4             	mov    eax,DWORD PTR [ebp-0xc]
  102ffa:	8b 00                	mov    eax,DWORD PTR [eax]
  102ffc:	3d 42 ee ff c0       	cmp    eax,0xc0ffee42
  103001:	74 1c                	je     10301f <kmalloc+0x62>
  103003:	83 ec 0c             	sub    esp,0xc
  103006:	8d 83 0c e5 ff ff    	lea    eax,[ebx-0x1af4]
  10300c:	50                   	push   eax
  10300d:	e8 60 fe ff ff       	call   102e72 <heap_panic>
  103012:	83 c4 10             	add    esp,0x10
  103015:	b8 00 00 00 00       	mov    eax,0x0
  10301a:	e9 c5 00 00 00       	jmp    1030e4 <kmalloc+0x127>
  10301f:	8b 45 f4             	mov    eax,DWORD PTR [ebp-0xc]
  103022:	0f b6 40 08          	movzx  eax,BYTE PTR [eax+0x8]
  103026:	84 c0                	test   al,al
  103028:	74 63                	je     10308d <kmalloc+0xd0>
  10302a:	8b 45 f4             	mov    eax,DWORD PTR [ebp-0xc]
  10302d:	8b 40 04             	mov    eax,DWORD PTR [eax+0x4]
  103030:	3b 45 08             	cmp    eax,DWORD PTR [ebp+0x8]
  103033:	72 58                	jb     10308d <kmalloc+0xd0>
  103035:	8b 45 f4             	mov    eax,DWORD PTR [ebp-0xc]
  103038:	8b 50 04             	mov    edx,DWORD PTR [eax+0x4]
  10303b:	8b 45 08             	mov    eax,DWORD PTR [ebp+0x8]
  10303e:	83 c0 1c             	add    eax,0x1c
  103041:	39 c2                	cmp    edx,eax
  103043:	72 39                	jb     10307e <kmalloc+0xc1>
  103045:	8b 55 f4             	mov    edx,DWORD PTR [ebp-0xc]
  103048:	8b 45 08             	mov    eax,DWORD PTR [ebp+0x8]
  10304b:	01 d0                	add    eax,edx
  10304d:	83 c0 0c             	add    eax,0xc
  103050:	89 45 f0             	mov    DWORD PTR [ebp-0x10],eax
  103053:	8b 45 f0             	mov    eax,DWORD PTR [ebp-0x10]
  103056:	c7 00 42 ee ff c0    	mov    DWORD PTR [eax],0xc0ffee42
  10305c:	8b 45 f4             	mov    eax,DWORD PTR [ebp-0xc]
  10305f:	8b 40 04             	mov    eax,DWORD PTR [eax+0x4]
  103062:	2b 45 08             	sub    eax,DWORD PTR [ebp+0x8]
  103065:	8d 50 f4             	lea    edx,[eax-0xc]
  103068:	8b 45 f0             	mov    eax,DWORD PTR [ebp-0x10]
  10306b:	89 50 04             	mov    DWORD PTR [eax+0x4],edx
  10306e:	8b 45 f0             	mov    eax,DWORD PTR [ebp-0x10]
  103071:	c6 40 08 01          	mov    BYTE PTR [eax+0x8],0x1
  103075:	8b 45 f4             	mov    eax,DWORD PTR [ebp-0xc]
  103078:	8b 55 08             	mov    edx,DWORD PTR [ebp+0x8]
  10307b:	89 50 04             	mov    DWORD PTR [eax+0x4],edx
  10307e:	8b 45 f4             	mov    eax,DWORD PTR [ebp-0xc]
  103081:	c6 40 08 00          	mov    BYTE PTR [eax+0x8],0x0
  103085:	8b 45 f4             	mov    eax,DWORD PTR [ebp-0xc]
  103088:	83 c0 0c             	add    eax,0xc
  10308b:	eb 57                	jmp    1030e4 <kmalloc+0x127>
  10308d:	8b 45 f4             	mov    eax,DWORD PTR [ebp-0xc]
  103090:	8b 50 04             	mov    edx,DWORD PTR [eax+0x4]
  103093:	8b 45 f4             	mov    eax,DWORD PTR [ebp-0xc]
  103096:	01 d0                	add    eax,edx
  103098:	83 c0 0c             	add    eax,0xc
  10309b:	89 45 f4             	mov    DWORD PTR [ebp-0xc],eax
  10309e:	8b 55 f4             	mov    edx,DWORD PTR [ebp-0xc]
  1030a1:	8b 83 f8 ff ff ff    	mov    eax,DWORD PTR [ebx-0x8]
  1030a7:	39 c2                	cmp    edx,eax
  1030a9:	0f 82 48 ff ff ff    	jb     102ff7 <kmalloc+0x3a>
  1030af:	83 ec 08             	sub    esp,0x8
  1030b2:	6a 00                	push   0x0
  1030b4:	6a 0c                	push   0xc
  1030b6:	e8 1e e2 ff ff       	call   1012d9 <vga_set_color>
  1030bb:	83 c4 10             	add    esp,0x10
  1030be:	83 ec 0c             	sub    esp,0xc
  1030c1:	8d 83 2c e5 ff ff    	lea    eax,[ebx-0x1ad4]
  1030c7:	50                   	push   eax
  1030c8:	e8 8b e8 ff ff       	call   101958 <vga_print>
  1030cd:	83 c4 10             	add    esp,0x10
  1030d0:	83 ec 08             	sub    esp,0x8
  1030d3:	6a 00                	push   0x0
  1030d5:	6a 0f                	push   0xf
  1030d7:	e8 fd e1 ff ff       	call   1012d9 <vga_set_color>
  1030dc:	83 c4 10             	add    esp,0x10
  1030df:	b8 00 00 00 00       	mov    eax,0x0
  1030e4:	8b 5d fc             	mov    ebx,DWORD PTR [ebp-0x4]
  1030e7:	c9                   	leave
  1030e8:	c3                   	ret

001030e9 <kfree>:
  1030e9:	55                   	push   ebp
  1030ea:	89 e5                	mov    ebp,esp
  1030ec:	83 ec 18             	sub    esp,0x18
  1030ef:	e8 66 37 00 00       	call   10685a <__x86.get_pc_thunk.ax>
  1030f4:	05 14 5f 00 00       	add    eax,0x5f14
  1030f9:	83 7d 08 00          	cmp    DWORD PTR [ebp+0x8],0x0
  1030fd:	0f 84 9e 00 00 00    	je     1031a1 <kfree+0xb8>
  103103:	8b 55 08             	mov    edx,DWORD PTR [ebp+0x8]
  103106:	83 ea 0c             	sub    edx,0xc
  103109:	89 55 f4             	mov    DWORD PTR [ebp-0xc],edx
  10310c:	8b 55 f4             	mov    edx,DWORD PTR [ebp-0xc]
  10310f:	8b 12                	mov    edx,DWORD PTR [edx]
  103111:	81 fa 42 ee ff c0    	cmp    edx,0xc0ffee42
  103117:	74 14                	je     10312d <kfree+0x44>
  103119:	83 ec 0c             	sub    esp,0xc
  10311c:	8d 80 4b e5 ff ff    	lea    eax,[eax-0x1ab5]
  103122:	50                   	push   eax
  103123:	e8 4a fd ff ff       	call   102e72 <heap_panic>
  103128:	83 c4 10             	add    esp,0x10
  10312b:	eb 75                	jmp    1031a2 <kfree+0xb9>
  10312d:	8b 55 f4             	mov    edx,DWORD PTR [ebp-0xc]
  103130:	0f b6 52 08          	movzx  edx,BYTE PTR [edx+0x8]
  103134:	84 d2                	test   dl,dl
  103136:	74 14                	je     10314c <kfree+0x63>
  103138:	83 ec 0c             	sub    esp,0xc
  10313b:	8d 80 62 e5 ff ff    	lea    eax,[eax-0x1a9e]
  103141:	50                   	push   eax
  103142:	e8 2b fd ff ff       	call   102e72 <heap_panic>
  103147:	83 c4 10             	add    esp,0x10
  10314a:	eb 56                	jmp    1031a2 <kfree+0xb9>
  10314c:	8b 55 f4             	mov    edx,DWORD PTR [ebp-0xc]
  10314f:	c6 42 08 01          	mov    BYTE PTR [edx+0x8],0x1
  103153:	8b 55 f4             	mov    edx,DWORD PTR [ebp-0xc]
  103156:	8b 4a 04             	mov    ecx,DWORD PTR [edx+0x4]
  103159:	8b 55 f4             	mov    edx,DWORD PTR [ebp-0xc]
  10315c:	01 ca                	add    edx,ecx
  10315e:	83 c2 0c             	add    edx,0xc
  103161:	89 55 f0             	mov    DWORD PTR [ebp-0x10],edx
  103164:	8b 55 f0             	mov    edx,DWORD PTR [ebp-0x10]
  103167:	8b 80 f8 ff ff ff    	mov    eax,DWORD PTR [eax-0x8]
  10316d:	39 c2                	cmp    edx,eax
  10316f:	73 31                	jae    1031a2 <kfree+0xb9>
  103171:	8b 45 f0             	mov    eax,DWORD PTR [ebp-0x10]
  103174:	8b 00                	mov    eax,DWORD PTR [eax]
  103176:	3d 42 ee ff c0       	cmp    eax,0xc0ffee42
  10317b:	75 25                	jne    1031a2 <kfree+0xb9>
  10317d:	8b 45 f0             	mov    eax,DWORD PTR [ebp-0x10]
  103180:	0f b6 40 08          	movzx  eax,BYTE PTR [eax+0x8]
  103184:	84 c0                	test   al,al
  103186:	74 1a                	je     1031a2 <kfree+0xb9>
  103188:	8b 45 f4             	mov    eax,DWORD PTR [ebp-0xc]
  10318b:	8b 50 04             	mov    edx,DWORD PTR [eax+0x4]
  10318e:	8b 45 f0             	mov    eax,DWORD PTR [ebp-0x10]
  103191:	8b 40 04             	mov    eax,DWORD PTR [eax+0x4]
  103194:	01 d0                	add    eax,edx
  103196:	8d 50 0c             	lea    edx,[eax+0xc]
  103199:	8b 45 f4             	mov    eax,DWORD PTR [ebp-0xc]
  10319c:	89 50 04             	mov    DWORD PTR [eax+0x4],edx
  10319f:	eb 01                	jmp    1031a2 <kfree+0xb9>
  1031a1:	90                   	nop
  1031a2:	c9                   	leave
  1031a3:	c3                   	ret

001031a4 <heap_free_bytes>:
  1031a4:	55                   	push   ebp
  1031a5:	89 e5                	mov    ebp,esp
  1031a7:	83 ec 10             	sub    esp,0x10
  1031aa:	e8 af 36 00 00       	call   10685e <__x86.get_pc_thunk.dx>
  1031af:	81 c2 59 5e 00 00    	add    edx,0x5e59
  1031b5:	c7 45 fc 00 00 00 00 	mov    DWORD PTR [ebp-0x4],0x0
  1031bc:	c7 45 f8 00 00 00 01 	mov    DWORD PTR [ebp-0x8],0x1000000
  1031c3:	eb 31                	jmp    1031f6 <heap_free_bytes+0x52>
  1031c5:	8b 45 f8             	mov    eax,DWORD PTR [ebp-0x8]
  1031c8:	8b 00                	mov    eax,DWORD PTR [eax]
  1031ca:	3d 42 ee ff c0       	cmp    eax,0xc0ffee42
  1031cf:	75 34                	jne    103205 <heap_free_bytes+0x61>
  1031d1:	8b 45 f8             	mov    eax,DWORD PTR [ebp-0x8]
  1031d4:	0f b6 40 08          	movzx  eax,BYTE PTR [eax+0x8]
  1031d8:	84 c0                	test   al,al
  1031da:	74 09                	je     1031e5 <heap_free_bytes+0x41>
  1031dc:	8b 45 f8             	mov    eax,DWORD PTR [ebp-0x8]
  1031df:	8b 40 04             	mov    eax,DWORD PTR [eax+0x4]
  1031e2:	01 45 fc             	add    DWORD PTR [ebp-0x4],eax
  1031e5:	8b 45 f8             	mov    eax,DWORD PTR [ebp-0x8]
  1031e8:	8b 48 04             	mov    ecx,DWORD PTR [eax+0x4]
  1031eb:	8b 45 f8             	mov    eax,DWORD PTR [ebp-0x8]
  1031ee:	01 c8                	add    eax,ecx
  1031f0:	83 c0 0c             	add    eax,0xc
  1031f3:	89 45 f8             	mov    DWORD PTR [ebp-0x8],eax
  1031f6:	8b 4d f8             	mov    ecx,DWORD PTR [ebp-0x8]
  1031f9:	8b 82 f8 ff ff ff    	mov    eax,DWORD PTR [edx-0x8]
  1031ff:	39 c1                	cmp    ecx,eax
  103201:	72 c2                	jb     1031c5 <heap_free_bytes+0x21>
  103203:	eb 01                	jmp    103206 <heap_free_bytes+0x62>
  103205:	90                   	nop
  103206:	8b 45 fc             	mov    eax,DWORD PTR [ebp-0x4]
  103209:	c9                   	leave
  10320a:	c3                   	ret

0010320b <outb>:
  10320b:	55                   	push   ebp
  10320c:	89 e5                	mov    ebp,esp
  10320e:	83 ec 08             	sub    esp,0x8
  103211:	e8 44 36 00 00       	call   10685a <__x86.get_pc_thunk.ax>
  103216:	05 f2 5d 00 00       	add    eax,0x5df2
  10321b:	8b 55 08             	mov    edx,DWORD PTR [ebp+0x8]
  10321e:	8b 45 0c             	mov    eax,DWORD PTR [ebp+0xc]
  103221:	66 89 55 fc          	mov    WORD PTR [ebp-0x4],dx
  103225:	88 45 f8             	mov    BYTE PTR [ebp-0x8],al
  103228:	0f b7 55 fc          	movzx  edx,WORD PTR [ebp-0x4]
  10322c:	0f b6 45 f8          	movzx  eax,BYTE PTR [ebp-0x8]
  103230:	ee                   	out    dx,al
  103231:	90                   	nop
  103232:	c9                   	leave
  103233:	c3                   	ret

00103234 <inb>:
  103234:	55                   	push   ebp
  103235:	89 e5                	mov    ebp,esp
  103237:	83 ec 14             	sub    esp,0x14
  10323a:	e8 1b 36 00 00       	call   10685a <__x86.get_pc_thunk.ax>
  10323f:	05 c9 5d 00 00       	add    eax,0x5dc9
  103244:	8b 45 08             	mov    eax,DWORD PTR [ebp+0x8]
  103247:	66 89 45 ec          	mov    WORD PTR [ebp-0x14],ax
  10324b:	0f b7 45 ec          	movzx  eax,WORD PTR [ebp-0x14]
  10324f:	89 c2                	mov    edx,eax
  103251:	ec                   	in     al,dx
  103252:	88 45 ff             	mov    BYTE PTR [ebp-0x1],al
  103255:	0f b6 45 ff          	movzx  eax,BYTE PTR [ebp-0x1]
  103259:	c9                   	leave
  10325a:	c3                   	ret

0010325b <irq_install>:
  10325b:	55                   	push   ebp
  10325c:	89 e5                	mov    ebp,esp
  10325e:	83 ec 04             	sub    esp,0x4
  103261:	e8 f4 35 00 00       	call   10685a <__x86.get_pc_thunk.ax>
  103266:	05 a2 5d 00 00       	add    eax,0x5da2
  10326b:	8b 55 08             	mov    edx,DWORD PTR [ebp+0x8]
  10326e:	88 55 fc             	mov    BYTE PTR [ebp-0x4],dl
  103271:	80 7d fc 0f          	cmp    BYTE PTR [ebp-0x4],0xf
  103275:	77 0e                	ja     103285 <irq_install+0x2a>
  103277:	0f b6 55 fc          	movzx  edx,BYTE PTR [ebp-0x4]
  10327b:	8b 4d 0c             	mov    ecx,DWORD PTR [ebp+0xc]
  10327e:	89 8c 90 18 40 01 00 	mov    DWORD PTR [eax+edx*4+0x14018],ecx
  103285:	90                   	nop
  103286:	c9                   	leave
  103287:	c3                   	ret

00103288 <timer_callback>:
  103288:	55                   	push   ebp
  103289:	89 e5                	mov    ebp,esp
  10328b:	e8 ca 35 00 00       	call   10685a <__x86.get_pc_thunk.ax>
  103290:	05 78 5d 00 00       	add    eax,0x5d78
  103295:	8b 90 f8 3f 01 00    	mov    edx,DWORD PTR [eax+0x13ff8]
  10329b:	83 c2 01             	add    edx,0x1
  10329e:	89 90 f8 3f 01 00    	mov    DWORD PTR [eax+0x13ff8],edx
  1032a4:	90                   	nop
  1032a5:	5d                   	pop    ebp
  1032a6:	c3                   	ret

001032a7 <irq_handler>:
  1032a7:	55                   	push   ebp
  1032a8:	89 e5                	mov    ebp,esp
  1032aa:	53                   	push   ebx
  1032ab:	83 ec 04             	sub    esp,0x4
  1032ae:	e8 a3 35 00 00       	call   106856 <__x86.get_pc_thunk.bx>
  1032b3:	81 c3 55 5d 00 00    	add    ebx,0x5d55
  1032b9:	83 7d 08 07          	cmp    DWORD PTR [ebp+0x8],0x7
  1032bd:	76 0f                	jbe    1032ce <irq_handler+0x27>
  1032bf:	6a 20                	push   0x20
  1032c1:	68 a0 00 00 00       	push   0xa0
  1032c6:	e8 40 ff ff ff       	call   10320b <outb>
  1032cb:	83 c4 08             	add    esp,0x8
  1032ce:	6a 20                	push   0x20
  1032d0:	6a 20                	push   0x20
  1032d2:	e8 34 ff ff ff       	call   10320b <outb>
  1032d7:	83 c4 08             	add    esp,0x8
  1032da:	83 7d 08 0f          	cmp    DWORD PTR [ebp+0x8],0xf
  1032de:	77 1a                	ja     1032fa <irq_handler+0x53>
  1032e0:	8b 45 08             	mov    eax,DWORD PTR [ebp+0x8]
  1032e3:	8b 84 83 18 40 01 00 	mov    eax,DWORD PTR [ebx+eax*4+0x14018]
  1032ea:	85 c0                	test   eax,eax
  1032ec:	74 0c                	je     1032fa <irq_handler+0x53>
  1032ee:	8b 45 08             	mov    eax,DWORD PTR [ebp+0x8]
  1032f1:	8b 84 83 18 40 01 00 	mov    eax,DWORD PTR [ebx+eax*4+0x14018]
  1032f8:	ff d0                	call   eax
  1032fa:	90                   	nop
  1032fb:	8b 5d fc             	mov    ebx,DWORD PTR [ebp-0x4]
  1032fe:	c9                   	leave
  1032ff:	c3                   	ret

00103300 <pit_init>:
  103300:	55                   	push   ebp
  103301:	89 e5                	mov    ebp,esp
  103303:	53                   	push   ebx
  103304:	83 ec 14             	sub    esp,0x14
  103307:	e8 4a 35 00 00       	call   106856 <__x86.get_pc_thunk.bx>
  10330c:	81 c3 fc 5c 00 00    	add    ebx,0x5cfc
  103312:	c7 45 f4 00 00 00 00 	mov    DWORD PTR [ebp-0xc],0x0
  103319:	eb 12                	jmp    10332d <pit_init+0x2d>
  10331b:	8b 45 f4             	mov    eax,DWORD PTR [ebp-0xc]
  10331e:	c7 84 83 18 40 01 00 	mov    DWORD PTR [ebx+eax*4+0x14018],0x0
  103325:	00 00 00 00 
  103329:	83 45 f4 01          	add    DWORD PTR [ebp-0xc],0x1
  10332d:	83 7d f4 0f          	cmp    DWORD PTR [ebp-0xc],0xf
  103331:	7e e8                	jle    10331b <pit_init+0x1b>
  103333:	8d 83 80 a2 ff ff    	lea    eax,[ebx-0x5d80]
  103339:	50                   	push   eax
  10333a:	6a 00                	push   0x0
  10333c:	e8 1a ff ff ff       	call   10325b <irq_install>
  103341:	83 c4 08             	add    esp,0x8
  103344:	6a 36                	push   0x36
  103346:	6a 43                	push   0x43
  103348:	e8 be fe ff ff       	call   10320b <outb>
  10334d:	83 c4 08             	add    esp,0x8
  103350:	68 9b 00 00 00       	push   0x9b
  103355:	6a 40                	push   0x40
  103357:	e8 af fe ff ff       	call   10320b <outb>
  10335c:	83 c4 08             	add    esp,0x8
  10335f:	6a 2e                	push   0x2e
  103361:	6a 40                	push   0x40
  103363:	e8 a3 fe ff ff       	call   10320b <outb>
  103368:	83 c4 08             	add    esp,0x8
  10336b:	6a 21                	push   0x21
  10336d:	e8 c2 fe ff ff       	call   103234 <inb>
  103372:	83 c4 04             	add    esp,0x4
  103375:	88 45 f3             	mov    BYTE PTR [ebp-0xd],al
  103378:	80 65 f3 fe          	and    BYTE PTR [ebp-0xd],0xfe
  10337c:	0f b6 45 f3          	movzx  eax,BYTE PTR [ebp-0xd]
  103380:	50                   	push   eax
  103381:	6a 21                	push   0x21
  103383:	e8 83 fe ff ff       	call   10320b <outb>
  103388:	83 c4 08             	add    esp,0x8
  10338b:	83 ec 08             	sub    esp,0x8
  10338e:	6a 00                	push   0x0
  103390:	6a 0b                	push   0xb
  103392:	e8 42 df ff ff       	call   1012d9 <vga_set_color>
  103397:	83 c4 10             	add    esp,0x10
  10339a:	83 ec 0c             	sub    esp,0xc
  10339d:	8d 83 77 e5 ff ff    	lea    eax,[ebx-0x1a89]
  1033a3:	50                   	push   eax
  1033a4:	e8 af e5 ff ff       	call   101958 <vga_print>
  1033a9:	83 c4 10             	add    esp,0x10
  1033ac:	83 ec 08             	sub    esp,0x8
  1033af:	6a 00                	push   0x0
  1033b1:	6a 0f                	push   0xf
  1033b3:	e8 21 df ff ff       	call   1012d9 <vga_set_color>
  1033b8:	83 c4 10             	add    esp,0x10
  1033bb:	83 ec 0c             	sub    esp,0xc
  1033be:	8d 83 8b e5 ff ff    	lea    eax,[ebx-0x1a75]
  1033c4:	50                   	push   eax
  1033c5:	e8 8e e5 ff ff       	call   101958 <vga_print>
  1033ca:	83 c4 10             	add    esp,0x10
  1033cd:	83 ec 0c             	sub    esp,0xc
  1033d0:	8d 83 a5 e5 ff ff    	lea    eax,[ebx-0x1a5b]
  1033d6:	50                   	push   eax
  1033d7:	e8 7c e5 ff ff       	call   101958 <vga_print>
  1033dc:	83 c4 10             	add    esp,0x10
  1033df:	83 ec 0c             	sub    esp,0xc
  1033e2:	8d 83 be e5 ff ff    	lea    eax,[ebx-0x1a42]
  1033e8:	50                   	push   eax
  1033e9:	e8 6a e5 ff ff       	call   101958 <vga_print>
  1033ee:	83 c4 10             	add    esp,0x10
  1033f1:	90                   	nop
  1033f2:	8b 5d fc             	mov    ebx,DWORD PTR [ebp-0x4]
  1033f5:	c9                   	leave
  1033f6:	c3                   	ret

001033f7 <pit_get_ticks>:
  1033f7:	55                   	push   ebp
  1033f8:	89 e5                	mov    ebp,esp
  1033fa:	e8 5b 34 00 00       	call   10685a <__x86.get_pc_thunk.ax>
  1033ff:	05 09 5c 00 00       	add    eax,0x5c09
  103404:	8b 80 f8 3f 01 00    	mov    eax,DWORD PTR [eax+0x13ff8]
  10340a:	5d                   	pop    ebp
  10340b:	c3                   	ret
  10340c:	66 90                	xchg   ax,ax
  10340e:	66 90                	xchg   ax,ax

00103410 <irq0>:
  103410:	6a 00                	push   0x0
  103412:	eb 3c                	jmp    103450 <irq_common_stub>

00103414 <irq1>:
  103414:	6a 01                	push   0x1
  103416:	eb 38                	jmp    103450 <irq_common_stub>

00103418 <irq2>:
  103418:	6a 02                	push   0x2
  10341a:	eb 34                	jmp    103450 <irq_common_stub>

0010341c <irq3>:
  10341c:	6a 03                	push   0x3
  10341e:	eb 30                	jmp    103450 <irq_common_stub>

00103420 <irq4>:
  103420:	6a 04                	push   0x4
  103422:	eb 2c                	jmp    103450 <irq_common_stub>

00103424 <irq5>:
  103424:	6a 05                	push   0x5
  103426:	eb 28                	jmp    103450 <irq_common_stub>

00103428 <irq6>:
  103428:	6a 06                	push   0x6
  10342a:	eb 24                	jmp    103450 <irq_common_stub>

0010342c <irq7>:
  10342c:	6a 07                	push   0x7
  10342e:	eb 20                	jmp    103450 <irq_common_stub>

00103430 <irq8>:
  103430:	6a 08                	push   0x8
  103432:	eb 1c                	jmp    103450 <irq_common_stub>

00103434 <irq9>:
  103434:	6a 09                	push   0x9
  103436:	eb 18                	jmp    103450 <irq_common_stub>

00103438 <irq10>:
  103438:	6a 0a                	push   0xa
  10343a:	eb 14                	jmp    103450 <irq_common_stub>

0010343c <irq11>:
  10343c:	6a 0b                	push   0xb
  10343e:	eb 10                	jmp    103450 <irq_common_stub>

00103440 <irq12>:
  103440:	6a 0c                	push   0xc
  103442:	eb 0c                	jmp    103450 <irq_common_stub>

00103444 <irq13>:
  103444:	6a 0d                	push   0xd
  103446:	eb 08                	jmp    103450 <irq_common_stub>

00103448 <irq14>:
  103448:	6a 0e                	push   0xe
  10344a:	eb 04                	jmp    103450 <irq_common_stub>

0010344c <irq15>:
  10344c:	6a 0f                	push   0xf
  10344e:	eb 00                	jmp    103450 <irq_common_stub>

00103450 <irq_common_stub>:
  103450:	60                   	pusha
  103451:	66 8c d8             	mov    ax,ds
  103454:	50                   	push   eax
  103455:	66 b8 10 00          	mov    ax,0x10
  103459:	8e d8                	mov    ds,eax
  10345b:	8e c0                	mov    es,eax
  10345d:	8e e0                	mov    fs,eax
  10345f:	8e e8                	mov    gs,eax
  103461:	8b 44 24 24          	mov    eax,DWORD PTR [esp+0x24]
  103465:	50                   	push   eax
  103466:	e8 3c fe ff ff       	call   1032a7 <irq_handler>
  10346b:	83 c4 04             	add    esp,0x4
  10346e:	58                   	pop    eax
  10346f:	8e d8                	mov    ds,eax
  103471:	8e c0                	mov    es,eax
  103473:	8e e0                	mov    fs,eax
  103475:	8e e8                	mov    gs,eax
  103477:	61                   	popa
  103478:	83 c4 04             	add    esp,0x4
  10347b:	cf                   	iret

0010347c <inb>:
  10347c:	55                   	push   ebp
  10347d:	89 e5                	mov    ebp,esp
  10347f:	83 ec 14             	sub    esp,0x14
  103482:	e8 d3 33 00 00       	call   10685a <__x86.get_pc_thunk.ax>
  103487:	05 81 5b 00 00       	add    eax,0x5b81
  10348c:	8b 45 08             	mov    eax,DWORD PTR [ebp+0x8]
  10348f:	66 89 45 ec          	mov    WORD PTR [ebp-0x14],ax
  103493:	0f b7 45 ec          	movzx  eax,WORD PTR [ebp-0x14]
  103497:	89 c2                	mov    edx,eax
  103499:	ec                   	in     al,dx
  10349a:	88 45 ff             	mov    BYTE PTR [ebp-0x1],al
  10349d:	0f b6 45 ff          	movzx  eax,BYTE PTR [ebp-0x1]
  1034a1:	c9                   	leave
  1034a2:	c3                   	ret

001034a3 <outb>:
  1034a3:	55                   	push   ebp
  1034a4:	89 e5                	mov    ebp,esp
  1034a6:	83 ec 08             	sub    esp,0x8
  1034a9:	e8 ac 33 00 00       	call   10685a <__x86.get_pc_thunk.ax>
  1034ae:	05 5a 5b 00 00       	add    eax,0x5b5a
  1034b3:	8b 55 08             	mov    edx,DWORD PTR [ebp+0x8]
  1034b6:	8b 45 0c             	mov    eax,DWORD PTR [ebp+0xc]
  1034b9:	66 89 55 fc          	mov    WORD PTR [ebp-0x4],dx
  1034bd:	88 45 f8             	mov    BYTE PTR [ebp-0x8],al
  1034c0:	0f b7 55 fc          	movzx  edx,WORD PTR [ebp-0x4]
  1034c4:	0f b6 45 f8          	movzx  eax,BYTE PTR [ebp-0x8]
  1034c8:	ee                   	out    dx,al
  1034c9:	90                   	nop
  1034ca:	c9                   	leave
  1034cb:	c3                   	ret

001034cc <keyboard_callback>:
  1034cc:	55                   	push   ebp
  1034cd:	89 e5                	mov    ebp,esp
  1034cf:	53                   	push   ebx
  1034d0:	83 ec 10             	sub    esp,0x10
  1034d3:	e8 7e 33 00 00       	call   106856 <__x86.get_pc_thunk.bx>
  1034d8:	81 c3 30 5b 00 00    	add    ebx,0x5b30
  1034de:	6a 60                	push   0x60
  1034e0:	e8 97 ff ff ff       	call   10347c <inb>
  1034e5:	83 c4 04             	add    esp,0x4
  1034e8:	88 45 fa             	mov    BYTE PTR [ebp-0x6],al
  1034eb:	80 7d fa e0          	cmp    BYTE PTR [ebp-0x6],0xe0
  1034ef:	75 0c                	jne    1034fd <keyboard_callback+0x31>
  1034f1:	c6 83 5c 41 01 00 01 	mov    BYTE PTR [ebx+0x1415c],0x1
  1034f8:	e9 9f 01 00 00       	jmp    10369c <keyboard_callback+0x1d0>
  1034fd:	0f b6 83 5c 41 01 00 	movzx  eax,BYTE PTR [ebx+0x1415c]
  103504:	84 c0                	test   al,al
  103506:	0f 84 82 00 00 00    	je     10358e <keyboard_callback+0xc2>
  10350c:	c6 83 5c 41 01 00 00 	mov    BYTE PTR [ebx+0x1415c],0x0
  103513:	0f b6 45 fa          	movzx  eax,BYTE PTR [ebp-0x6]
  103517:	84 c0                	test   al,al
  103519:	0f 88 6a 01 00 00    	js     103689 <keyboard_callback+0x1bd>
  10351f:	0f b6 83 59 41 01 00 	movzx  eax,BYTE PTR [ebx+0x14159]
  103526:	83 c0 01             	add    eax,0x1
  103529:	88 45 f7             	mov    BYTE PTR [ebp-0x9],al
  10352c:	0f b6 83 58 41 01 00 	movzx  eax,BYTE PTR [ebx+0x14158]
  103533:	38 45 f7             	cmp    BYTE PTR [ebp-0x9],al
  103536:	0f 84 50 01 00 00    	je     10368c <keyboard_callback+0x1c0>
  10353c:	80 7d fa 48          	cmp    BYTE PTR [ebp-0x6],0x48
  103540:	75 21                	jne    103563 <keyboard_callback+0x97>
  103542:	0f b6 83 59 41 01 00 	movzx  eax,BYTE PTR [ebx+0x14159]
  103549:	0f b6 c0             	movzx  eax,al
  10354c:	c6 84 03 58 40 01 00 	mov    BYTE PTR [ebx+eax*1+0x14058],0x1
  103553:	01 
  103554:	0f b6 45 f7          	movzx  eax,BYTE PTR [ebp-0x9]
  103558:	88 83 59 41 01 00    	mov    BYTE PTR [ebx+0x14159],al
  10355e:	e9 2c 01 00 00       	jmp    10368f <keyboard_callback+0x1c3>
  103563:	80 7d fa 50          	cmp    BYTE PTR [ebp-0x6],0x50
  103567:	0f 85 22 01 00 00    	jne    10368f <keyboard_callback+0x1c3>
  10356d:	0f b6 83 59 41 01 00 	movzx  eax,BYTE PTR [ebx+0x14159]
  103574:	0f b6 c0             	movzx  eax,al
  103577:	c6 84 03 58 40 01 00 	mov    BYTE PTR [ebx+eax*1+0x14058],0x2
  10357e:	02 
  10357f:	0f b6 45 f7          	movzx  eax,BYTE PTR [ebp-0x9]
  103583:	88 83 59 41 01 00    	mov    BYTE PTR [ebx+0x14159],al
  103589:	e9 01 01 00 00       	jmp    10368f <keyboard_callback+0x1c3>
  10358e:	0f b6 45 fa          	movzx  eax,BYTE PTR [ebp-0x6]
  103592:	84 c0                	test   al,al
  103594:	79 26                	jns    1035bc <keyboard_callback+0xf0>
  103596:	0f b6 45 fa          	movzx  eax,BYTE PTR [ebp-0x6]
  10359a:	83 e0 7f             	and    eax,0x7f
  10359d:	88 45 f8             	mov    BYTE PTR [ebp-0x8],al
  1035a0:	80 7d f8 2a          	cmp    BYTE PTR [ebp-0x8],0x2a
  1035a4:	74 0a                	je     1035b0 <keyboard_callback+0xe4>
  1035a6:	80 7d f8 36          	cmp    BYTE PTR [ebp-0x8],0x36
  1035aa:	0f 85 e2 00 00 00    	jne    103692 <keyboard_callback+0x1c6>
  1035b0:	c6 83 5a 41 01 00 00 	mov    BYTE PTR [ebx+0x1415a],0x0
  1035b7:	e9 d6 00 00 00       	jmp    103692 <keyboard_callback+0x1c6>
  1035bc:	80 7d fa 2a          	cmp    BYTE PTR [ebp-0x6],0x2a
  1035c0:	74 06                	je     1035c8 <keyboard_callback+0xfc>
  1035c2:	80 7d fa 36          	cmp    BYTE PTR [ebp-0x6],0x36
  1035c6:	75 0c                	jne    1035d4 <keyboard_callback+0x108>
  1035c8:	c6 83 5a 41 01 00 01 	mov    BYTE PTR [ebx+0x1415a],0x1
  1035cf:	e9 c8 00 00 00       	jmp    10369c <keyboard_callback+0x1d0>
  1035d4:	80 7d fa 3a          	cmp    BYTE PTR [ebp-0x6],0x3a
  1035d8:	75 15                	jne    1035ef <keyboard_callback+0x123>
  1035da:	0f b6 83 5b 41 01 00 	movzx  eax,BYTE PTR [ebx+0x1415b]
  1035e1:	83 f0 01             	xor    eax,0x1
  1035e4:	88 83 5b 41 01 00    	mov    BYTE PTR [ebx+0x1415b],al
  1035ea:	e9 ad 00 00 00       	jmp    10369c <keyboard_callback+0x1d0>
  1035ef:	80 7d fa 58          	cmp    BYTE PTR [ebp-0x6],0x58
  1035f3:	0f 87 9c 00 00 00    	ja     103695 <keyboard_callback+0x1c9>
  1035f9:	c6 45 fb 00          	mov    BYTE PTR [ebp-0x5],0x0
  1035fd:	0f b6 83 5a 41 01 00 	movzx  eax,BYTE PTR [ebx+0x1415a]
  103604:	84 c0                	test   al,al
  103606:	74 11                	je     103619 <keyboard_callback+0x14d>
  103608:	0f b6 45 fa          	movzx  eax,BYTE PTR [ebp-0x6]
  10360c:	0f b6 84 03 58 e6 ff 	movzx  eax,BYTE PTR [ebx+eax*1-0x19a8]
  103613:	ff 
  103614:	88 45 fb             	mov    BYTE PTR [ebp-0x5],al
  103617:	eb 30                	jmp    103649 <keyboard_callback+0x17d>
  103619:	0f b6 45 fa          	movzx  eax,BYTE PTR [ebp-0x6]
  10361d:	0f b6 84 03 f8 e5 ff 	movzx  eax,BYTE PTR [ebx+eax*1-0x1a08]
  103624:	ff 
  103625:	88 45 fb             	mov    BYTE PTR [ebp-0x5],al
  103628:	0f b6 83 5b 41 01 00 	movzx  eax,BYTE PTR [ebx+0x1415b]
  10362f:	84 c0                	test   al,al
  103631:	74 16                	je     103649 <keyboard_callback+0x17d>
  103633:	80 7d fb 60          	cmp    BYTE PTR [ebp-0x5],0x60
  103637:	7e 10                	jle    103649 <keyboard_callback+0x17d>
  103639:	80 7d fb 7a          	cmp    BYTE PTR [ebp-0x5],0x7a
  10363d:	7f 0a                	jg     103649 <keyboard_callback+0x17d>
  10363f:	0f b6 45 fb          	movzx  eax,BYTE PTR [ebp-0x5]
  103643:	83 e8 20             	sub    eax,0x20
  103646:	88 45 fb             	mov    BYTE PTR [ebp-0x5],al
  103649:	80 7d fb 00          	cmp    BYTE PTR [ebp-0x5],0x0
  10364d:	74 49                	je     103698 <keyboard_callback+0x1cc>
  10364f:	0f b6 83 59 41 01 00 	movzx  eax,BYTE PTR [ebx+0x14159]
  103656:	83 c0 01             	add    eax,0x1
  103659:	88 45 f9             	mov    BYTE PTR [ebp-0x7],al
  10365c:	0f b6 83 58 41 01 00 	movzx  eax,BYTE PTR [ebx+0x14158]
  103663:	38 45 f9             	cmp    BYTE PTR [ebp-0x7],al
  103666:	74 33                	je     10369b <keyboard_callback+0x1cf>
  103668:	0f b6 83 59 41 01 00 	movzx  eax,BYTE PTR [ebx+0x14159]
  10366f:	0f b6 c0             	movzx  eax,al
  103672:	0f b6 55 fb          	movzx  edx,BYTE PTR [ebp-0x5]
  103676:	88 94 03 58 40 01 00 	mov    BYTE PTR [ebx+eax*1+0x14058],dl
  10367d:	0f b6 45 f9          	movzx  eax,BYTE PTR [ebp-0x7]
  103681:	88 83 59 41 01 00    	mov    BYTE PTR [ebx+0x14159],al
  103687:	eb 13                	jmp    10369c <keyboard_callback+0x1d0>
  103689:	90                   	nop
  10368a:	eb 10                	jmp    10369c <keyboard_callback+0x1d0>
  10368c:	90                   	nop
  10368d:	eb 0d                	jmp    10369c <keyboard_callback+0x1d0>
  10368f:	90                   	nop
  103690:	eb 0a                	jmp    10369c <keyboard_callback+0x1d0>
  103692:	90                   	nop
  103693:	eb 07                	jmp    10369c <keyboard_callback+0x1d0>
  103695:	90                   	nop
  103696:	eb 04                	jmp    10369c <keyboard_callback+0x1d0>
  103698:	90                   	nop
  103699:	eb 01                	jmp    10369c <keyboard_callback+0x1d0>
  10369b:	90                   	nop
  10369c:	8b 5d fc             	mov    ebx,DWORD PTR [ebp-0x4]
  10369f:	c9                   	leave
  1036a0:	c3                   	ret

001036a1 <keyboard_init>:
  1036a1:	55                   	push   ebp
  1036a2:	89 e5                	mov    ebp,esp
  1036a4:	53                   	push   ebx
  1036a5:	83 ec 14             	sub    esp,0x14
  1036a8:	e8 a9 31 00 00       	call   106856 <__x86.get_pc_thunk.bx>
  1036ad:	81 c3 5b 59 00 00    	add    ebx,0x595b
  1036b3:	c6 83 5a 41 01 00 00 	mov    BYTE PTR [ebx+0x1415a],0x0
  1036ba:	c6 83 5b 41 01 00 00 	mov    BYTE PTR [ebx+0x1415b],0x0
  1036c1:	c6 83 58 41 01 00 00 	mov    BYTE PTR [ebx+0x14158],0x0
  1036c8:	c6 83 59 41 01 00 00 	mov    BYTE PTR [ebx+0x14159],0x0
  1036cf:	83 ec 08             	sub    esp,0x8
  1036d2:	8d 83 c4 a4 ff ff    	lea    eax,[ebx-0x5b3c]
  1036d8:	50                   	push   eax
  1036d9:	6a 01                	push   0x1
  1036db:	e8 7b fb ff ff       	call   10325b <irq_install>
  1036e0:	83 c4 10             	add    esp,0x10
  1036e3:	83 ec 0c             	sub    esp,0xc
  1036e6:	6a 21                	push   0x21
  1036e8:	e8 8f fd ff ff       	call   10347c <inb>
  1036ed:	83 c4 10             	add    esp,0x10
  1036f0:	88 45 f7             	mov    BYTE PTR [ebp-0x9],al
  1036f3:	80 65 f7 fd          	and    BYTE PTR [ebp-0x9],0xfd
  1036f7:	0f b6 45 f7          	movzx  eax,BYTE PTR [ebp-0x9]
  1036fb:	83 ec 08             	sub    esp,0x8
  1036fe:	50                   	push   eax
  1036ff:	6a 21                	push   0x21
  103701:	e8 9d fd ff ff       	call   1034a3 <outb>
  103706:	83 c4 10             	add    esp,0x10
  103709:	83 ec 08             	sub    esp,0x8
  10370c:	6a 00                	push   0x0
  10370e:	6a 0b                	push   0xb
  103710:	e8 c4 db ff ff       	call   1012d9 <vga_set_color>
  103715:	83 c4 10             	add    esp,0x10
  103718:	83 ec 0c             	sub    esp,0xc
  10371b:	8d 83 b1 e6 ff ff    	lea    eax,[ebx-0x194f]
  103721:	50                   	push   eax
  103722:	e8 31 e2 ff ff       	call   101958 <vga_print>
  103727:	83 c4 10             	add    esp,0x10
  10372a:	83 ec 08             	sub    esp,0x8
  10372d:	6a 00                	push   0x0
  10372f:	6a 0f                	push   0xf
  103731:	e8 a3 db ff ff       	call   1012d9 <vga_set_color>
  103736:	83 c4 10             	add    esp,0x10
  103739:	83 ec 0c             	sub    esp,0xc
  10373c:	8d 83 c7 e6 ff ff    	lea    eax,[ebx-0x1939]
  103742:	50                   	push   eax
  103743:	e8 10 e2 ff ff       	call   101958 <vga_print>
  103748:	83 c4 10             	add    esp,0x10
  10374b:	83 ec 0c             	sub    esp,0xc
  10374e:	8d 83 e1 e6 ff ff    	lea    eax,[ebx-0x191f]
  103754:	50                   	push   eax
  103755:	e8 fe e1 ff ff       	call   101958 <vga_print>
  10375a:	83 c4 10             	add    esp,0x10
  10375d:	83 ec 0c             	sub    esp,0xc
  103760:	8d 83 fc e6 ff ff    	lea    eax,[ebx-0x1904]
  103766:	50                   	push   eax
  103767:	e8 ec e1 ff ff       	call   101958 <vga_print>
  10376c:	83 c4 10             	add    esp,0x10
  10376f:	90                   	nop
  103770:	8b 5d fc             	mov    ebx,DWORD PTR [ebp-0x4]
  103773:	c9                   	leave
  103774:	c3                   	ret

00103775 <keyboard_getchar>:
  103775:	55                   	push   ebp
  103776:	89 e5                	mov    ebp,esp
  103778:	83 ec 10             	sub    esp,0x10
  10377b:	e8 da 30 00 00       	call   10685a <__x86.get_pc_thunk.ax>
  103780:	05 88 58 00 00       	add    eax,0x5888
  103785:	0f b6 88 58 41 01 00 	movzx  ecx,BYTE PTR [eax+0x14158]
  10378c:	0f b6 90 59 41 01 00 	movzx  edx,BYTE PTR [eax+0x14159]
  103793:	38 d1                	cmp    cl,dl
  103795:	75 07                	jne    10379e <keyboard_getchar+0x29>
  103797:	b8 00 00 00 00       	mov    eax,0x0
  10379c:	eb 29                	jmp    1037c7 <keyboard_getchar+0x52>
  10379e:	0f b6 90 58 41 01 00 	movzx  edx,BYTE PTR [eax+0x14158]
  1037a5:	0f b6 d2             	movzx  edx,dl
  1037a8:	0f b6 94 10 58 40 01 	movzx  edx,BYTE PTR [eax+edx*1+0x14058]
  1037af:	00 
  1037b0:	88 55 ff             	mov    BYTE PTR [ebp-0x1],dl
  1037b3:	0f b6 90 58 41 01 00 	movzx  edx,BYTE PTR [eax+0x14158]
  1037ba:	83 c2 01             	add    edx,0x1
  1037bd:	88 90 58 41 01 00    	mov    BYTE PTR [eax+0x14158],dl
  1037c3:	0f b6 45 ff          	movzx  eax,BYTE PTR [ebp-0x1]
  1037c7:	c9                   	leave
  1037c8:	c3                   	ret

001037c9 <keyboard_haschar>:
  1037c9:	55                   	push   ebp
  1037ca:	89 e5                	mov    ebp,esp
  1037cc:	e8 89 30 00 00       	call   10685a <__x86.get_pc_thunk.ax>
  1037d1:	05 37 58 00 00       	add    eax,0x5837
  1037d6:	0f b6 90 58 41 01 00 	movzx  edx,BYTE PTR [eax+0x14158]
  1037dd:	0f b6 80 59 41 01 00 	movzx  eax,BYTE PTR [eax+0x14159]
  1037e4:	38 c2                	cmp    dl,al
  1037e6:	0f 95 c0             	setne  al
  1037e9:	5d                   	pop    ebp
  1037ea:	c3                   	ret

001037eb <str_len>:
  1037eb:	55                   	push   ebp
  1037ec:	89 e5                	mov    ebp,esp
  1037ee:	83 ec 10             	sub    esp,0x10
  1037f1:	e8 64 30 00 00       	call   10685a <__x86.get_pc_thunk.ax>
  1037f6:	05 12 58 00 00       	add    eax,0x5812
  1037fb:	c7 45 fc 00 00 00 00 	mov    DWORD PTR [ebp-0x4],0x0
  103802:	eb 04                	jmp    103808 <str_len+0x1d>
  103804:	83 45 fc 01          	add    DWORD PTR [ebp-0x4],0x1
  103808:	8b 55 08             	mov    edx,DWORD PTR [ebp+0x8]
  10380b:	8b 45 fc             	mov    eax,DWORD PTR [ebp-0x4]
  10380e:	01 d0                	add    eax,edx
  103810:	0f b6 00             	movzx  eax,BYTE PTR [eax]
  103813:	84 c0                	test   al,al
  103815:	75 ed                	jne    103804 <str_len+0x19>
  103817:	8b 45 fc             	mov    eax,DWORD PTR [ebp-0x4]
  10381a:	c9                   	leave
  10381b:	c3                   	ret

0010381c <str_eq>:
  10381c:	55                   	push   ebp
  10381d:	89 e5                	mov    ebp,esp
  10381f:	e8 36 30 00 00       	call   10685a <__x86.get_pc_thunk.ax>
  103824:	05 e4 57 00 00       	add    eax,0x57e4
  103829:	eb 1f                	jmp    10384a <str_eq+0x2e>
  10382b:	8b 45 08             	mov    eax,DWORD PTR [ebp+0x8]
  10382e:	0f b6 10             	movzx  edx,BYTE PTR [eax]
  103831:	8b 45 0c             	mov    eax,DWORD PTR [ebp+0xc]
  103834:	0f b6 00             	movzx  eax,BYTE PTR [eax]
  103837:	38 c2                	cmp    dl,al
  103839:	74 07                	je     103842 <str_eq+0x26>
  10383b:	b8 00 00 00 00       	mov    eax,0x0
  103840:	eb 30                	jmp    103872 <str_eq+0x56>
  103842:	83 45 08 01          	add    DWORD PTR [ebp+0x8],0x1
  103846:	83 45 0c 01          	add    DWORD PTR [ebp+0xc],0x1
  10384a:	8b 45 08             	mov    eax,DWORD PTR [ebp+0x8]
  10384d:	0f b6 00             	movzx  eax,BYTE PTR [eax]
  103850:	84 c0                	test   al,al
  103852:	74 0a                	je     10385e <str_eq+0x42>
  103854:	8b 45 0c             	mov    eax,DWORD PTR [ebp+0xc]
  103857:	0f b6 00             	movzx  eax,BYTE PTR [eax]
  10385a:	84 c0                	test   al,al
  10385c:	75 cd                	jne    10382b <str_eq+0xf>
  10385e:	8b 45 08             	mov    eax,DWORD PTR [ebp+0x8]
  103861:	0f b6 10             	movzx  edx,BYTE PTR [eax]
  103864:	8b 45 0c             	mov    eax,DWORD PTR [ebp+0xc]
  103867:	0f b6 00             	movzx  eax,BYTE PTR [eax]
  10386a:	38 c2                	cmp    dl,al
  10386c:	0f 94 c0             	sete   al
  10386f:	0f b6 c0             	movzx  eax,al
  103872:	5d                   	pop    ebp
  103873:	c3                   	ret

00103874 <print_uint>:
  103874:	55                   	push   ebp
  103875:	89 e5                	mov    ebp,esp
  103877:	53                   	push   ebx
  103878:	83 ec 14             	sub    esp,0x14
  10387b:	e8 e2 2f 00 00       	call   106862 <__x86.get_pc_thunk.cx>
  103880:	81 c1 88 57 00 00    	add    ecx,0x5788
  103886:	83 7d 08 00          	cmp    DWORD PTR [ebp+0x8],0x0
  10388a:	75 16                	jne    1038a2 <print_uint+0x2e>
  10388c:	83 ec 0c             	sub    esp,0xc
  10388f:	8d 81 24 e7 ff ff    	lea    eax,[ecx-0x18dc]
  103895:	50                   	push   eax
  103896:	89 cb                	mov    ebx,ecx
  103898:	e8 bb e0 ff ff       	call   101958 <vga_print>
  10389d:	83 c4 10             	add    esp,0x10
  1038a0:	eb 74                	jmp    103916 <print_uint+0xa2>
  1038a2:	c6 45 f3 00          	mov    BYTE PTR [ebp-0xd],0x0
  1038a6:	c7 45 f4 0a 00 00 00 	mov    DWORD PTR [ebp-0xc],0xa
  1038ad:	eb 42                	jmp    1038f1 <print_uint+0x7d>
  1038af:	8b 5d 08             	mov    ebx,DWORD PTR [ebp+0x8]
  1038b2:	ba cd cc cc cc       	mov    edx,0xcccccccd
  1038b7:	89 d8                	mov    eax,ebx
  1038b9:	f7 e2                	mul    edx
  1038bb:	c1 ea 03             	shr    edx,0x3
  1038be:	89 d0                	mov    eax,edx
  1038c0:	c1 e0 02             	shl    eax,0x2
  1038c3:	01 d0                	add    eax,edx
  1038c5:	01 c0                	add    eax,eax
  1038c7:	29 c3                	sub    ebx,eax
  1038c9:	89 da                	mov    edx,ebx
  1038cb:	89 d0                	mov    eax,edx
  1038cd:	8d 58 30             	lea    ebx,[eax+0x30]
  1038d0:	8b 45 f4             	mov    eax,DWORD PTR [ebp-0xc]
  1038d3:	8d 50 ff             	lea    edx,[eax-0x1]
  1038d6:	89 55 f4             	mov    DWORD PTR [ebp-0xc],edx
  1038d9:	89 da                	mov    edx,ebx
  1038db:	88 54 05 e8          	mov    BYTE PTR [ebp+eax*1-0x18],dl
  1038df:	8b 45 08             	mov    eax,DWORD PTR [ebp+0x8]
  1038e2:	ba cd cc cc cc       	mov    edx,0xcccccccd
  1038e7:	f7 e2                	mul    edx
  1038e9:	89 d0                	mov    eax,edx
  1038eb:	c1 e8 03             	shr    eax,0x3
  1038ee:	89 45 08             	mov    DWORD PTR [ebp+0x8],eax
  1038f1:	83 7d 08 00          	cmp    DWORD PTR [ebp+0x8],0x0
  1038f5:	74 06                	je     1038fd <print_uint+0x89>
  1038f7:	83 7d f4 00          	cmp    DWORD PTR [ebp-0xc],0x0
  1038fb:	79 b2                	jns    1038af <print_uint+0x3b>
  1038fd:	8b 45 f4             	mov    eax,DWORD PTR [ebp-0xc]
  103900:	8d 50 01             	lea    edx,[eax+0x1]
  103903:	8d 45 e8             	lea    eax,[ebp-0x18]
  103906:	01 d0                	add    eax,edx
  103908:	83 ec 0c             	sub    esp,0xc
  10390b:	50                   	push   eax
  10390c:	89 cb                	mov    ebx,ecx
  10390e:	e8 45 e0 ff ff       	call   101958 <vga_print>
  103913:	83 c4 10             	add    esp,0x10
  103916:	8b 5d fc             	mov    ebx,DWORD PTR [ebp-0x4]
  103919:	c9                   	leave
  10391a:	c3                   	ret

0010391b <shell_prompt>:
  10391b:	55                   	push   ebp
  10391c:	89 e5                	mov    ebp,esp
  10391e:	53                   	push   ebx
  10391f:	83 ec 04             	sub    esp,0x4
  103922:	e8 2f 2f 00 00       	call   106856 <__x86.get_pc_thunk.bx>
  103927:	81 c3 e1 56 00 00    	add    ebx,0x56e1
  10392d:	83 ec 08             	sub    esp,0x8
  103930:	6a 00                	push   0x0
  103932:	6a 0a                	push   0xa
  103934:	e8 a0 d9 ff ff       	call   1012d9 <vga_set_color>
  103939:	83 c4 10             	add    esp,0x10
  10393c:	83 ec 0c             	sub    esp,0xc
  10393f:	8d 83 26 e7 ff ff    	lea    eax,[ebx-0x18da]
  103945:	50                   	push   eax
  103946:	e8 0d e0 ff ff       	call   101958 <vga_print>
  10394b:	83 c4 10             	add    esp,0x10
  10394e:	83 ec 08             	sub    esp,0x8
  103951:	6a 00                	push   0x0
  103953:	6a 08                	push   0x8
  103955:	e8 7f d9 ff ff       	call   1012d9 <vga_set_color>
  10395a:	83 c4 10             	add    esp,0x10
  10395d:	83 ec 0c             	sub    esp,0xc
  103960:	8d 83 2a e7 ff ff    	lea    eax,[ebx-0x18d6]
  103966:	50                   	push   eax
  103967:	e8 ec df ff ff       	call   101958 <vga_print>
  10396c:	83 c4 10             	add    esp,0x10
  10396f:	83 ec 08             	sub    esp,0x8
  103972:	6a 00                	push   0x0
  103974:	6a 0b                	push   0xb
  103976:	e8 5e d9 ff ff       	call   1012d9 <vga_set_color>
  10397b:	83 c4 10             	add    esp,0x10
  10397e:	83 ec 0c             	sub    esp,0xc
  103981:	8d 83 2c e7 ff ff    	lea    eax,[ebx-0x18d4]
  103987:	50                   	push   eax
  103988:	e8 cb df ff ff       	call   101958 <vga_print>
  10398d:	83 c4 10             	add    esp,0x10
  103990:	83 ec 08             	sub    esp,0x8
  103993:	6a 00                	push   0x0
  103995:	6a 0f                	push   0xf
  103997:	e8 3d d9 ff ff       	call   1012d9 <vga_set_color>
  10399c:	83 c4 10             	add    esp,0x10
  10399f:	83 ec 0c             	sub    esp,0xc
  1039a2:	8d 83 37 e7 ff ff    	lea    eax,[ebx-0x18c9]
  1039a8:	50                   	push   eax
  1039a9:	e8 aa df ff ff       	call   101958 <vga_print>
  1039ae:	83 c4 10             	add    esp,0x10
  1039b1:	90                   	nop
  1039b2:	8b 5d fc             	mov    ebx,DWORD PTR [ebp-0x4]
  1039b5:	c9                   	leave
  1039b6:	c3                   	ret

001039b7 <cmd_clear>:
  1039b7:	55                   	push   ebp
  1039b8:	89 e5                	mov    ebp,esp
  1039ba:	53                   	push   ebx
  1039bb:	83 ec 04             	sub    esp,0x4
  1039be:	e8 97 2e 00 00       	call   10685a <__x86.get_pc_thunk.ax>
  1039c3:	05 45 56 00 00       	add    eax,0x5645
  1039c8:	89 c3                	mov    ebx,eax
  1039ca:	e8 33 d9 ff ff       	call   101302 <vga_init>
  1039cf:	90                   	nop
  1039d0:	8b 5d fc             	mov    ebx,DWORD PTR [ebp-0x4]
  1039d3:	c9                   	leave
  1039d4:	c3                   	ret

001039d5 <cmd_version>:
  1039d5:	55                   	push   ebp
  1039d6:	89 e5                	mov    ebp,esp
  1039d8:	53                   	push   ebx
  1039d9:	83 ec 04             	sub    esp,0x4
  1039dc:	e8 75 2e 00 00       	call   106856 <__x86.get_pc_thunk.bx>
  1039e1:	81 c3 27 56 00 00    	add    ebx,0x5627
  1039e7:	83 ec 0c             	sub    esp,0xc
  1039ea:	8d 83 3b e7 ff ff    	lea    eax,[ebx-0x18c5]
  1039f0:	50                   	push   eax
  1039f1:	e8 62 df ff ff       	call   101958 <vga_print>
  1039f6:	83 c4 10             	add    esp,0x10
  1039f9:	83 ec 08             	sub    esp,0x8
  1039fc:	6a 00                	push   0x0
  1039fe:	6a 0b                	push   0xb
  103a00:	e8 d4 d8 ff ff       	call   1012d9 <vga_set_color>
  103a05:	83 c4 10             	add    esp,0x10
  103a08:	83 ec 0c             	sub    esp,0xc
  103a0b:	8d 83 3d e7 ff ff    	lea    eax,[ebx-0x18c3]
  103a11:	50                   	push   eax
  103a12:	e8 41 df ff ff       	call   101958 <vga_print>
  103a17:	83 c4 10             	add    esp,0x10
  103a1a:	83 ec 08             	sub    esp,0x8
  103a1d:	6a 00                	push   0x0
  103a1f:	6a 08                	push   0x8
  103a21:	e8 b3 d8 ff ff       	call   1012d9 <vga_set_color>
  103a26:	83 c4 10             	add    esp,0x10
  103a29:	83 ec 0c             	sub    esp,0xc
  103a2c:	8d 83 4f e7 ff ff    	lea    eax,[ebx-0x18b1]
  103a32:	50                   	push   eax
  103a33:	e8 20 df ff ff       	call   101958 <vga_print>
  103a38:	83 c4 10             	add    esp,0x10
  103a3b:	83 ec 08             	sub    esp,0x8
  103a3e:	6a 00                	push   0x0
  103a40:	6a 0f                	push   0xf
  103a42:	e8 92 d8 ff ff       	call   1012d9 <vga_set_color>
  103a47:	83 c4 10             	add    esp,0x10
  103a4a:	83 ec 0c             	sub    esp,0xc
  103a4d:	8d 83 3b e7 ff ff    	lea    eax,[ebx-0x18c5]
  103a53:	50                   	push   eax
  103a54:	e8 ff de ff ff       	call   101958 <vga_print>
  103a59:	83 c4 10             	add    esp,0x10
  103a5c:	90                   	nop
  103a5d:	8b 5d fc             	mov    ebx,DWORD PTR [ebp-0x4]
  103a60:	c9                   	leave
  103a61:	c3                   	ret

00103a62 <cmd_uptime>:
  103a62:	55                   	push   ebp
  103a63:	89 e5                	mov    ebp,esp
  103a65:	53                   	push   ebx
  103a66:	83 ec 14             	sub    esp,0x14
  103a69:	e8 e8 2d 00 00       	call   106856 <__x86.get_pc_thunk.bx>
  103a6e:	81 c3 9a 55 00 00    	add    ebx,0x559a
  103a74:	e8 7e f9 ff ff       	call   1033f7 <pit_get_ticks>
  103a79:	89 45 f4             	mov    DWORD PTR [ebp-0xc],eax
  103a7c:	8b 45 f4             	mov    eax,DWORD PTR [ebp-0xc]
  103a7f:	ba 1f 85 eb 51       	mov    edx,0x51eb851f
  103a84:	f7 e2                	mul    edx
  103a86:	89 d0                	mov    eax,edx
  103a88:	c1 e8 05             	shr    eax,0x5
  103a8b:	89 45 f0             	mov    DWORD PTR [ebp-0x10],eax
  103a8e:	8b 45 f0             	mov    eax,DWORD PTR [ebp-0x10]
  103a91:	ba 89 88 88 88       	mov    edx,0x88888889
  103a96:	f7 e2                	mul    edx
  103a98:	89 d0                	mov    eax,edx
  103a9a:	c1 e8 05             	shr    eax,0x5
  103a9d:	89 45 ec             	mov    DWORD PTR [ebp-0x14],eax
  103aa0:	8b 45 ec             	mov    eax,DWORD PTR [ebp-0x14]
  103aa3:	ba 89 88 88 88       	mov    edx,0x88888889
  103aa8:	f7 e2                	mul    edx
  103aaa:	89 d0                	mov    eax,edx
  103aac:	c1 e8 05             	shr    eax,0x5
  103aaf:	89 45 e8             	mov    DWORD PTR [ebp-0x18],eax
  103ab2:	8b 4d f0             	mov    ecx,DWORD PTR [ebp-0x10]
  103ab5:	ba 89 88 88 88       	mov    edx,0x88888889
  103aba:	89 c8                	mov    eax,ecx
  103abc:	f7 e2                	mul    edx
  103abe:	89 d0                	mov    eax,edx
  103ac0:	c1 e8 05             	shr    eax,0x5
  103ac3:	6b c0 3c             	imul   eax,eax,0x3c
  103ac6:	29 c1                	sub    ecx,eax
  103ac8:	89 ca                	mov    edx,ecx
  103aca:	89 55 f0             	mov    DWORD PTR [ebp-0x10],edx
  103acd:	8b 4d ec             	mov    ecx,DWORD PTR [ebp-0x14]
  103ad0:	ba 89 88 88 88       	mov    edx,0x88888889
  103ad5:	89 c8                	mov    eax,ecx
  103ad7:	f7 e2                	mul    edx
  103ad9:	89 d0                	mov    eax,edx
  103adb:	c1 e8 05             	shr    eax,0x5
  103ade:	6b c0 3c             	imul   eax,eax,0x3c
  103ae1:	29 c1                	sub    ecx,eax
  103ae3:	89 ca                	mov    edx,ecx
  103ae5:	89 55 ec             	mov    DWORD PTR [ebp-0x14],edx
  103ae8:	83 ec 0c             	sub    esp,0xc
  103aeb:	8d 83 66 e7 ff ff    	lea    eax,[ebx-0x189a]
  103af1:	50                   	push   eax
  103af2:	e8 61 de ff ff       	call   101958 <vga_print>
  103af7:	83 c4 10             	add    esp,0x10
  103afa:	83 ec 0c             	sub    esp,0xc
  103afd:	ff 75 e8             	push   DWORD PTR [ebp-0x18]
  103b00:	e8 6f fd ff ff       	call   103874 <print_uint>
  103b05:	83 c4 10             	add    esp,0x10
  103b08:	83 ec 0c             	sub    esp,0xc
  103b0b:	8d 83 73 e7 ff ff    	lea    eax,[ebx-0x188d]
  103b11:	50                   	push   eax
  103b12:	e8 41 de ff ff       	call   101958 <vga_print>
  103b17:	83 c4 10             	add    esp,0x10
  103b1a:	83 ec 0c             	sub    esp,0xc
  103b1d:	ff 75 ec             	push   DWORD PTR [ebp-0x14]
  103b20:	e8 4f fd ff ff       	call   103874 <print_uint>
  103b25:	83 c4 10             	add    esp,0x10
  103b28:	83 ec 0c             	sub    esp,0xc
  103b2b:	8d 83 76 e7 ff ff    	lea    eax,[ebx-0x188a]
  103b31:	50                   	push   eax
  103b32:	e8 21 de ff ff       	call   101958 <vga_print>
  103b37:	83 c4 10             	add    esp,0x10
  103b3a:	83 ec 0c             	sub    esp,0xc
  103b3d:	ff 75 f0             	push   DWORD PTR [ebp-0x10]
  103b40:	e8 2f fd ff ff       	call   103874 <print_uint>
  103b45:	83 c4 10             	add    esp,0x10
  103b48:	83 ec 0c             	sub    esp,0xc
  103b4b:	8d 83 79 e7 ff ff    	lea    eax,[ebx-0x1887]
  103b51:	50                   	push   eax
  103b52:	e8 01 de ff ff       	call   101958 <vga_print>
  103b57:	83 c4 10             	add    esp,0x10
  103b5a:	83 ec 0c             	sub    esp,0xc
  103b5d:	8d 83 7b e7 ff ff    	lea    eax,[ebx-0x1885]
  103b63:	50                   	push   eax
  103b64:	e8 ef dd ff ff       	call   101958 <vga_print>
  103b69:	83 c4 10             	add    esp,0x10
  103b6c:	83 ec 0c             	sub    esp,0xc
  103b6f:	ff 75 f4             	push   DWORD PTR [ebp-0xc]
  103b72:	e8 fd fc ff ff       	call   103874 <print_uint>
  103b77:	83 c4 10             	add    esp,0x10
  103b7a:	83 ec 0c             	sub    esp,0xc
  103b7d:	8d 83 7f e7 ff ff    	lea    eax,[ebx-0x1881]
  103b83:	50                   	push   eax
  103b84:	e8 cf dd ff ff       	call   101958 <vga_print>
  103b89:	83 c4 10             	add    esp,0x10
  103b8c:	90                   	nop
  103b8d:	8b 5d fc             	mov    ebx,DWORD PTR [ebp-0x4]
  103b90:	c9                   	leave
  103b91:	c3                   	ret

00103b92 <cmd_mem>:
  103b92:	55                   	push   ebp
  103b93:	89 e5                	mov    ebp,esp
  103b95:	53                   	push   ebx
  103b96:	83 ec 14             	sub    esp,0x14
  103b99:	e8 b8 2c 00 00       	call   106856 <__x86.get_pc_thunk.bx>
  103b9e:	81 c3 6a 54 00 00    	add    ebx,0x546a
  103ba4:	e8 0b ee ff ff       	call   1029b4 <pmm_get_total_frames>
  103ba9:	c1 e0 02             	shl    eax,0x2
  103bac:	89 45 f4             	mov    DWORD PTR [ebp-0xc],eax
  103baf:	e8 15 ee ff ff       	call   1029c9 <pmm_get_free_frames>
  103bb4:	c1 e0 02             	shl    eax,0x2
  103bb7:	89 45 f0             	mov    DWORD PTR [ebp-0x10],eax
  103bba:	8b 45 f4             	mov    eax,DWORD PTR [ebp-0xc]
  103bbd:	2b 45 f0             	sub    eax,DWORD PTR [ebp-0x10]
  103bc0:	89 45 ec             	mov    DWORD PTR [ebp-0x14],eax
  103bc3:	83 ec 0c             	sub    esp,0xc
  103bc6:	8d 83 3b e7 ff ff    	lea    eax,[ebx-0x18c5]
  103bcc:	50                   	push   eax
  103bcd:	e8 86 dd ff ff       	call   101958 <vga_print>
  103bd2:	83 c4 10             	add    esp,0x10
  103bd5:	83 ec 08             	sub    esp,0x8
  103bd8:	6a 00                	push   0x0
  103bda:	6a 0b                	push   0xb
  103bdc:	e8 f8 d6 ff ff       	call   1012d9 <vga_set_color>
  103be1:	83 c4 10             	add    esp,0x10
  103be4:	83 ec 0c             	sub    esp,0xc
  103be7:	8d 83 90 e7 ff ff    	lea    eax,[ebx-0x1870]
  103bed:	50                   	push   eax
  103bee:	e8 65 dd ff ff       	call   101958 <vga_print>
  103bf3:	83 c4 10             	add    esp,0x10
  103bf6:	83 ec 08             	sub    esp,0x8
  103bf9:	6a 00                	push   0x0
  103bfb:	6a 0f                	push   0xf
  103bfd:	e8 d7 d6 ff ff       	call   1012d9 <vga_set_color>
  103c02:	83 c4 10             	add    esp,0x10
  103c05:	83 ec 0c             	sub    esp,0xc
  103c08:	8d 83 9a e7 ff ff    	lea    eax,[ebx-0x1866]
  103c0e:	50                   	push   eax
  103c0f:	e8 44 dd ff ff       	call   101958 <vga_print>
  103c14:	83 c4 10             	add    esp,0x10
  103c17:	83 ec 0c             	sub    esp,0xc
  103c1a:	ff 75 f4             	push   DWORD PTR [ebp-0xc]
  103c1d:	e8 52 fc ff ff       	call   103874 <print_uint>
  103c22:	83 c4 10             	add    esp,0x10
  103c25:	83 ec 0c             	sub    esp,0xc
  103c28:	8d 83 a8 e7 ff ff    	lea    eax,[ebx-0x1858]
  103c2e:	50                   	push   eax
  103c2f:	e8 24 dd ff ff       	call   101958 <vga_print>
  103c34:	83 c4 10             	add    esp,0x10
  103c37:	83 ec 0c             	sub    esp,0xc
  103c3a:	8d 83 ad e7 ff ff    	lea    eax,[ebx-0x1853]
  103c40:	50                   	push   eax
  103c41:	e8 12 dd ff ff       	call   101958 <vga_print>
  103c46:	83 c4 10             	add    esp,0x10
  103c49:	83 ec 0c             	sub    esp,0xc
  103c4c:	ff 75 ec             	push   DWORD PTR [ebp-0x14]
  103c4f:	e8 20 fc ff ff       	call   103874 <print_uint>
  103c54:	83 c4 10             	add    esp,0x10
  103c57:	83 ec 0c             	sub    esp,0xc
  103c5a:	8d 83 a8 e7 ff ff    	lea    eax,[ebx-0x1858]
  103c60:	50                   	push   eax
  103c61:	e8 f2 dc ff ff       	call   101958 <vga_print>
  103c66:	83 c4 10             	add    esp,0x10
  103c69:	83 ec 08             	sub    esp,0x8
  103c6c:	6a 00                	push   0x0
  103c6e:	6a 0a                	push   0xa
  103c70:	e8 64 d6 ff ff       	call   1012d9 <vga_set_color>
  103c75:	83 c4 10             	add    esp,0x10
  103c78:	83 ec 0c             	sub    esp,0xc
  103c7b:	8d 83 bb e7 ff ff    	lea    eax,[ebx-0x1845]
  103c81:	50                   	push   eax
  103c82:	e8 d1 dc ff ff       	call   101958 <vga_print>
  103c87:	83 c4 10             	add    esp,0x10
  103c8a:	83 ec 0c             	sub    esp,0xc
  103c8d:	ff 75 f0             	push   DWORD PTR [ebp-0x10]
  103c90:	e8 df fb ff ff       	call   103874 <print_uint>
  103c95:	83 c4 10             	add    esp,0x10
  103c98:	83 ec 0c             	sub    esp,0xc
  103c9b:	8d 83 a8 e7 ff ff    	lea    eax,[ebx-0x1858]
  103ca1:	50                   	push   eax
  103ca2:	e8 b1 dc ff ff       	call   101958 <vga_print>
  103ca7:	83 c4 10             	add    esp,0x10
  103caa:	83 ec 08             	sub    esp,0x8
  103cad:	6a 00                	push   0x0
  103caf:	6a 0f                	push   0xf
  103cb1:	e8 23 d6 ff ff       	call   1012d9 <vga_set_color>
  103cb6:	83 c4 10             	add    esp,0x10
  103cb9:	90                   	nop
  103cba:	8b 5d fc             	mov    ebx,DWORD PTR [ebp-0x4]
  103cbd:	c9                   	leave
  103cbe:	c3                   	ret

00103cbf <cmd_help>:
  103cbf:	55                   	push   ebp
  103cc0:	89 e5                	mov    ebp,esp
  103cc2:	53                   	push   ebx
  103cc3:	83 ec 04             	sub    esp,0x4
  103cc6:	e8 8b 2b 00 00       	call   106856 <__x86.get_pc_thunk.bx>
  103ccb:	81 c3 3d 53 00 00    	add    ebx,0x533d
  103cd1:	83 ec 0c             	sub    esp,0xc
  103cd4:	8d 83 3b e7 ff ff    	lea    eax,[ebx-0x18c5]
  103cda:	50                   	push   eax
  103cdb:	e8 78 dc ff ff       	call   101958 <vga_print>
  103ce0:	83 c4 10             	add    esp,0x10
  103ce3:	83 ec 08             	sub    esp,0x8
  103ce6:	6a 00                	push   0x0
  103ce8:	6a 0b                	push   0xb
  103cea:	e8 ea d5 ff ff       	call   1012d9 <vga_set_color>
  103cef:	83 c4 10             	add    esp,0x10
  103cf2:	83 ec 0c             	sub    esp,0xc
  103cf5:	8d 83 cc e7 ff ff    	lea    eax,[ebx-0x1834]
  103cfb:	50                   	push   eax
  103cfc:	e8 57 dc ff ff       	call   101958 <vga_print>
  103d01:	83 c4 10             	add    esp,0x10
  103d04:	83 ec 08             	sub    esp,0x8
  103d07:	6a 00                	push   0x0
  103d09:	6a 0a                	push   0xa
  103d0b:	e8 c9 d5 ff ff       	call   1012d9 <vga_set_color>
  103d10:	83 c4 10             	add    esp,0x10
  103d13:	83 ec 0c             	sub    esp,0xc
  103d16:	8d 83 f5 e7 ff ff    	lea    eax,[ebx-0x180b]
  103d1c:	50                   	push   eax
  103d1d:	e8 36 dc ff ff       	call   101958 <vga_print>
  103d22:	83 c4 10             	add    esp,0x10
  103d25:	83 ec 08             	sub    esp,0x8
  103d28:	6a 00                	push   0x0
  103d2a:	6a 0f                	push   0xf
  103d2c:	e8 a8 d5 ff ff       	call   1012d9 <vga_set_color>
  103d31:	83 c4 10             	add    esp,0x10
  103d34:	83 ec 0c             	sub    esp,0xc
  103d37:	8d 83 01 e8 ff ff    	lea    eax,[ebx-0x17ff]
  103d3d:	50                   	push   eax
  103d3e:	e8 15 dc ff ff       	call   101958 <vga_print>
  103d43:	83 c4 10             	add    esp,0x10
  103d46:	83 ec 08             	sub    esp,0x8
  103d49:	6a 00                	push   0x0
  103d4b:	6a 0a                	push   0xa
  103d4d:	e8 87 d5 ff ff       	call   1012d9 <vga_set_color>
  103d52:	83 c4 10             	add    esp,0x10
  103d55:	83 ec 0c             	sub    esp,0xc
  103d58:	8d 83 15 e8 ff ff    	lea    eax,[ebx-0x17eb]
  103d5e:	50                   	push   eax
  103d5f:	e8 f4 db ff ff       	call   101958 <vga_print>
  103d64:	83 c4 10             	add    esp,0x10
  103d67:	83 ec 08             	sub    esp,0x8
  103d6a:	6a 00                	push   0x0
  103d6c:	6a 0f                	push   0xf
  103d6e:	e8 66 d5 ff ff       	call   1012d9 <vga_set_color>
  103d73:	83 c4 10             	add    esp,0x10
  103d76:	83 ec 0c             	sub    esp,0xc
  103d79:	8d 83 21 e8 ff ff    	lea    eax,[ebx-0x17df]
  103d7f:	50                   	push   eax
  103d80:	e8 d3 db ff ff       	call   101958 <vga_print>
  103d85:	83 c4 10             	add    esp,0x10
  103d88:	83 ec 08             	sub    esp,0x8
  103d8b:	6a 00                	push   0x0
  103d8d:	6a 0a                	push   0xa
  103d8f:	e8 45 d5 ff ff       	call   1012d9 <vga_set_color>
  103d94:	83 c4 10             	add    esp,0x10
  103d97:	83 ec 0c             	sub    esp,0xc
  103d9a:	8d 83 2f e8 ff ff    	lea    eax,[ebx-0x17d1]
  103da0:	50                   	push   eax
  103da1:	e8 b2 db ff ff       	call   101958 <vga_print>
  103da6:	83 c4 10             	add    esp,0x10
  103da9:	83 ec 08             	sub    esp,0x8
  103dac:	6a 00                	push   0x0
  103dae:	6a 0f                	push   0xf
  103db0:	e8 24 d5 ff ff       	call   1012d9 <vga_set_color>
  103db5:	83 c4 10             	add    esp,0x10
  103db8:	83 ec 0c             	sub    esp,0xc
  103dbb:	8d 83 3b e8 ff ff    	lea    eax,[ebx-0x17c5]
  103dc1:	50                   	push   eax
  103dc2:	e8 91 db ff ff       	call   101958 <vga_print>
  103dc7:	83 c4 10             	add    esp,0x10
  103dca:	83 ec 08             	sub    esp,0x8
  103dcd:	6a 00                	push   0x0
  103dcf:	6a 0a                	push   0xa
  103dd1:	e8 03 d5 ff ff       	call   1012d9 <vga_set_color>
  103dd6:	83 c4 10             	add    esp,0x10
  103dd9:	83 ec 0c             	sub    esp,0xc
  103ddc:	8d 83 4c e8 ff ff    	lea    eax,[ebx-0x17b4]
  103de2:	50                   	push   eax
  103de3:	e8 70 db ff ff       	call   101958 <vga_print>
  103de8:	83 c4 10             	add    esp,0x10
  103deb:	83 ec 08             	sub    esp,0x8
  103dee:	6a 00                	push   0x0
  103df0:	6a 0f                	push   0xf
  103df2:	e8 e2 d4 ff ff       	call   1012d9 <vga_set_color>
  103df7:	83 c4 10             	add    esp,0x10
  103dfa:	83 ec 0c             	sub    esp,0xc
  103dfd:	8d 83 58 e8 ff ff    	lea    eax,[ebx-0x17a8]
  103e03:	50                   	push   eax
  103e04:	e8 4f db ff ff       	call   101958 <vga_print>
  103e09:	83 c4 10             	add    esp,0x10
  103e0c:	83 ec 08             	sub    esp,0x8
  103e0f:	6a 00                	push   0x0
  103e11:	6a 0a                	push   0xa
  103e13:	e8 c1 d4 ff ff       	call   1012d9 <vga_set_color>
  103e18:	83 c4 10             	add    esp,0x10
  103e1b:	83 ec 0c             	sub    esp,0xc
  103e1e:	8d 83 6f e8 ff ff    	lea    eax,[ebx-0x1791]
  103e24:	50                   	push   eax
  103e25:	e8 2e db ff ff       	call   101958 <vga_print>
  103e2a:	83 c4 10             	add    esp,0x10
  103e2d:	83 ec 08             	sub    esp,0x8
  103e30:	6a 00                	push   0x0
  103e32:	6a 0f                	push   0xf
  103e34:	e8 a0 d4 ff ff       	call   1012d9 <vga_set_color>
  103e39:	83 c4 10             	add    esp,0x10
  103e3c:	83 ec 0c             	sub    esp,0xc
  103e3f:	8d 83 7b e8 ff ff    	lea    eax,[ebx-0x1785]
  103e45:	50                   	push   eax
  103e46:	e8 0d db ff ff       	call   101958 <vga_print>
  103e4b:	83 c4 10             	add    esp,0x10
  103e4e:	83 ec 08             	sub    esp,0x8
  103e51:	6a 00                	push   0x0
  103e53:	6a 0a                	push   0xa
  103e55:	e8 7f d4 ff ff       	call   1012d9 <vga_set_color>
  103e5a:	83 c4 10             	add    esp,0x10
  103e5d:	83 ec 0c             	sub    esp,0xc
  103e60:	8d 83 91 e8 ff ff    	lea    eax,[ebx-0x176f]
  103e66:	50                   	push   eax
  103e67:	e8 ec da ff ff       	call   101958 <vga_print>
  103e6c:	83 c4 10             	add    esp,0x10
  103e6f:	83 ec 08             	sub    esp,0x8
  103e72:	6a 00                	push   0x0
  103e74:	6a 0f                	push   0xf
  103e76:	e8 5e d4 ff ff       	call   1012d9 <vga_set_color>
  103e7b:	83 c4 10             	add    esp,0x10
  103e7e:	83 ec 0c             	sub    esp,0xc
  103e81:	8d 83 9d e8 ff ff    	lea    eax,[ebx-0x1763]
  103e87:	50                   	push   eax
  103e88:	e8 cb da ff ff       	call   101958 <vga_print>
  103e8d:	83 c4 10             	add    esp,0x10
  103e90:	83 ec 08             	sub    esp,0x8
  103e93:	6a 00                	push   0x0
  103e95:	6a 0a                	push   0xa
  103e97:	e8 3d d4 ff ff       	call   1012d9 <vga_set_color>
  103e9c:	83 c4 10             	add    esp,0x10
  103e9f:	83 ec 0c             	sub    esp,0xc
  103ea2:	8d 83 b6 e8 ff ff    	lea    eax,[ebx-0x174a]
  103ea8:	50                   	push   eax
  103ea9:	e8 aa da ff ff       	call   101958 <vga_print>
  103eae:	83 c4 10             	add    esp,0x10
  103eb1:	83 ec 08             	sub    esp,0x8
  103eb4:	6a 00                	push   0x0
  103eb6:	6a 0f                	push   0xf
  103eb8:	e8 1c d4 ff ff       	call   1012d9 <vga_set_color>
  103ebd:	83 c4 10             	add    esp,0x10
  103ec0:	83 ec 0c             	sub    esp,0xc
  103ec3:	8d 83 c2 e8 ff ff    	lea    eax,[ebx-0x173e]
  103ec9:	50                   	push   eax
  103eca:	e8 89 da ff ff       	call   101958 <vga_print>
  103ecf:	83 c4 10             	add    esp,0x10
  103ed2:	83 ec 08             	sub    esp,0x8
  103ed5:	6a 00                	push   0x0
  103ed7:	6a 0a                	push   0xa
  103ed9:	e8 fb d3 ff ff       	call   1012d9 <vga_set_color>
  103ede:	83 c4 10             	add    esp,0x10
  103ee1:	83 ec 0c             	sub    esp,0xc
  103ee4:	8d 83 d7 e8 ff ff    	lea    eax,[ebx-0x1729]
  103eea:	50                   	push   eax
  103eeb:	e8 68 da ff ff       	call   101958 <vga_print>
  103ef0:	83 c4 10             	add    esp,0x10
  103ef3:	83 ec 08             	sub    esp,0x8
  103ef6:	6a 00                	push   0x0
  103ef8:	6a 0f                	push   0xf
  103efa:	e8 da d3 ff ff       	call   1012d9 <vga_set_color>
  103eff:	83 c4 10             	add    esp,0x10
  103f02:	83 ec 0c             	sub    esp,0xc
  103f05:	8d 83 e3 e8 ff ff    	lea    eax,[ebx-0x171d]
  103f0b:	50                   	push   eax
  103f0c:	e8 47 da ff ff       	call   101958 <vga_print>
  103f11:	83 c4 10             	add    esp,0x10
  103f14:	83 ec 08             	sub    esp,0x8
  103f17:	6a 00                	push   0x0
  103f19:	6a 0a                	push   0xa
  103f1b:	e8 b9 d3 ff ff       	call   1012d9 <vga_set_color>
  103f20:	83 c4 10             	add    esp,0x10
  103f23:	83 ec 0c             	sub    esp,0xc
  103f26:	8d 83 f8 e8 ff ff    	lea    eax,[ebx-0x1708]
  103f2c:	50                   	push   eax
  103f2d:	e8 26 da ff ff       	call   101958 <vga_print>
  103f32:	83 c4 10             	add    esp,0x10
  103f35:	83 ec 08             	sub    esp,0x8
  103f38:	6a 00                	push   0x0
  103f3a:	6a 0f                	push   0xf
  103f3c:	e8 98 d3 ff ff       	call   1012d9 <vga_set_color>
  103f41:	83 c4 10             	add    esp,0x10
  103f44:	83 ec 0c             	sub    esp,0xc
  103f47:	8d 83 04 e9 ff ff    	lea    eax,[ebx-0x16fc]
  103f4d:	50                   	push   eax
  103f4e:	e8 05 da ff ff       	call   101958 <vga_print>
  103f53:	83 c4 10             	add    esp,0x10
  103f56:	83 ec 08             	sub    esp,0x8
  103f59:	6a 00                	push   0x0
  103f5b:	6a 0a                	push   0xa
  103f5d:	e8 77 d3 ff ff       	call   1012d9 <vga_set_color>
  103f62:	83 c4 10             	add    esp,0x10
  103f65:	83 ec 0c             	sub    esp,0xc
  103f68:	8d 83 19 e9 ff ff    	lea    eax,[ebx-0x16e7]
  103f6e:	50                   	push   eax
  103f6f:	e8 e4 d9 ff ff       	call   101958 <vga_print>
  103f74:	83 c4 10             	add    esp,0x10
  103f77:	83 ec 08             	sub    esp,0x8
  103f7a:	6a 00                	push   0x0
  103f7c:	6a 0f                	push   0xf
  103f7e:	e8 56 d3 ff ff       	call   1012d9 <vga_set_color>
  103f83:	83 c4 10             	add    esp,0x10
  103f86:	83 ec 0c             	sub    esp,0xc
  103f89:	8d 83 28 e9 ff ff    	lea    eax,[ebx-0x16d8]
  103f8f:	50                   	push   eax
  103f90:	e8 c3 d9 ff ff       	call   101958 <vga_print>
  103f95:	83 c4 10             	add    esp,0x10
  103f98:	83 ec 08             	sub    esp,0x8
  103f9b:	6a 00                	push   0x0
  103f9d:	6a 0a                	push   0xa
  103f9f:	e8 35 d3 ff ff       	call   1012d9 <vga_set_color>
  103fa4:	83 c4 10             	add    esp,0x10
  103fa7:	83 ec 0c             	sub    esp,0xc
  103faa:	8d 83 48 e9 ff ff    	lea    eax,[ebx-0x16b8]
  103fb0:	50                   	push   eax
  103fb1:	e8 a2 d9 ff ff       	call   101958 <vga_print>
  103fb6:	83 c4 10             	add    esp,0x10
  103fb9:	83 ec 08             	sub    esp,0x8
  103fbc:	6a 00                	push   0x0
  103fbe:	6a 0f                	push   0xf
  103fc0:	e8 14 d3 ff ff       	call   1012d9 <vga_set_color>
  103fc5:	83 c4 10             	add    esp,0x10
  103fc8:	83 ec 0c             	sub    esp,0xc
  103fcb:	8d 83 54 e9 ff ff    	lea    eax,[ebx-0x16ac]
  103fd1:	50                   	push   eax
  103fd2:	e8 81 d9 ff ff       	call   101958 <vga_print>
  103fd7:	83 c4 10             	add    esp,0x10
  103fda:	83 ec 08             	sub    esp,0x8
  103fdd:	6a 00                	push   0x0
  103fdf:	6a 0a                	push   0xa
  103fe1:	e8 f3 d2 ff ff       	call   1012d9 <vga_set_color>
  103fe6:	83 c4 10             	add    esp,0x10
  103fe9:	83 ec 0c             	sub    esp,0xc
  103fec:	8d 83 66 e9 ff ff    	lea    eax,[ebx-0x169a]
  103ff2:	50                   	push   eax
  103ff3:	e8 60 d9 ff ff       	call   101958 <vga_print>
  103ff8:	83 c4 10             	add    esp,0x10
  103ffb:	83 ec 08             	sub    esp,0x8
  103ffe:	6a 00                	push   0x0
  104000:	6a 0f                	push   0xf
  104002:	e8 d2 d2 ff ff       	call   1012d9 <vga_set_color>
  104007:	83 c4 10             	add    esp,0x10
  10400a:	83 ec 0c             	sub    esp,0xc
  10400d:	8d 83 72 e9 ff ff    	lea    eax,[ebx-0x168e]
  104013:	50                   	push   eax
  104014:	e8 3f d9 ff ff       	call   101958 <vga_print>
  104019:	83 c4 10             	add    esp,0x10
  10401c:	90                   	nop
  10401d:	8b 5d fc             	mov    ebx,DWORD PTR [ebp-0x4]
  104020:	c9                   	leave
  104021:	c3                   	ret

00104022 <cmd_echo>:
  104022:	55                   	push   ebp
  104023:	89 e5                	mov    ebp,esp
  104025:	53                   	push   ebx
  104026:	83 ec 04             	sub    esp,0x4
  104029:	e8 28 28 00 00       	call   106856 <__x86.get_pc_thunk.bx>
  10402e:	81 c3 da 4f 00 00    	add    ebx,0x4fda
  104034:	83 ec 0c             	sub    esp,0xc
  104037:	8d 83 7d e9 ff ff    	lea    eax,[ebx-0x1683]
  10403d:	50                   	push   eax
  10403e:	e8 15 d9 ff ff       	call   101958 <vga_print>
  104043:	83 c4 10             	add    esp,0x10
  104046:	8b 45 08             	mov    eax,DWORD PTR [ebp+0x8]
  104049:	0f b6 00             	movzx  eax,BYTE PTR [eax]
  10404c:	84 c0                	test   al,al
  10404e:	74 0e                	je     10405e <cmd_echo+0x3c>
  104050:	83 ec 0c             	sub    esp,0xc
  104053:	ff 75 08             	push   DWORD PTR [ebp+0x8]
  104056:	e8 fd d8 ff ff       	call   101958 <vga_print>
  10405b:	83 c4 10             	add    esp,0x10
  10405e:	83 ec 0c             	sub    esp,0xc
  104061:	8d 83 3b e7 ff ff    	lea    eax,[ebx-0x18c5]
  104067:	50                   	push   eax
  104068:	e8 eb d8 ff ff       	call   101958 <vga_print>
  10406d:	83 c4 10             	add    esp,0x10
  104070:	90                   	nop
  104071:	8b 5d fc             	mov    ebx,DWORD PTR [ebp-0x4]
  104074:	c9                   	leave
  104075:	c3                   	ret

00104076 <cmd_disk>:
  104076:	55                   	push   ebp
  104077:	89 e5                	mov    ebp,esp
  104079:	53                   	push   ebx
  10407a:	83 ec 24             	sub    esp,0x24
  10407d:	e8 d4 27 00 00       	call   106856 <__x86.get_pc_thunk.bx>
  104082:	81 c3 86 4f 00 00    	add    ebx,0x4f86
  104088:	c7 c0 60 6f 12 00    	mov    eax,0x126f60
  10408e:	0f b6 00             	movzx  eax,BYTE PTR [eax]
  104091:	84 c0                	test   al,al
  104093:	75 35                	jne    1040ca <cmd_disk+0x54>
  104095:	83 ec 08             	sub    esp,0x8
  104098:	6a 00                	push   0x0
  10409a:	6a 0c                	push   0xc
  10409c:	e8 38 d2 ff ff       	call   1012d9 <vga_set_color>
  1040a1:	83 c4 10             	add    esp,0x10
  1040a4:	83 ec 0c             	sub    esp,0xc
  1040a7:	8d 83 81 e9 ff ff    	lea    eax,[ebx-0x167f]
  1040ad:	50                   	push   eax
  1040ae:	e8 a5 d8 ff ff       	call   101958 <vga_print>
  1040b3:	83 c4 10             	add    esp,0x10
  1040b6:	83 ec 08             	sub    esp,0x8
  1040b9:	6a 00                	push   0x0
  1040bb:	6a 0f                	push   0xf
  1040bd:	e8 17 d2 ff ff       	call   1012d9 <vga_set_color>
  1040c2:	83 c4 10             	add    esp,0x10
  1040c5:	e9 39 01 00 00       	jmp    104203 <cmd_disk+0x18d>
  1040ca:	83 ec 0c             	sub    esp,0xc
  1040cd:	8d 83 3b e7 ff ff    	lea    eax,[ebx-0x18c5]
  1040d3:	50                   	push   eax
  1040d4:	e8 7f d8 ff ff       	call   101958 <vga_print>
  1040d9:	83 c4 10             	add    esp,0x10
  1040dc:	83 ec 08             	sub    esp,0x8
  1040df:	6a 00                	push   0x0
  1040e1:	6a 0b                	push   0xb
  1040e3:	e8 f1 d1 ff ff       	call   1012d9 <vga_set_color>
  1040e8:	83 c4 10             	add    esp,0x10
  1040eb:	83 ec 0c             	sub    esp,0xc
  1040ee:	8d 83 97 e9 ff ff    	lea    eax,[ebx-0x1669]
  1040f4:	50                   	push   eax
  1040f5:	e8 5e d8 ff ff       	call   101958 <vga_print>
  1040fa:	83 c4 10             	add    esp,0x10
  1040fd:	83 ec 08             	sub    esp,0x8
  104100:	6a 00                	push   0x0
  104102:	6a 0f                	push   0xf
  104104:	e8 d0 d1 ff ff       	call   1012d9 <vga_set_color>
  104109:	83 c4 10             	add    esp,0x10
  10410c:	83 ec 0c             	sub    esp,0xc
  10410f:	8d 83 9f e9 ff ff    	lea    eax,[ebx-0x1661]
  104115:	50                   	push   eax
  104116:	e8 3d d8 ff ff       	call   101958 <vga_print>
  10411b:	83 c4 10             	add    esp,0x10
  10411e:	c7 c0 60 6f 12 00    	mov    eax,0x126f60
  104124:	0f b6 40 08          	movzx  eax,BYTE PTR [eax+0x8]
  104128:	84 c0                	test   al,al
  10412a:	74 0b                	je     104137 <cmd_disk+0xc1>
  10412c:	c7 c0 60 6f 12 00    	mov    eax,0x126f60
  104132:	8d 40 08             	lea    eax,[eax+0x8]
  104135:	eb 06                	jmp    10413d <cmd_disk+0xc7>
  104137:	8d 83 ae e9 ff ff    	lea    eax,[ebx-0x1652]
  10413d:	83 ec 0c             	sub    esp,0xc
  104140:	50                   	push   eax
  104141:	e8 12 d8 ff ff       	call   101958 <vga_print>
  104146:	83 c4 10             	add    esp,0x10
  104149:	83 ec 0c             	sub    esp,0xc
  10414c:	8d 83 b8 e9 ff ff    	lea    eax,[ebx-0x1648]
  104152:	50                   	push   eax
  104153:	e8 00 d8 ff ff       	call   101958 <vga_print>
  104158:	83 c4 10             	add    esp,0x10
  10415b:	c6 45 ef 00          	mov    BYTE PTR [ebp-0x11],0x0
  10415f:	c7 45 f4 0a 00 00 00 	mov    DWORD PTR [ebp-0xc],0xa
  104166:	c7 c0 60 6f 12 00    	mov    eax,0x126f60
  10416c:	8b 40 04             	mov    eax,DWORD PTR [eax+0x4]
  10416f:	89 45 f0             	mov    DWORD PTR [ebp-0x10],eax
  104172:	83 7d f0 00          	cmp    DWORD PTR [ebp-0x10],0x0
  104176:	75 56                	jne    1041ce <cmd_disk+0x158>
  104178:	83 ec 0c             	sub    esp,0xc
  10417b:	8d 83 24 e7 ff ff    	lea    eax,[ebx-0x18dc]
  104181:	50                   	push   eax
  104182:	e8 d1 d7 ff ff       	call   101958 <vga_print>
  104187:	83 c4 10             	add    esp,0x10
  10418a:	eb 65                	jmp    1041f1 <cmd_disk+0x17b>
  10418c:	8b 4d f0             	mov    ecx,DWORD PTR [ebp-0x10]
  10418f:	ba cd cc cc cc       	mov    edx,0xcccccccd
  104194:	89 c8                	mov    eax,ecx
  104196:	f7 e2                	mul    edx
  104198:	c1 ea 03             	shr    edx,0x3
  10419b:	89 d0                	mov    eax,edx
  10419d:	c1 e0 02             	shl    eax,0x2
  1041a0:	01 d0                	add    eax,edx
  1041a2:	01 c0                	add    eax,eax
  1041a4:	29 c1                	sub    ecx,eax
  1041a6:	89 ca                	mov    edx,ecx
  1041a8:	89 d0                	mov    eax,edx
  1041aa:	8d 48 30             	lea    ecx,[eax+0x30]
  1041ad:	8b 45 f4             	mov    eax,DWORD PTR [ebp-0xc]
  1041b0:	8d 50 ff             	lea    edx,[eax-0x1]
  1041b3:	89 55 f4             	mov    DWORD PTR [ebp-0xc],edx
  1041b6:	89 ca                	mov    edx,ecx
  1041b8:	88 54 05 e4          	mov    BYTE PTR [ebp+eax*1-0x1c],dl
  1041bc:	8b 45 f0             	mov    eax,DWORD PTR [ebp-0x10]
  1041bf:	ba cd cc cc cc       	mov    edx,0xcccccccd
  1041c4:	f7 e2                	mul    edx
  1041c6:	89 d0                	mov    eax,edx
  1041c8:	c1 e8 03             	shr    eax,0x3
  1041cb:	89 45 f0             	mov    DWORD PTR [ebp-0x10],eax
  1041ce:	83 7d f0 00          	cmp    DWORD PTR [ebp-0x10],0x0
  1041d2:	74 06                	je     1041da <cmd_disk+0x164>
  1041d4:	83 7d f4 00          	cmp    DWORD PTR [ebp-0xc],0x0
  1041d8:	79 b2                	jns    10418c <cmd_disk+0x116>
  1041da:	8b 45 f4             	mov    eax,DWORD PTR [ebp-0xc]
  1041dd:	8d 50 01             	lea    edx,[eax+0x1]
  1041e0:	8d 45 e4             	lea    eax,[ebp-0x1c]
  1041e3:	01 d0                	add    eax,edx
  1041e5:	83 ec 0c             	sub    esp,0xc
  1041e8:	50                   	push   eax
  1041e9:	e8 6a d7 ff ff       	call   101958 <vga_print>
  1041ee:	83 c4 10             	add    esp,0x10
  1041f1:	83 ec 0c             	sub    esp,0xc
  1041f4:	8d 83 3b e7 ff ff    	lea    eax,[ebx-0x18c5]
  1041fa:	50                   	push   eax
  1041fb:	e8 58 d7 ff ff       	call   101958 <vga_print>
  104200:	83 c4 10             	add    esp,0x10
  104203:	8b 5d fc             	mov    ebx,DWORD PTR [ebp-0x4]
  104206:	c9                   	leave
  104207:	c3                   	ret

00104208 <cmd_diskread>:
  104208:	55                   	push   ebp
  104209:	89 e5                	mov    ebp,esp
  10420b:	53                   	push   ebx
  10420c:	81 ec 44 02 00 00    	sub    esp,0x244
  104212:	e8 3f 26 00 00       	call   106856 <__x86.get_pc_thunk.bx>
  104217:	81 c3 f1 4d 00 00    	add    ebx,0x4df1
  10421d:	c7 45 f4 00 00 00 00 	mov    DWORD PTR [ebp-0xc],0x0
  104224:	eb 23                	jmp    104249 <cmd_diskread+0x41>
  104226:	8b 55 f4             	mov    edx,DWORD PTR [ebp-0xc]
  104229:	89 d0                	mov    eax,edx
  10422b:	c1 e0 02             	shl    eax,0x2
  10422e:	01 d0                	add    eax,edx
  104230:	01 c0                	add    eax,eax
  104232:	89 c2                	mov    edx,eax
  104234:	8b 45 08             	mov    eax,DWORD PTR [ebp+0x8]
  104237:	0f b6 00             	movzx  eax,BYTE PTR [eax]
  10423a:	0f be c0             	movsx  eax,al
  10423d:	01 d0                	add    eax,edx
  10423f:	83 e8 30             	sub    eax,0x30
  104242:	89 45 f4             	mov    DWORD PTR [ebp-0xc],eax
  104245:	83 45 08 01          	add    DWORD PTR [ebp+0x8],0x1
  104249:	8b 45 08             	mov    eax,DWORD PTR [ebp+0x8]
  10424c:	0f b6 00             	movzx  eax,BYTE PTR [eax]
  10424f:	3c 2f                	cmp    al,0x2f
  104251:	7e 0a                	jle    10425d <cmd_diskread+0x55>
  104253:	8b 45 08             	mov    eax,DWORD PTR [ebp+0x8]
  104256:	0f b6 00             	movzx  eax,BYTE PTR [eax]
  104259:	3c 39                	cmp    al,0x39
  10425b:	7e c9                	jle    104226 <cmd_diskread+0x1e>
  10425d:	c7 c0 60 6f 12 00    	mov    eax,0x126f60
  104263:	0f b6 00             	movzx  eax,BYTE PTR [eax]
  104266:	84 c0                	test   al,al
  104268:	0f 84 fb 00 00 00    	je     104369 <cmd_diskread+0x161>
  10426e:	c7 c0 60 6f 12 00    	mov    eax,0x126f60
  104274:	8b 40 04             	mov    eax,DWORD PTR [eax+0x4]
  104277:	39 45 f4             	cmp    DWORD PTR [ebp-0xc],eax
  10427a:	0f 82 e9 00 00 00    	jb     104369 <cmd_diskread+0x161>
  104280:	83 ec 08             	sub    esp,0x8
  104283:	6a 00                	push   0x0
  104285:	6a 0c                	push   0xc
  104287:	e8 4d d0 ff ff       	call   1012d9 <vga_set_color>
  10428c:	83 c4 10             	add    esp,0x10
  10428f:	83 ec 0c             	sub    esp,0xc
  104292:	8d 83 c8 e9 ff ff    	lea    eax,[ebx-0x1638]
  104298:	50                   	push   eax
  104299:	e8 ba d6 ff ff       	call   101958 <vga_print>
  10429e:	83 c4 10             	add    esp,0x10
  1042a1:	c6 85 d2 fd ff ff 00 	mov    BYTE PTR [ebp-0x22e],0x0
  1042a8:	c7 45 f0 0a 00 00 00 	mov    DWORD PTR [ebp-0x10],0xa
  1042af:	c7 c0 60 6f 12 00    	mov    eax,0x126f60
  1042b5:	8b 40 04             	mov    eax,DWORD PTR [eax+0x4]
  1042b8:	83 e8 01             	sub    eax,0x1
  1042bb:	89 45 ec             	mov    DWORD PTR [ebp-0x14],eax
  1042be:	83 7d ec 00          	cmp    DWORD PTR [ebp-0x14],0x0
  1042c2:	75 59                	jne    10431d <cmd_diskread+0x115>
  1042c4:	83 ec 0c             	sub    esp,0xc
  1042c7:	8d 83 24 e7 ff ff    	lea    eax,[ebx-0x18dc]
  1042cd:	50                   	push   eax
  1042ce:	e8 85 d6 ff ff       	call   101958 <vga_print>
  1042d3:	83 c4 10             	add    esp,0x10
  1042d6:	eb 6b                	jmp    104343 <cmd_diskread+0x13b>
  1042d8:	8b 4d ec             	mov    ecx,DWORD PTR [ebp-0x14]
  1042db:	ba cd cc cc cc       	mov    edx,0xcccccccd
  1042e0:	89 c8                	mov    eax,ecx
  1042e2:	f7 e2                	mul    edx
  1042e4:	c1 ea 03             	shr    edx,0x3
  1042e7:	89 d0                	mov    eax,edx
  1042e9:	c1 e0 02             	shl    eax,0x2
  1042ec:	01 d0                	add    eax,edx
  1042ee:	01 c0                	add    eax,eax
  1042f0:	29 c1                	sub    ecx,eax
  1042f2:	89 ca                	mov    edx,ecx
  1042f4:	89 d0                	mov    eax,edx
  1042f6:	8d 48 30             	lea    ecx,[eax+0x30]
  1042f9:	8b 45 f0             	mov    eax,DWORD PTR [ebp-0x10]
  1042fc:	8d 50 ff             	lea    edx,[eax-0x1]
  1042ff:	89 55 f0             	mov    DWORD PTR [ebp-0x10],edx
  104302:	89 ca                	mov    edx,ecx
  104304:	88 94 05 c7 fd ff ff 	mov    BYTE PTR [ebp+eax*1-0x239],dl
  10430b:	8b 45 ec             	mov    eax,DWORD PTR [ebp-0x14]
  10430e:	ba cd cc cc cc       	mov    edx,0xcccccccd
  104313:	f7 e2                	mul    edx
  104315:	89 d0                	mov    eax,edx
  104317:	c1 e8 03             	shr    eax,0x3
  10431a:	89 45 ec             	mov    DWORD PTR [ebp-0x14],eax
  10431d:	83 7d ec 00          	cmp    DWORD PTR [ebp-0x14],0x0
  104321:	74 06                	je     104329 <cmd_diskread+0x121>
  104323:	83 7d f0 00          	cmp    DWORD PTR [ebp-0x10],0x0
  104327:	79 af                	jns    1042d8 <cmd_diskread+0xd0>
  104329:	8b 45 f0             	mov    eax,DWORD PTR [ebp-0x10]
  10432c:	8d 50 01             	lea    edx,[eax+0x1]
  10432f:	8d 85 c7 fd ff ff    	lea    eax,[ebp-0x239]
  104335:	01 d0                	add    eax,edx
  104337:	83 ec 0c             	sub    esp,0xc
  10433a:	50                   	push   eax
  10433b:	e8 18 d6 ff ff       	call   101958 <vga_print>
  104340:	83 c4 10             	add    esp,0x10
  104343:	83 ec 0c             	sub    esp,0xc
  104346:	8d 83 3b e7 ff ff    	lea    eax,[ebx-0x18c5]
  10434c:	50                   	push   eax
  10434d:	e8 06 d6 ff ff       	call   101958 <vga_print>
  104352:	83 c4 10             	add    esp,0x10
  104355:	83 ec 08             	sub    esp,0x8
  104358:	6a 00                	push   0x0
  10435a:	6a 0f                	push   0xf
  10435c:	e8 78 cf ff ff       	call   1012d9 <vga_set_color>
  104361:	83 c4 10             	add    esp,0x10
  104364:	e9 bf 01 00 00       	jmp    104528 <cmd_diskread+0x320>
  104369:	83 ec 08             	sub    esp,0x8
  10436c:	8d 85 df fd ff ff    	lea    eax,[ebp-0x221]
  104372:	50                   	push   eax
  104373:	ff 75 f4             	push   DWORD PTR [ebp-0xc]
  104376:	e8 c6 16 00 00       	call   105a41 <ata_read_sector>
  10437b:	83 c4 10             	add    esp,0x10
  10437e:	85 c0                	test   eax,eax
  104380:	74 35                	je     1043b7 <cmd_diskread+0x1af>
  104382:	83 ec 08             	sub    esp,0x8
  104385:	6a 00                	push   0x0
  104387:	6a 0c                	push   0xc
  104389:	e8 4b cf ff ff       	call   1012d9 <vga_set_color>
  10438e:	83 c4 10             	add    esp,0x10
  104391:	83 ec 0c             	sub    esp,0xc
  104394:	8d 83 e6 e9 ff ff    	lea    eax,[ebx-0x161a]
  10439a:	50                   	push   eax
  10439b:	e8 b8 d5 ff ff       	call   101958 <vga_print>
  1043a0:	83 c4 10             	add    esp,0x10
  1043a3:	83 ec 08             	sub    esp,0x8
  1043a6:	6a 00                	push   0x0
  1043a8:	6a 0f                	push   0xf
  1043aa:	e8 2a cf ff ff       	call   1012d9 <vga_set_color>
  1043af:	83 c4 10             	add    esp,0x10
  1043b2:	e9 71 01 00 00       	jmp    104528 <cmd_diskread+0x320>
  1043b7:	83 ec 0c             	sub    esp,0xc
  1043ba:	8d 83 f7 e9 ff ff    	lea    eax,[ebx-0x1609]
  1043c0:	50                   	push   eax
  1043c1:	e8 92 d5 ff ff       	call   101958 <vga_print>
  1043c6:	83 c4 10             	add    esp,0x10
  1043c9:	c6 85 de fd ff ff 00 	mov    BYTE PTR [ebp-0x222],0x0
  1043d0:	c7 45 e8 0a 00 00 00 	mov    DWORD PTR [ebp-0x18],0xa
  1043d7:	8b 45 f4             	mov    eax,DWORD PTR [ebp-0xc]
  1043da:	89 45 e4             	mov    DWORD PTR [ebp-0x1c],eax
  1043dd:	83 7d e4 00          	cmp    DWORD PTR [ebp-0x1c],0x0
  1043e1:	75 59                	jne    10443c <cmd_diskread+0x234>
  1043e3:	83 ec 0c             	sub    esp,0xc
  1043e6:	8d 83 24 e7 ff ff    	lea    eax,[ebx-0x18dc]
  1043ec:	50                   	push   eax
  1043ed:	e8 66 d5 ff ff       	call   101958 <vga_print>
  1043f2:	83 c4 10             	add    esp,0x10
  1043f5:	eb 6b                	jmp    104462 <cmd_diskread+0x25a>
  1043f7:	8b 4d e4             	mov    ecx,DWORD PTR [ebp-0x1c]
  1043fa:	ba cd cc cc cc       	mov    edx,0xcccccccd
  1043ff:	89 c8                	mov    eax,ecx
  104401:	f7 e2                	mul    edx
  104403:	c1 ea 03             	shr    edx,0x3
  104406:	89 d0                	mov    eax,edx
  104408:	c1 e0 02             	shl    eax,0x2
  10440b:	01 d0                	add    eax,edx
  10440d:	01 c0                	add    eax,eax
  10440f:	29 c1                	sub    ecx,eax
  104411:	89 ca                	mov    edx,ecx
  104413:	89 d0                	mov    eax,edx
  104415:	8d 48 30             	lea    ecx,[eax+0x30]
  104418:	8b 45 e8             	mov    eax,DWORD PTR [ebp-0x18]
  10441b:	8d 50 ff             	lea    edx,[eax-0x1]
  10441e:	89 55 e8             	mov    DWORD PTR [ebp-0x18],edx
  104421:	89 ca                	mov    edx,ecx
  104423:	88 94 05 d3 fd ff ff 	mov    BYTE PTR [ebp+eax*1-0x22d],dl
  10442a:	8b 45 e4             	mov    eax,DWORD PTR [ebp-0x1c]
  10442d:	ba cd cc cc cc       	mov    edx,0xcccccccd
  104432:	f7 e2                	mul    edx
  104434:	89 d0                	mov    eax,edx
  104436:	c1 e8 03             	shr    eax,0x3
  104439:	89 45 e4             	mov    DWORD PTR [ebp-0x1c],eax
  10443c:	83 7d e4 00          	cmp    DWORD PTR [ebp-0x1c],0x0
  104440:	74 06                	je     104448 <cmd_diskread+0x240>
  104442:	83 7d e8 00          	cmp    DWORD PTR [ebp-0x18],0x0
  104446:	79 af                	jns    1043f7 <cmd_diskread+0x1ef>
  104448:	8b 45 e8             	mov    eax,DWORD PTR [ebp-0x18]
  10444b:	8d 50 01             	lea    edx,[eax+0x1]
  10444e:	8d 85 d3 fd ff ff    	lea    eax,[ebp-0x22d]
  104454:	01 d0                	add    eax,edx
  104456:	83 ec 0c             	sub    esp,0xc
  104459:	50                   	push   eax
  10445a:	e8 f9 d4 ff ff       	call   101958 <vga_print>
  10445f:	83 c4 10             	add    esp,0x10
  104462:	83 ec 0c             	sub    esp,0xc
  104465:	8d 83 02 ea ff ff    	lea    eax,[ebx-0x15fe]
  10446b:	50                   	push   eax
  10446c:	e8 e7 d4 ff ff       	call   101958 <vga_print>
  104471:	83 c4 10             	add    esp,0x10
  104474:	c7 45 e0 00 00 00 00 	mov    DWORD PTR [ebp-0x20],0x0
  10447b:	e9 8c 00 00 00       	jmp    10450c <cmd_diskread+0x304>
  104480:	8d 95 df fd ff ff    	lea    edx,[ebp-0x221]
  104486:	8b 45 e0             	mov    eax,DWORD PTR [ebp-0x20]
  104489:	01 d0                	add    eax,edx
  10448b:	0f b6 00             	movzx  eax,BYTE PTR [eax]
  10448e:	88 45 df             	mov    BYTE PTR [ebp-0x21],al
  104491:	c6 85 c6 fd ff ff 00 	mov    BYTE PTR [ebp-0x23a],0x0
  104498:	0f b6 45 df          	movzx  eax,BYTE PTR [ebp-0x21]
  10449c:	c0 e8 04             	shr    al,0x4
  10449f:	0f b6 c0             	movzx  eax,al
  1044a2:	0f b6 84 03 1a ea ff 	movzx  eax,BYTE PTR [ebx+eax*1-0x15e6]
  1044a9:	ff 
  1044aa:	88 85 c4 fd ff ff    	mov    BYTE PTR [ebp-0x23c],al
  1044b0:	0f b6 45 df          	movzx  eax,BYTE PTR [ebp-0x21]
  1044b4:	83 e0 0f             	and    eax,0xf
  1044b7:	0f b6 84 03 1a ea ff 	movzx  eax,BYTE PTR [ebx+eax*1-0x15e6]
  1044be:	ff 
  1044bf:	88 85 c5 fd ff ff    	mov    BYTE PTR [ebp-0x23b],al
  1044c5:	83 ec 0c             	sub    esp,0xc
  1044c8:	8d 85 c4 fd ff ff    	lea    eax,[ebp-0x23c]
  1044ce:	50                   	push   eax
  1044cf:	e8 84 d4 ff ff       	call   101958 <vga_print>
  1044d4:	83 c4 10             	add    esp,0x10
  1044d7:	83 ec 0c             	sub    esp,0xc
  1044da:	8d 83 18 ea ff ff    	lea    eax,[ebx-0x15e8]
  1044e0:	50                   	push   eax
  1044e1:	e8 72 d4 ff ff       	call   101958 <vga_print>
  1044e6:	83 c4 10             	add    esp,0x10
  1044e9:	8b 45 e0             	mov    eax,DWORD PTR [ebp-0x20]
  1044ec:	83 c0 01             	add    eax,0x1
  1044ef:	83 e0 0f             	and    eax,0xf
  1044f2:	85 c0                	test   eax,eax
  1044f4:	75 12                	jne    104508 <cmd_diskread+0x300>
  1044f6:	83 ec 0c             	sub    esp,0xc
  1044f9:	8d 83 7d e9 ff ff    	lea    eax,[ebx-0x1683]
  1044ff:	50                   	push   eax
  104500:	e8 53 d4 ff ff       	call   101958 <vga_print>
  104505:	83 c4 10             	add    esp,0x10
  104508:	83 45 e0 01          	add    DWORD PTR [ebp-0x20],0x1
  10450c:	83 7d e0 3f          	cmp    DWORD PTR [ebp-0x20],0x3f
  104510:	0f 8e 6a ff ff ff    	jle    104480 <cmd_diskread+0x278>
  104516:	83 ec 0c             	sub    esp,0xc
  104519:	8d 83 3b e7 ff ff    	lea    eax,[ebx-0x18c5]
  10451f:	50                   	push   eax
  104520:	e8 33 d4 ff ff       	call   101958 <vga_print>
  104525:	83 c4 10             	add    esp,0x10
  104528:	8b 5d fc             	mov    ebx,DWORD PTR [ebp-0x4]
  10452b:	c9                   	leave
  10452c:	c3                   	ret

0010452d <cmd_fetch>:
  10452d:	55                   	push   ebp
  10452e:	89 e5                	mov    ebp,esp
  104530:	53                   	push   ebx
  104531:	83 ec 64             	sub    esp,0x64
  104534:	e8 1d 23 00 00       	call   106856 <__x86.get_pc_thunk.bx>
  104539:	81 c3 cf 4a 00 00    	add    ebx,0x4acf
  10453f:	e8 70 e4 ff ff       	call   1029b4 <pmm_get_total_frames>
  104544:	c1 e0 02             	shl    eax,0x2
  104547:	89 45 f0             	mov    DWORD PTR [ebp-0x10],eax
  10454a:	e8 7a e4 ff ff       	call   1029c9 <pmm_get_free_frames>
  10454f:	c1 e0 02             	shl    eax,0x2
  104552:	89 45 ec             	mov    DWORD PTR [ebp-0x14],eax
  104555:	e8 9d ee ff ff       	call   1033f7 <pit_get_ticks>
  10455a:	89 45 e8             	mov    DWORD PTR [ebp-0x18],eax
  10455d:	8b 45 e8             	mov    eax,DWORD PTR [ebp-0x18]
  104560:	ba 1f 85 eb 51       	mov    edx,0x51eb851f
  104565:	f7 e2                	mul    edx
  104567:	89 d0                	mov    eax,edx
  104569:	c1 e8 05             	shr    eax,0x5
  10456c:	89 45 e4             	mov    DWORD PTR [ebp-0x1c],eax
  10456f:	83 ec 0c             	sub    esp,0xc
  104572:	8d 83 3b e7 ff ff    	lea    eax,[ebx-0x18c5]
  104578:	50                   	push   eax
  104579:	e8 da d3 ff ff       	call   101958 <vga_print>
  10457e:	83 c4 10             	add    esp,0x10
  104581:	83 ec 08             	sub    esp,0x8
  104584:	6a 00                	push   0x0
  104586:	6a 0b                	push   0xb
  104588:	e8 4c cd ff ff       	call   1012d9 <vga_set_color>
  10458d:	83 c4 10             	add    esp,0x10
  104590:	83 ec 0c             	sub    esp,0xc
  104593:	8d 83 2c ea ff ff    	lea    eax,[ebx-0x15d4]
  104599:	50                   	push   eax
  10459a:	e8 b9 d3 ff ff       	call   101958 <vga_print>
  10459f:	83 c4 10             	add    esp,0x10
  1045a2:	83 ec 08             	sub    esp,0x8
  1045a5:	6a 00                	push   0x0
  1045a7:	6a 03                	push   0x3
  1045a9:	e8 2b cd ff ff       	call   1012d9 <vga_set_color>
  1045ae:	83 c4 10             	add    esp,0x10
  1045b1:	83 ec 0c             	sub    esp,0xc
  1045b4:	8d 83 60 ea ff ff    	lea    eax,[ebx-0x15a0]
  1045ba:	50                   	push   eax
  1045bb:	e8 98 d3 ff ff       	call   101958 <vga_print>
  1045c0:	83 c4 10             	add    esp,0x10
  1045c3:	83 ec 0c             	sub    esp,0xc
  1045c6:	8d 83 98 ea ff ff    	lea    eax,[ebx-0x1568]
  1045cc:	50                   	push   eax
  1045cd:	e8 86 d3 ff ff       	call   101958 <vga_print>
  1045d2:	83 c4 10             	add    esp,0x10
  1045d5:	83 ec 08             	sub    esp,0x8
  1045d8:	6a 00                	push   0x0
  1045da:	6a 08                	push   0x8
  1045dc:	e8 f8 cc ff ff       	call   1012d9 <vga_set_color>
  1045e1:	83 c4 10             	add    esp,0x10
  1045e4:	83 ec 0c             	sub    esp,0xc
  1045e7:	8d 83 cc ea ff ff    	lea    eax,[ebx-0x1534]
  1045ed:	50                   	push   eax
  1045ee:	e8 65 d3 ff ff       	call   101958 <vga_print>
  1045f3:	83 c4 10             	add    esp,0x10
  1045f6:	83 ec 0c             	sub    esp,0xc
  1045f9:	8d 83 3b e7 ff ff    	lea    eax,[ebx-0x18c5]
  1045ff:	50                   	push   eax
  104600:	e8 53 d3 ff ff       	call   101958 <vga_print>
  104605:	83 c4 10             	add    esp,0x10
  104608:	83 ec 08             	sub    esp,0x8
  10460b:	6a 00                	push   0x0
  10460d:	6a 0b                	push   0xb
  10460f:	e8 c5 cc ff ff       	call   1012d9 <vga_set_color>
  104614:	83 c4 10             	add    esp,0x10
  104617:	83 ec 0c             	sub    esp,0xc
  10461a:	8d 83 03 eb ff ff    	lea    eax,[ebx-0x14fd]
  104620:	50                   	push   eax
  104621:	e8 32 d3 ff ff       	call   101958 <vga_print>
  104626:	83 c4 10             	add    esp,0x10
  104629:	83 ec 08             	sub    esp,0x8
  10462c:	6a 00                	push   0x0
  10462e:	6a 0f                	push   0xf
  104630:	e8 a4 cc ff ff       	call   1012d9 <vga_set_color>
  104635:	83 c4 10             	add    esp,0x10
  104638:	83 ec 0c             	sub    esp,0xc
  10463b:	8d 83 0f eb ff ff    	lea    eax,[ebx-0x14f1]
  104641:	50                   	push   eax
  104642:	e8 11 d3 ff ff       	call   101958 <vga_print>
  104647:	83 c4 10             	add    esp,0x10
  10464a:	83 ec 08             	sub    esp,0x8
  10464d:	6a 00                	push   0x0
  10464f:	6a 0b                	push   0xb
  104651:	e8 83 cc ff ff       	call   1012d9 <vga_set_color>
  104656:	83 c4 10             	add    esp,0x10
  104659:	83 ec 0c             	sub    esp,0xc
  10465c:	8d 83 20 eb ff ff    	lea    eax,[ebx-0x14e0]
  104662:	50                   	push   eax
  104663:	e8 f0 d2 ff ff       	call   101958 <vga_print>
  104668:	83 c4 10             	add    esp,0x10
  10466b:	83 ec 08             	sub    esp,0x8
  10466e:	6a 00                	push   0x0
  104670:	6a 0f                	push   0xf
  104672:	e8 62 cc ff ff       	call   1012d9 <vga_set_color>
  104677:	83 c4 10             	add    esp,0x10
  10467a:	83 ec 0c             	sub    esp,0xc
  10467d:	8d 83 2c eb ff ff    	lea    eax,[ebx-0x14d4]
  104683:	50                   	push   eax
  104684:	e8 cf d2 ff ff       	call   101958 <vga_print>
  104689:	83 c4 10             	add    esp,0x10
  10468c:	83 ec 08             	sub    esp,0x8
  10468f:	6a 00                	push   0x0
  104691:	6a 0b                	push   0xb
  104693:	e8 41 cc ff ff       	call   1012d9 <vga_set_color>
  104698:	83 c4 10             	add    esp,0x10
  10469b:	83 ec 0c             	sub    esp,0xc
  10469e:	8d 83 34 eb ff ff    	lea    eax,[ebx-0x14cc]
  1046a4:	50                   	push   eax
  1046a5:	e8 ae d2 ff ff       	call   101958 <vga_print>
  1046aa:	83 c4 10             	add    esp,0x10
  1046ad:	83 ec 08             	sub    esp,0x8
  1046b0:	6a 00                	push   0x0
  1046b2:	6a 0f                	push   0xf
  1046b4:	e8 20 cc ff ff       	call   1012d9 <vga_set_color>
  1046b9:	83 c4 10             	add    esp,0x10
  1046bc:	83 ec 0c             	sub    esp,0xc
  1046bf:	8d 83 40 eb ff ff    	lea    eax,[ebx-0x14c0]
  1046c5:	50                   	push   eax
  1046c6:	e8 8d d2 ff ff       	call   101958 <vga_print>
  1046cb:	83 c4 10             	add    esp,0x10
  1046ce:	83 ec 08             	sub    esp,0x8
  1046d1:	6a 00                	push   0x0
  1046d3:	6a 0b                	push   0xb
  1046d5:	e8 ff cb ff ff       	call   1012d9 <vga_set_color>
  1046da:	83 c4 10             	add    esp,0x10
  1046dd:	83 ec 0c             	sub    esp,0xc
  1046e0:	8d 83 46 eb ff ff    	lea    eax,[ebx-0x14ba]
  1046e6:	50                   	push   eax
  1046e7:	e8 6c d2 ff ff       	call   101958 <vga_print>
  1046ec:	83 c4 10             	add    esp,0x10
  1046ef:	83 ec 08             	sub    esp,0x8
  1046f2:	6a 00                	push   0x0
  1046f4:	6a 0f                	push   0xf
  1046f6:	e8 de cb ff ff       	call   1012d9 <vga_set_color>
  1046fb:	83 c4 10             	add    esp,0x10
  1046fe:	83 ec 0c             	sub    esp,0xc
  104701:	8d 83 52 eb ff ff    	lea    eax,[ebx-0x14ae]
  104707:	50                   	push   eax
  104708:	e8 4b d2 ff ff       	call   101958 <vga_print>
  10470d:	83 c4 10             	add    esp,0x10
  104710:	83 ec 08             	sub    esp,0x8
  104713:	6a 00                	push   0x0
  104715:	6a 0b                	push   0xb
  104717:	e8 bd cb ff ff       	call   1012d9 <vga_set_color>
  10471c:	83 c4 10             	add    esp,0x10
  10471f:	83 ec 0c             	sub    esp,0xc
  104722:	8d 83 58 eb ff ff    	lea    eax,[ebx-0x14a8]
  104728:	50                   	push   eax
  104729:	e8 2a d2 ff ff       	call   101958 <vga_print>
  10472e:	83 c4 10             	add    esp,0x10
  104731:	83 ec 08             	sub    esp,0x8
  104734:	6a 00                	push   0x0
  104736:	6a 0f                	push   0xf
  104738:	e8 9c cb ff ff       	call   1012d9 <vga_set_color>
  10473d:	83 c4 10             	add    esp,0x10
  104740:	83 ec 0c             	sub    esp,0xc
  104743:	8d 83 64 eb ff ff    	lea    eax,[ebx-0x149c]
  104749:	50                   	push   eax
  10474a:	e8 09 d2 ff ff       	call   101958 <vga_print>
  10474f:	83 c4 10             	add    esp,0x10
  104752:	83 ec 08             	sub    esp,0x8
  104755:	6a 00                	push   0x0
  104757:	6a 0b                	push   0xb
  104759:	e8 7b cb ff ff       	call   1012d9 <vga_set_color>
  10475e:	83 c4 10             	add    esp,0x10
  104761:	83 ec 0c             	sub    esp,0xc
  104764:	8d 83 7f eb ff ff    	lea    eax,[ebx-0x1481]
  10476a:	50                   	push   eax
  10476b:	e8 e8 d1 ff ff       	call   101958 <vga_print>
  104770:	83 c4 10             	add    esp,0x10
  104773:	83 ec 08             	sub    esp,0x8
  104776:	6a 00                	push   0x0
  104778:	6a 0f                	push   0xf
  10477a:	e8 5a cb ff ff       	call   1012d9 <vga_set_color>
  10477f:	83 c4 10             	add    esp,0x10
  104782:	83 ec 0c             	sub    esp,0xc
  104785:	ff 75 ec             	push   DWORD PTR [ebp-0x14]
  104788:	e8 e7 f0 ff ff       	call   103874 <print_uint>
  10478d:	83 c4 10             	add    esp,0x10
  104790:	83 ec 0c             	sub    esp,0xc
  104793:	8d 83 8b eb ff ff    	lea    eax,[ebx-0x1475]
  104799:	50                   	push   eax
  10479a:	e8 b9 d1 ff ff       	call   101958 <vga_print>
  10479f:	83 c4 10             	add    esp,0x10
  1047a2:	83 ec 0c             	sub    esp,0xc
  1047a5:	ff 75 f0             	push   DWORD PTR [ebp-0x10]
  1047a8:	e8 c7 f0 ff ff       	call   103874 <print_uint>
  1047ad:	83 c4 10             	add    esp,0x10
  1047b0:	83 ec 0c             	sub    esp,0xc
  1047b3:	8d 83 97 eb ff ff    	lea    eax,[ebx-0x1469]
  1047b9:	50                   	push   eax
  1047ba:	e8 99 d1 ff ff       	call   101958 <vga_print>
  1047bf:	83 c4 10             	add    esp,0x10
  1047c2:	83 ec 08             	sub    esp,0x8
  1047c5:	6a 00                	push   0x0
  1047c7:	6a 0b                	push   0xb
  1047c9:	e8 0b cb ff ff       	call   1012d9 <vga_set_color>
  1047ce:	83 c4 10             	add    esp,0x10
  1047d1:	83 ec 0c             	sub    esp,0xc
  1047d4:	8d 83 a2 eb ff ff    	lea    eax,[ebx-0x145e]
  1047da:	50                   	push   eax
  1047db:	e8 78 d1 ff ff       	call   101958 <vga_print>
  1047e0:	83 c4 10             	add    esp,0x10
  1047e3:	83 ec 08             	sub    esp,0x8
  1047e6:	6a 00                	push   0x0
  1047e8:	6a 0f                	push   0xf
  1047ea:	e8 ea ca ff ff       	call   1012d9 <vga_set_color>
  1047ef:	83 c4 10             	add    esp,0x10
  1047f2:	8b 45 e4             	mov    eax,DWORD PTR [ebp-0x1c]
  1047f5:	ba 89 88 88 88       	mov    edx,0x88888889
  1047fa:	f7 e2                	mul    edx
  1047fc:	89 d0                	mov    eax,edx
  1047fe:	c1 e8 05             	shr    eax,0x5
  104801:	83 ec 0c             	sub    esp,0xc
  104804:	50                   	push   eax
  104805:	e8 6a f0 ff ff       	call   103874 <print_uint>
  10480a:	83 c4 10             	add    esp,0x10
  10480d:	83 ec 0c             	sub    esp,0xc
  104810:	8d 83 76 e7 ff ff    	lea    eax,[ebx-0x188a]
  104816:	50                   	push   eax
  104817:	e8 3c d1 ff ff       	call   101958 <vga_print>
  10481c:	83 c4 10             	add    esp,0x10
  10481f:	8b 4d e4             	mov    ecx,DWORD PTR [ebp-0x1c]
  104822:	ba 89 88 88 88       	mov    edx,0x88888889
  104827:	89 c8                	mov    eax,ecx
  104829:	f7 e2                	mul    edx
  10482b:	89 d0                	mov    eax,edx
  10482d:	c1 e8 05             	shr    eax,0x5
  104830:	6b d0 3c             	imul   edx,eax,0x3c
  104833:	89 c8                	mov    eax,ecx
  104835:	29 d0                	sub    eax,edx
  104837:	83 ec 0c             	sub    esp,0xc
  10483a:	50                   	push   eax
  10483b:	e8 34 f0 ff ff       	call   103874 <print_uint>
  104840:	83 c4 10             	add    esp,0x10
  104843:	83 ec 0c             	sub    esp,0xc
  104846:	8d 83 ae eb ff ff    	lea    eax,[ebx-0x1452]
  10484c:	50                   	push   eax
  10484d:	e8 06 d1 ff ff       	call   101958 <vga_print>
  104852:	83 c4 10             	add    esp,0x10
  104855:	83 ec 08             	sub    esp,0x8
  104858:	6a 00                	push   0x0
  10485a:	6a 0b                	push   0xb
  10485c:	e8 78 ca ff ff       	call   1012d9 <vga_set_color>
  104861:	83 c4 10             	add    esp,0x10
  104864:	83 ec 0c             	sub    esp,0xc
  104867:	8d 83 b1 eb ff ff    	lea    eax,[ebx-0x144f]
  10486d:	50                   	push   eax
  10486e:	e8 e5 d0 ff ff       	call   101958 <vga_print>
  104873:	83 c4 10             	add    esp,0x10
  104876:	83 ec 08             	sub    esp,0x8
  104879:	6a 00                	push   0x0
  10487b:	6a 0f                	push   0xf
  10487d:	e8 57 ca ff ff       	call   1012d9 <vga_set_color>
  104882:	83 c4 10             	add    esp,0x10
  104885:	83 ec 0c             	sub    esp,0xc
  104888:	ff 75 e8             	push   DWORD PTR [ebp-0x18]
  10488b:	e8 e4 ef ff ff       	call   103874 <print_uint>
  104890:	83 c4 10             	add    esp,0x10
  104893:	83 ec 0c             	sub    esp,0xc
  104896:	8d 83 bd eb ff ff    	lea    eax,[ebx-0x1443]
  10489c:	50                   	push   eax
  10489d:	e8 b6 d0 ff ff       	call   101958 <vga_print>
  1048a2:	83 c4 10             	add    esp,0x10
  1048a5:	83 ec 0c             	sub    esp,0xc
  1048a8:	8d 83 c7 eb ff ff    	lea    eax,[ebx-0x1439]
  1048ae:	50                   	push   eax
  1048af:	e8 a4 d0 ff ff       	call   101958 <vga_print>
  1048b4:	83 c4 10             	add    esp,0x10
  1048b7:	c7 45 a4 00 00 00 00 	mov    DWORD PTR [ebp-0x5c],0x0
  1048be:	c7 45 a8 01 00 00 00 	mov    DWORD PTR [ebp-0x58],0x1
  1048c5:	c7 45 ac 02 00 00 00 	mov    DWORD PTR [ebp-0x54],0x2
  1048cc:	c7 45 b0 03 00 00 00 	mov    DWORD PTR [ebp-0x50],0x3
  1048d3:	c7 45 b4 04 00 00 00 	mov    DWORD PTR [ebp-0x4c],0x4
  1048da:	c7 45 b8 05 00 00 00 	mov    DWORD PTR [ebp-0x48],0x5
  1048e1:	c7 45 bc 06 00 00 00 	mov    DWORD PTR [ebp-0x44],0x6
  1048e8:	c7 45 c0 07 00 00 00 	mov    DWORD PTR [ebp-0x40],0x7
  1048ef:	c7 45 c4 08 00 00 00 	mov    DWORD PTR [ebp-0x3c],0x8
  1048f6:	c7 45 c8 09 00 00 00 	mov    DWORD PTR [ebp-0x38],0x9
  1048fd:	c7 45 cc 0a 00 00 00 	mov    DWORD PTR [ebp-0x34],0xa
  104904:	c7 45 d0 0b 00 00 00 	mov    DWORD PTR [ebp-0x30],0xb
  10490b:	c7 45 d4 0c 00 00 00 	mov    DWORD PTR [ebp-0x2c],0xc
  104912:	c7 45 d8 0d 00 00 00 	mov    DWORD PTR [ebp-0x28],0xd
  104919:	c7 45 dc 0e 00 00 00 	mov    DWORD PTR [ebp-0x24],0xe
  104920:	c7 45 e0 0f 00 00 00 	mov    DWORD PTR [ebp-0x20],0xf
  104927:	c7 45 f4 00 00 00 00 	mov    DWORD PTR [ebp-0xc],0x0
  10492e:	eb 31                	jmp    104961 <cmd_fetch+0x434>
  104930:	8b 45 f4             	mov    eax,DWORD PTR [ebp-0xc]
  104933:	8b 54 85 a4          	mov    edx,DWORD PTR [ebp+eax*4-0x5c]
  104937:	8b 45 f4             	mov    eax,DWORD PTR [ebp-0xc]
  10493a:	8b 44 85 a4          	mov    eax,DWORD PTR [ebp+eax*4-0x5c]
  10493e:	83 ec 08             	sub    esp,0x8
  104941:	52                   	push   edx
  104942:	50                   	push   eax
  104943:	e8 91 c9 ff ff       	call   1012d9 <vga_set_color>
  104948:	83 c4 10             	add    esp,0x10
  10494b:	83 ec 0c             	sub    esp,0xc
  10494e:	8d 83 cc eb ff ff    	lea    eax,[ebx-0x1434]
  104954:	50                   	push   eax
  104955:	e8 fe cf ff ff       	call   101958 <vga_print>
  10495a:	83 c4 10             	add    esp,0x10
  10495d:	83 45 f4 01          	add    DWORD PTR [ebp-0xc],0x1
  104961:	83 7d f4 0f          	cmp    DWORD PTR [ebp-0xc],0xf
  104965:	7e c9                	jle    104930 <cmd_fetch+0x403>
  104967:	83 ec 08             	sub    esp,0x8
  10496a:	6a 00                	push   0x0
  10496c:	6a 0f                	push   0xf
  10496e:	e8 66 c9 ff ff       	call   1012d9 <vga_set_color>
  104973:	83 c4 10             	add    esp,0x10
  104976:	83 ec 0c             	sub    esp,0xc
  104979:	8d 83 3b e7 ff ff    	lea    eax,[ebx-0x18c5]
  10497f:	50                   	push   eax
  104980:	e8 d3 cf ff ff       	call   101958 <vga_print>
  104985:	83 c4 10             	add    esp,0x10
  104988:	90                   	nop
  104989:	8b 5d fc             	mov    ebx,DWORD PTR [ebp-0x4]
  10498c:	c9                   	leave
  10498d:	c3                   	ret

0010498e <cmd_fsinfo>:
  10498e:	55                   	push   ebp
  10498f:	89 e5                	mov    ebp,esp
  104991:	53                   	push   ebx
  104992:	83 ec 04             	sub    esp,0x4
  104995:	e8 c0 1e 00 00       	call   10685a <__x86.get_pc_thunk.ax>
  10499a:	05 6e 46 00 00       	add    eax,0x466e
  10499f:	89 c3                	mov    ebx,eax
  1049a1:	e8 84 1c 00 00       	call   10662a <fat12_print_info>
  1049a6:	90                   	nop
  1049a7:	8b 5d fc             	mov    ebx,DWORD PTR [ebp-0x4]
  1049aa:	c9                   	leave
  1049ab:	c3                   	ret

001049ac <cmd_ls>:
  1049ac:	55                   	push   ebp
  1049ad:	89 e5                	mov    ebp,esp
  1049af:	53                   	push   ebx
  1049b0:	83 ec 04             	sub    esp,0x4
  1049b3:	e8 9e 1e 00 00       	call   106856 <__x86.get_pc_thunk.bx>
  1049b8:	81 c3 50 46 00 00    	add    ebx,0x4650
  1049be:	83 ec 0c             	sub    esp,0xc
  1049c1:	8d 83 3b e7 ff ff    	lea    eax,[ebx-0x18c5]
  1049c7:	50                   	push   eax
  1049c8:	e8 8b cf ff ff       	call   101958 <vga_print>
  1049cd:	83 c4 10             	add    esp,0x10
  1049d0:	e8 b7 14 00 00       	call   105e8c <fat12_list_root>
  1049d5:	90                   	nop
  1049d6:	8b 5d fc             	mov    ebx,DWORD PTR [ebp-0x4]
  1049d9:	c9                   	leave
  1049da:	c3                   	ret

001049db <cmd_cat>:
  1049db:	55                   	push   ebp
  1049dc:	89 e5                	mov    ebp,esp
  1049de:	53                   	push   ebx
  1049df:	83 ec 34             	sub    esp,0x34
  1049e2:	e8 6f 1e 00 00       	call   106856 <__x86.get_pc_thunk.bx>
  1049e7:	81 c3 21 46 00 00    	add    ebx,0x4621
  1049ed:	eb 04                	jmp    1049f3 <cmd_cat+0x18>
  1049ef:	83 45 08 01          	add    DWORD PTR [ebp+0x8],0x1
  1049f3:	8b 45 08             	mov    eax,DWORD PTR [ebp+0x8]
  1049f6:	0f b6 00             	movzx  eax,BYTE PTR [eax]
  1049f9:	3c 20                	cmp    al,0x20
  1049fb:	74 f2                	je     1049ef <cmd_cat+0x14>
  1049fd:	8b 45 08             	mov    eax,DWORD PTR [ebp+0x8]
  104a00:	0f b6 00             	movzx  eax,BYTE PTR [eax]
  104a03:	84 c0                	test   al,al
  104a05:	75 17                	jne    104a1e <cmd_cat+0x43>
  104a07:	83 ec 0c             	sub    esp,0xc
  104a0a:	8d 83 cf eb ff ff    	lea    eax,[ebx-0x1431]
  104a10:	50                   	push   eax
  104a11:	e8 42 cf ff ff       	call   101958 <vga_print>
  104a16:	83 c4 10             	add    esp,0x10
  104a19:	e9 fb 01 00 00       	jmp    104c19 <cmd_cat+0x23e>
  104a1e:	c7 45 f4 00 00 00 00 	mov    DWORD PTR [ebp-0xc],0x0
  104a25:	eb 12                	jmp    104a39 <cmd_cat+0x5e>
  104a27:	8d 93 78 51 01 00    	lea    edx,[ebx+0x15178]
  104a2d:	8b 45 f4             	mov    eax,DWORD PTR [ebp-0xc]
  104a30:	01 d0                	add    eax,edx
  104a32:	c6 00 20             	mov    BYTE PTR [eax],0x20
  104a35:	83 45 f4 01          	add    DWORD PTR [ebp-0xc],0x1
  104a39:	83 7d f4 07          	cmp    DWORD PTR [ebp-0xc],0x7
  104a3d:	7e e8                	jle    104a27 <cmd_cat+0x4c>
  104a3f:	c7 45 f0 00 00 00 00 	mov    DWORD PTR [ebp-0x10],0x0
  104a46:	eb 12                	jmp    104a5a <cmd_cat+0x7f>
  104a48:	8d 93 84 51 01 00    	lea    edx,[ebx+0x15184]
  104a4e:	8b 45 f0             	mov    eax,DWORD PTR [ebp-0x10]
  104a51:	01 d0                	add    eax,edx
  104a53:	c6 00 20             	mov    BYTE PTR [eax],0x20
  104a56:	83 45 f0 01          	add    DWORD PTR [ebp-0x10],0x1
  104a5a:	83 7d f0 02          	cmp    DWORD PTR [ebp-0x10],0x2
  104a5e:	7e e8                	jle    104a48 <cmd_cat+0x6d>
  104a60:	c6 83 80 51 01 00 00 	mov    BYTE PTR [ebx+0x15180],0x0
  104a67:	c6 83 87 51 01 00 00 	mov    BYTE PTR [ebx+0x15187],0x0
  104a6e:	c7 45 ec 00 00 00 00 	mov    DWORD PTR [ebp-0x14],0x0
  104a75:	eb 3a                	jmp    104ab1 <cmd_cat+0xd6>
  104a77:	8b 45 08             	mov    eax,DWORD PTR [ebp+0x8]
  104a7a:	8d 50 01             	lea    edx,[eax+0x1]
  104a7d:	89 55 08             	mov    DWORD PTR [ebp+0x8],edx
  104a80:	0f b6 00             	movzx  eax,BYTE PTR [eax]
  104a83:	88 45 e7             	mov    BYTE PTR [ebp-0x19],al
  104a86:	80 7d e7 60          	cmp    BYTE PTR [ebp-0x19],0x60
  104a8a:	7e 11                	jle    104a9d <cmd_cat+0xc2>
  104a8c:	80 7d e7 7a          	cmp    BYTE PTR [ebp-0x19],0x7a
  104a90:	7f 0b                	jg     104a9d <cmd_cat+0xc2>
  104a92:	0f b6 45 e7          	movzx  eax,BYTE PTR [ebp-0x19]
  104a96:	83 e8 20             	sub    eax,0x20
  104a99:	89 c2                	mov    edx,eax
  104a9b:	eb 04                	jmp    104aa1 <cmd_cat+0xc6>
  104a9d:	0f b6 55 e7          	movzx  edx,BYTE PTR [ebp-0x19]
  104aa1:	8b 45 ec             	mov    eax,DWORD PTR [ebp-0x14]
  104aa4:	8d 48 01             	lea    ecx,[eax+0x1]
  104aa7:	89 4d ec             	mov    DWORD PTR [ebp-0x14],ecx
  104aaa:	88 94 03 78 51 01 00 	mov    BYTE PTR [ebx+eax*1+0x15178],dl
  104ab1:	8b 45 08             	mov    eax,DWORD PTR [ebp+0x8]
  104ab4:	0f b6 00             	movzx  eax,BYTE PTR [eax]
  104ab7:	84 c0                	test   al,al
  104ab9:	74 10                	je     104acb <cmd_cat+0xf0>
  104abb:	8b 45 08             	mov    eax,DWORD PTR [ebp+0x8]
  104abe:	0f b6 00             	movzx  eax,BYTE PTR [eax]
  104ac1:	3c 2e                	cmp    al,0x2e
  104ac3:	74 06                	je     104acb <cmd_cat+0xf0>
  104ac5:	83 7d ec 07          	cmp    DWORD PTR [ebp-0x14],0x7
  104ac9:	7e ac                	jle    104a77 <cmd_cat+0x9c>
  104acb:	8b 45 08             	mov    eax,DWORD PTR [ebp+0x8]
  104ace:	0f b6 00             	movzx  eax,BYTE PTR [eax]
  104ad1:	3c 2e                	cmp    al,0x2e
  104ad3:	75 04                	jne    104ad9 <cmd_cat+0xfe>
  104ad5:	83 45 08 01          	add    DWORD PTR [ebp+0x8],0x1
  104ad9:	c7 45 ec 00 00 00 00 	mov    DWORD PTR [ebp-0x14],0x0
  104ae0:	eb 3a                	jmp    104b1c <cmd_cat+0x141>
  104ae2:	8b 45 08             	mov    eax,DWORD PTR [ebp+0x8]
  104ae5:	8d 50 01             	lea    edx,[eax+0x1]
  104ae8:	89 55 08             	mov    DWORD PTR [ebp+0x8],edx
  104aeb:	0f b6 00             	movzx  eax,BYTE PTR [eax]
  104aee:	88 45 e6             	mov    BYTE PTR [ebp-0x1a],al
  104af1:	80 7d e6 60          	cmp    BYTE PTR [ebp-0x1a],0x60
  104af5:	7e 11                	jle    104b08 <cmd_cat+0x12d>
  104af7:	80 7d e6 7a          	cmp    BYTE PTR [ebp-0x1a],0x7a
  104afb:	7f 0b                	jg     104b08 <cmd_cat+0x12d>
  104afd:	0f b6 45 e6          	movzx  eax,BYTE PTR [ebp-0x1a]
  104b01:	83 e8 20             	sub    eax,0x20
  104b04:	89 c2                	mov    edx,eax
  104b06:	eb 04                	jmp    104b0c <cmd_cat+0x131>
  104b08:	0f b6 55 e6          	movzx  edx,BYTE PTR [ebp-0x1a]
  104b0c:	8b 45 ec             	mov    eax,DWORD PTR [ebp-0x14]
  104b0f:	8d 48 01             	lea    ecx,[eax+0x1]
  104b12:	89 4d ec             	mov    DWORD PTR [ebp-0x14],ecx
  104b15:	88 94 03 84 51 01 00 	mov    BYTE PTR [ebx+eax*1+0x15184],dl
  104b1c:	8b 45 08             	mov    eax,DWORD PTR [ebp+0x8]
  104b1f:	0f b6 00             	movzx  eax,BYTE PTR [eax]
  104b22:	84 c0                	test   al,al
  104b24:	74 10                	je     104b36 <cmd_cat+0x15b>
  104b26:	8b 45 08             	mov    eax,DWORD PTR [ebp+0x8]
  104b29:	0f b6 00             	movzx  eax,BYTE PTR [eax]
  104b2c:	3c 20                	cmp    al,0x20
  104b2e:	74 06                	je     104b36 <cmd_cat+0x15b>
  104b30:	83 7d ec 02          	cmp    DWORD PTR [ebp-0x14],0x2
  104b34:	7e ac                	jle    104ae2 <cmd_cat+0x107>
  104b36:	c7 45 d8 00 00 00 00 	mov    DWORD PTR [ebp-0x28],0x0
  104b3d:	83 ec 0c             	sub    esp,0xc
