
myos.bin:     file format elf32-i386


Disassembly of section .text:

00101000 <_start>:
  101000:	fa                   	cli
  101001:	bc 00 e0 10 00       	mov    esp,0x10e000
  101006:	53                   	push   ebx
  101007:	e8 03 00 00 00       	call   10100f <kernel_main>

0010100c <_start.hang>:
  10100c:	f4                   	hlt
  10100d:	eb fd                	jmp    10100c <_start.hang>

0010100f <kernel_main>:
  10100f:	55                   	push   ebp
  101010:	89 e5                	mov    ebp,esp
  101012:	53                   	push   ebx
  101013:	83 ec 14             	sub    esp,0x14
  101016:	e8 3b 58 00 00       	call   106856 <__x86.get_pc_thunk.bx>
  10101b:	81 c3 ed 7f 00 00    	add    ebx,0x7fed
  101021:	e8 b4 0a 00 00       	call   101ada <gdt_init>
  101026:	e8 9c 0d 00 00       	call   101dc7 <idt_init>
  10102b:	e8 d2 02 00 00       	call   101302 <vga_init>
  101030:	83 ec 0c             	sub    esp,0xc
  101033:	ff 75 08             	push   DWORD PTR [ebp+0x8]
  101036:	e8 11 15 00 00       	call   10254c <pmm_init>
  10103b:	83 c4 10             	add    esp,0x10
  10103e:	e8 e5 1c 00 00       	call   102d28 <vmm_init>
  101043:	e8 80 1e 00 00       	call   102ec8 <heap_init>
  101048:	fb                   	sti
  101049:	e8 b2 22 00 00       	call   103300 <pit_init>
  10104e:	e8 4e 26 00 00       	call   1036a1 <keyboard_init>
  101053:	83 ec 0c             	sub    esp,0xc
  101056:	6a 40                	push   0x40
  101058:	e8 60 1f 00 00       	call   102fbd <kmalloc>
  10105d:	83 c4 10             	add    esp,0x10
  101060:	89 45 f4             	mov    DWORD PTR [ebp-0xc],eax
  101063:	83 ec 0c             	sub    esp,0xc
  101066:	6a 40                	push   0x40
  101068:	e8 50 1f 00 00       	call   102fbd <kmalloc>
  10106d:	83 c4 10             	add    esp,0x10
  101070:	89 45 f0             	mov    DWORD PTR [ebp-0x10],eax
  101073:	83 7d f4 00          	cmp    DWORD PTR [ebp-0xc],0x0
  101077:	74 58                	je     1010d1 <kernel_main+0xc2>
  101079:	83 7d f0 00          	cmp    DWORD PTR [ebp-0x10],0x0
  10107d:	74 52                	je     1010d1 <kernel_main+0xc2>
  10107f:	8b 45 f4             	mov    eax,DWORD PTR [ebp-0xc]
  101082:	c7 00 ef be ad de    	mov    DWORD PTR [eax],0xdeadbeef
  101088:	8b 45 f0             	mov    eax,DWORD PTR [ebp-0x10]
  10108b:	c7 00 42 ee ff c0    	mov    DWORD PTR [eax],0xc0ffee42
  101091:	83 ec 0c             	sub    esp,0xc
  101094:	ff 75 f4             	push   DWORD PTR [ebp-0xc]
  101097:	e8 4d 20 00 00       	call   1030e9 <kfree>
  10109c:	83 c4 10             	add    esp,0x10
  10109f:	83 ec 0c             	sub    esp,0xc
  1010a2:	6a 20                	push   0x20
  1010a4:	e8 14 1f 00 00       	call   102fbd <kmalloc>
  1010a9:	83 c4 10             	add    esp,0x10
  1010ac:	89 45 ec             	mov    DWORD PTR [ebp-0x14],eax
  1010af:	83 ec 0c             	sub    esp,0xc
  1010b2:	ff 75 f0             	push   DWORD PTR [ebp-0x10]
  1010b5:	e8 2f 20 00 00       	call   1030e9 <kfree>
  1010ba:	83 c4 10             	add    esp,0x10
  1010bd:	83 7d ec 00          	cmp    DWORD PTR [ebp-0x14],0x0
  1010c1:	74 0e                	je     1010d1 <kernel_main+0xc2>
  1010c3:	83 ec 0c             	sub    esp,0xc
  1010c6:	ff 75 ec             	push   DWORD PTR [ebp-0x14]
  1010c9:	e8 1b 20 00 00       	call   1030e9 <kfree>
  1010ce:	83 c4 10             	add    esp,0x10
  1010d1:	83 ec 08             	sub    esp,0x8
  1010d4:	6a 00                	push   0x0
  1010d6:	6a 0a                	push   0xa
  1010d8:	e8 fc 01 00 00       	call   1012d9 <vga_set_color>
  1010dd:	83 c4 10             	add    esp,0x10
  1010e0:	83 ec 0c             	sub    esp,0xc
  1010e3:	8d 83 f8 df ff ff    	lea    eax,[ebx-0x2008]
  1010e9:	50                   	push   eax
  1010ea:	e8 69 08 00 00       	call   101958 <vga_print>
  1010ef:	83 c4 10             	add    esp,0x10
  1010f2:	83 ec 08             	sub    esp,0x8
  1010f5:	6a 00                	push   0x0
  1010f7:	6a 0f                	push   0xf
  1010f9:	e8 db 01 00 00       	call   1012d9 <vga_set_color>
  1010fe:	83 c4 10             	add    esp,0x10
  101101:	83 ec 0c             	sub    esp,0xc
  101104:	8d 83 18 e0 ff ff    	lea    eax,[ebx-0x1fe8]
  10110a:	50                   	push   eax
  10110b:	e8 48 08 00 00       	call   101958 <vga_print>
  101110:	83 c4 10             	add    esp,0x10
  101113:	83 ec 0c             	sub    esp,0xc
  101116:	8d 83 30 e0 ff ff    	lea    eax,[ebx-0x1fd0]
  10111c:	50                   	push   eax
  10111d:	e8 36 08 00 00       	call   101958 <vga_print>
  101122:	83 c4 10             	add    esp,0x10
  101125:	83 ec 0c             	sub    esp,0xc
  101128:	8d 83 48 e0 ff ff    	lea    eax,[ebx-0x1fb8]
  10112e:	50                   	push   eax
  10112f:	e8 24 08 00 00       	call   101958 <vga_print>
  101134:	83 c4 10             	add    esp,0x10
  101137:	83 ec 0c             	sub    esp,0xc
  10113a:	8d 83 60 e0 ff ff    	lea    eax,[ebx-0x1fa0]
  101140:	50                   	push   eax
  101141:	e8 12 08 00 00       	call   101958 <vga_print>
  101146:	83 c4 10             	add    esp,0x10
  101149:	83 ec 0c             	sub    esp,0xc
  10114c:	8d 83 78 e0 ff ff    	lea    eax,[ebx-0x1f88]
  101152:	50                   	push   eax
  101153:	e8 00 08 00 00       	call   101958 <vga_print>
  101158:	83 c4 10             	add    esp,0x10
  10115b:	83 ec 0c             	sub    esp,0xc
  10115e:	8d 83 90 e0 ff ff    	lea    eax,[ebx-0x1f70]
  101164:	50                   	push   eax
  101165:	e8 ee 07 00 00       	call   101958 <vga_print>
  10116a:	83 c4 10             	add    esp,0x10
  10116d:	83 ec 0c             	sub    esp,0xc
  101170:	8d 83 a8 e0 ff ff    	lea    eax,[ebx-0x1f58]
  101176:	50                   	push   eax
  101177:	e8 dc 07 00 00       	call   101958 <vga_print>
  10117c:	83 c4 10             	add    esp,0x10
  10117f:	83 ec 0c             	sub    esp,0xc
  101182:	8d 83 c0 e0 ff ff    	lea    eax,[ebx-0x1f40]
  101188:	50                   	push   eax
  101189:	e8 ca 07 00 00       	call   101958 <vga_print>
  10118e:	83 c4 10             	add    esp,0x10
  101191:	83 ec 0c             	sub    esp,0xc
  101194:	8d 83 d9 e0 ff ff    	lea    eax,[ebx-0x1f27]
  10119a:	50                   	push   eax
  10119b:	e8 b8 07 00 00       	call   101958 <vga_print>
  1011a0:	83 c4 10             	add    esp,0x10
  1011a3:	83 ec 0c             	sub    esp,0xc
  1011a6:	8d 83 f1 e0 ff ff    	lea    eax,[ebx-0x1f0f]
  1011ac:	50                   	push   eax
  1011ad:	e8 a6 07 00 00       	call   101958 <vga_print>
  1011b2:	83 c4 10             	add    esp,0x10
  1011b5:	83 ec 08             	sub    esp,0x8
  1011b8:	6a 00                	push   0x0
  1011ba:	6a 08                	push   0x8
  1011bc:	e8 18 01 00 00       	call   1012d9 <vga_set_color>
  1011c1:	83 c4 10             	add    esp,0x10
  1011c4:	83 ec 0c             	sub    esp,0xc
  1011c7:	8d 83 0c e1 ff ff    	lea    eax,[ebx-0x1ef4]
  1011cd:	50                   	push   eax
  1011ce:	e8 85 07 00 00       	call   101958 <vga_print>
  1011d3:	83 c4 10             	add    esp,0x10
  1011d6:	83 ec 0c             	sub    esp,0xc
  1011d9:	8d 83 48 e1 ff ff    	lea    eax,[ebx-0x1eb8]
  1011df:	50                   	push   eax
  1011e0:	e8 73 07 00 00       	call   101958 <vga_print>
  1011e5:	83 c4 10             	add    esp,0x10
  1011e8:	e8 f7 3d 00 00       	call   104fe4 <scroll_init>
  1011ed:	e8 b4 45 00 00       	call   1057a6 <ata_init>
  1011f2:	e8 0d 4b 00 00       	call   105d04 <fat12_init>
  1011f7:	85 c0                	test   eax,eax
  1011f9:	75 32                	jne    10122d <kernel_main+0x21e>
  1011fb:	83 ec 08             	sub    esp,0x8
  1011fe:	6a 00                	push   0x0
  101200:	6a 0a                	push   0xa
  101202:	e8 d2 00 00 00       	call   1012d9 <vga_set_color>
  101207:	83 c4 10             	add    esp,0x10
  10120a:	83 ec 0c             	sub    esp,0xc
  10120d:	8d 83 5e e1 ff ff    	lea    eax,[ebx-0x1ea2]
  101213:	50                   	push   eax
  101214:	e8 3f 07 00 00       	call   101958 <vga_print>
  101219:	83 c4 10             	add    esp,0x10
  10121c:	83 ec 08             	sub    esp,0x8
  10121f:	6a 00                	push   0x0
  101221:	6a 0f                	push   0xf
  101223:	e8 b1 00 00 00       	call   1012d9 <vga_set_color>
  101228:	83 c4 10             	add    esp,0x10
  10122b:	eb 30                	jmp    10125d <kernel_main+0x24e>
  10122d:	83 ec 08             	sub    esp,0x8
  101230:	6a 00                	push   0x0
  101232:	6a 0c                	push   0xc
  101234:	e8 a0 00 00 00       	call   1012d9 <vga_set_color>
  101239:	83 c4 10             	add    esp,0x10
  10123c:	83 ec 0c             	sub    esp,0xc
  10123f:	8d 83 74 e1 ff ff    	lea    eax,[ebx-0x1e8c]
  101245:	50                   	push   eax
  101246:	e8 0d 07 00 00       	call   101958 <vga_print>
  10124b:	83 c4 10             	add    esp,0x10
  10124e:	83 ec 08             	sub    esp,0x8
  101251:	6a 00                	push   0x0
  101253:	6a 0f                	push   0xf
  101255:	e8 7f 00 00 00       	call   1012d9 <vga_set_color>
  10125a:	83 c4 10             	add    esp,0x10
  10125d:	e8 34 3c 00 00       	call   104e96 <shell_run>
  101262:	90                   	nop
  101263:	8b 5d fc             	mov    ebx,DWORD PTR [ebp-0x4]
  101266:	c9                   	leave
  101267:	c3                   	ret

00101268 <make_color>:
  101268:	55                   	push   ebp
  101269:	89 e5                	mov    ebp,esp
  10126b:	e8 ea 55 00 00       	call   10685a <__x86.get_pc_thunk.ax>
  101270:	05 98 7d 00 00       	add    eax,0x7d98
  101275:	8b 45 0c             	mov    eax,DWORD PTR [ebp+0xc]
  101278:	c1 e0 04             	shl    eax,0x4
  10127b:	89 c2                	mov    edx,eax
  10127d:	8b 45 08             	mov    eax,DWORD PTR [ebp+0x8]
  101280:	09 d0                	or     eax,edx
  101282:	5d                   	pop    ebp
  101283:	c3                   	ret

00101284 <make_vga_entry>:
  101284:	55                   	push   ebp
  101285:	89 e5                	mov    ebp,esp
  101287:	83 ec 08             	sub    esp,0x8
  10128a:	e8 cb 55 00 00       	call   10685a <__x86.get_pc_thunk.ax>
  10128f:	05 79 7d 00 00       	add    eax,0x7d79
  101294:	8b 55 08             	mov    edx,DWORD PTR [ebp+0x8]
  101297:	8b 45 0c             	mov    eax,DWORD PTR [ebp+0xc]
  10129a:	88 55 fc             	mov    BYTE PTR [ebp-0x4],dl
  10129d:	88 45 f8             	mov    BYTE PTR [ebp-0x8],al
  1012a0:	66 0f be 55 fc       	movsx  dx,BYTE PTR [ebp-0x4]
  1012a5:	0f b6 45 f8          	movzx  eax,BYTE PTR [ebp-0x8]
  1012a9:	c1 e0 08             	shl    eax,0x8
  1012ac:	09 d0                	or     eax,edx
  1012ae:	c9                   	leave
  1012af:	c3                   	ret

001012b0 <vga_outb>:
  1012b0:	55                   	push   ebp
  1012b1:	89 e5                	mov    ebp,esp
  1012b3:	83 ec 08             	sub    esp,0x8
  1012b6:	e8 9f 55 00 00       	call   10685a <__x86.get_pc_thunk.ax>
  1012bb:	05 4d 7d 00 00       	add    eax,0x7d4d
  1012c0:	8b 55 08             	mov    edx,DWORD PTR [ebp+0x8]
  1012c3:	8b 45 0c             	mov    eax,DWORD PTR [ebp+0xc]
  1012c6:	66 89 55 fc          	mov    WORD PTR [ebp-0x4],dx
  1012ca:	88 45 f8             	mov    BYTE PTR [ebp-0x8],al
  1012cd:	0f b7 55 fc          	movzx  edx,WORD PTR [ebp-0x4]
  1012d1:	0f b6 45 f8          	movzx  eax,BYTE PTR [ebp-0x8]
  1012d5:	ee                   	out    dx,al
  1012d6:	90                   	nop
  1012d7:	c9                   	leave
  1012d8:	c3                   	ret

001012d9 <vga_set_color>:
  1012d9:	55                   	push   ebp
  1012da:	89 e5                	mov    ebp,esp
  1012dc:	53                   	push   ebx
  1012dd:	e8 74 55 00 00       	call   106856 <__x86.get_pc_thunk.bx>
  1012e2:	81 c3 26 7d 00 00    	add    ebx,0x7d26
  1012e8:	ff 75 0c             	push   DWORD PTR [ebp+0xc]
  1012eb:	ff 75 08             	push   DWORD PTR [ebp+0x8]
  1012ee:	e8 75 ff ff ff       	call   101268 <make_color>
  1012f3:	83 c4 08             	add    esp,0x8
  1012f6:	88 83 00 50 00 00    	mov    BYTE PTR [ebx+0x5000],al
  1012fc:	90                   	nop
  1012fd:	8b 5d fc             	mov    ebx,DWORD PTR [ebp-0x4]
  101300:	c9                   	leave
  101301:	c3                   	ret

00101302 <vga_init>:
  101302:	55                   	push   ebp
  101303:	89 e5                	mov    ebp,esp
  101305:	56                   	push   esi
  101306:	53                   	push   ebx
  101307:	83 ec 10             	sub    esp,0x10
  10130a:	e8 47 55 00 00       	call   106856 <__x86.get_pc_thunk.bx>
  10130f:	81 c3 f9 7c 00 00    	add    ebx,0x7cf9
  101315:	6a 0a                	push   0xa
  101317:	68 d4 03 00 00       	push   0x3d4
  10131c:	e8 8f ff ff ff       	call   1012b0 <vga_outb>
  101321:	83 c4 08             	add    esp,0x8
  101324:	6a 0e                	push   0xe
  101326:	68 d5 03 00 00       	push   0x3d5
  10132b:	e8 80 ff ff ff       	call   1012b0 <vga_outb>
  101330:	83 c4 08             	add    esp,0x8
  101333:	6a 0b                	push   0xb
  101335:	68 d4 03 00 00       	push   0x3d4
  10133a:	e8 71 ff ff ff       	call   1012b0 <vga_outb>
  10133f:	83 c4 08             	add    esp,0x8
  101342:	6a 0f                	push   0xf
  101344:	68 d5 03 00 00       	push   0x3d5
  101349:	e8 62 ff ff ff       	call   1012b0 <vga_outb>
  10134e:	83 c4 08             	add    esp,0x8
  101351:	c7 83 f8 4f 00 00 00 	mov    DWORD PTR [ebx+0x4ff8],0x0
  101358:	00 00 00 
  10135b:	c7 83 fc 4f 00 00 00 	mov    DWORD PTR [ebx+0x4ffc],0x0
  101362:	00 00 00 
  101365:	6a 00                	push   0x0
  101367:	6a 0f                	push   0xf
  101369:	e8 fa fe ff ff       	call   101268 <make_color>
  10136e:	83 c4 08             	add    esp,0x8
  101371:	88 83 00 50 00 00    	mov    BYTE PTR [ebx+0x5000],al
  101377:	c7 45 f4 00 00 00 00 	mov    DWORD PTR [ebp-0xc],0x0
  10137e:	eb 53                	jmp    1013d3 <vga_init+0xd1>
  101380:	c7 45 f0 00 00 00 00 	mov    DWORD PTR [ebp-0x10],0x0
  101387:	eb 40                	jmp    1013c9 <vga_init+0xc7>
  101389:	8b 55 f4             	mov    edx,DWORD PTR [ebp-0xc]
  10138c:	89 d0                	mov    eax,edx
  10138e:	c1 e0 02             	shl    eax,0x2
  101391:	01 d0                	add    eax,edx
  101393:	c1 e0 04             	shl    eax,0x4
  101396:	89 c2                	mov    edx,eax
  101398:	8b 45 f0             	mov    eax,DWORD PTR [ebp-0x10]
  10139b:	01 d0                	add    eax,edx
  10139d:	89 45 ec             	mov    DWORD PTR [ebp-0x14],eax
  1013a0:	0f b6 83 00 50 00 00 	movzx  eax,BYTE PTR [ebx+0x5000]
  1013a7:	0f b6 c0             	movzx  eax,al
  1013aa:	b9 00 80 0b 00       	mov    ecx,0xb8000
  1013af:	8b 55 ec             	mov    edx,DWORD PTR [ebp-0x14]
  1013b2:	01 d2                	add    edx,edx
  1013b4:	8d 34 11             	lea    esi,[ecx+edx*1]
  1013b7:	50                   	push   eax
  1013b8:	6a 20                	push   0x20
  1013ba:	e8 c5 fe ff ff       	call   101284 <make_vga_entry>
  1013bf:	83 c4 08             	add    esp,0x8
  1013c2:	66 89 06             	mov    WORD PTR [esi],ax
  1013c5:	83 45 f0 01          	add    DWORD PTR [ebp-0x10],0x1
  1013c9:	83 7d f0 4f          	cmp    DWORD PTR [ebp-0x10],0x4f
  1013cd:	76 ba                	jbe    101389 <vga_init+0x87>
  1013cf:	83 45 f4 01          	add    DWORD PTR [ebp-0xc],0x1
  1013d3:	83 7d f4 18          	cmp    DWORD PTR [ebp-0xc],0x18
  1013d7:	76 a7                	jbe    101380 <vga_init+0x7e>
  1013d9:	e8 21 04 00 00       	call   1017ff <vga_set_cursor>
  1013de:	90                   	nop
  1013df:	8d 65 f8             	lea    esp,[ebp-0x8]
  1013e2:	5b                   	pop    ebx
  1013e3:	5e                   	pop    esi
  1013e4:	5d                   	pop    ebp
  1013e5:	c3                   	ret

001013e6 <vga_scroll>:
  1013e6:	55                   	push   ebp
  1013e7:	89 e5                	mov    ebp,esp
  1013e9:	56                   	push   esi
  1013ea:	53                   	push   ebx
  1013eb:	83 ec 10             	sub    esp,0x10
  1013ee:	e8 63 54 00 00       	call   106856 <__x86.get_pc_thunk.bx>
  1013f3:	81 c3 15 7c 00 00    	add    ebx,0x7c15
  1013f9:	e8 14 3c 00 00       	call   105012 <scroll_on_newline>
  1013fe:	c7 45 f4 00 00 00 00 	mov    DWORD PTR [ebp-0xc],0x0
  101405:	eb 30                	jmp    101437 <vga_scroll+0x51>
  101407:	ba 00 80 0b 00       	mov    edx,0xb8000
  10140c:	8b 45 f4             	mov    eax,DWORD PTR [ebp-0xc]
  10140f:	01 c0                	add    eax,eax
  101411:	01 d0                	add    eax,edx
  101413:	8b 93 98 8e 00 00    	mov    edx,DWORD PTR [ebx+0x8e98]
  101419:	0f b7 08             	movzx  ecx,WORD PTR [eax]
  10141c:	89 d0                	mov    eax,edx
  10141e:	c1 e0 02             	shl    eax,0x2
  101421:	01 d0                	add    eax,edx
  101423:	c1 e0 04             	shl    eax,0x4
  101426:	8b 55 f4             	mov    edx,DWORD PTR [ebp-0xc]
  101429:	01 d0                	add    eax,edx
  10142b:	66 89 8c 43 18 50 00 	mov    WORD PTR [ebx+eax*2+0x5018],cx
  101432:	00 
  101433:	83 45 f4 01          	add    DWORD PTR [ebp-0xc],0x1
  101437:	83 7d f4 4f          	cmp    DWORD PTR [ebp-0xc],0x4f
  10143b:	76 ca                	jbe    101407 <vga_scroll+0x21>
  10143d:	8b 83 98 8e 00 00    	mov    eax,DWORD PTR [ebx+0x8e98]
  101443:	8d 48 01             	lea    ecx,[eax+0x1]
  101446:	ba 1f 85 eb 51       	mov    edx,0x51eb851f
  10144b:	89 c8                	mov    eax,ecx
  10144d:	f7 ea                	imul   edx
  10144f:	89 d0                	mov    eax,edx
  101451:	c1 f8 05             	sar    eax,0x5
  101454:	89 ca                	mov    edx,ecx
  101456:	c1 fa 1f             	sar    edx,0x1f
  101459:	29 d0                	sub    eax,edx
  10145b:	6b d0 64             	imul   edx,eax,0x64
  10145e:	89 c8                	mov    eax,ecx
  101460:	29 d0                	sub    eax,edx
  101462:	89 83 98 8e 00 00    	mov    DWORD PTR [ebx+0x8e98],eax
  101468:	8b 83 9c 8e 00 00    	mov    eax,DWORD PTR [ebx+0x8e9c]
  10146e:	83 f8 63             	cmp    eax,0x63
  101471:	7f 0f                	jg     101482 <vga_scroll+0x9c>
  101473:	8b 83 9c 8e 00 00    	mov    eax,DWORD PTR [ebx+0x8e9c]
  101479:	83 c0 01             	add    eax,0x1
  10147c:	89 83 9c 8e 00 00    	mov    DWORD PTR [ebx+0x8e9c],eax
  101482:	c7 45 f0 01 00 00 00 	mov    DWORD PTR [ebp-0x10],0x1
  101489:	eb 5b                	jmp    1014e6 <vga_scroll+0x100>
  10148b:	c7 45 ec 00 00 00 00 	mov    DWORD PTR [ebp-0x14],0x0
  101492:	eb 48                	jmp    1014dc <vga_scroll+0xf6>
  101494:	b9 00 80 0b 00       	mov    ecx,0xb8000
  101499:	8b 55 f0             	mov    edx,DWORD PTR [ebp-0x10]
  10149c:	89 d0                	mov    eax,edx
  10149e:	c1 e0 02             	shl    eax,0x2
  1014a1:	01 d0                	add    eax,edx
  1014a3:	c1 e0 04             	shl    eax,0x4
  1014a6:	89 c2                	mov    edx,eax
  1014a8:	8b 45 ec             	mov    eax,DWORD PTR [ebp-0x14]
  1014ab:	01 d0                	add    eax,edx
  1014ad:	01 c0                	add    eax,eax
  1014af:	01 c1                	add    ecx,eax
  1014b1:	be 00 80 0b 00       	mov    esi,0xb8000
  1014b6:	8b 45 f0             	mov    eax,DWORD PTR [ebp-0x10]
  1014b9:	8d 50 ff             	lea    edx,[eax-0x1]
  1014bc:	89 d0                	mov    eax,edx
  1014be:	c1 e0 02             	shl    eax,0x2
  1014c1:	01 d0                	add    eax,edx
  1014c3:	c1 e0 04             	shl    eax,0x4
  1014c6:	89 c2                	mov    edx,eax
  1014c8:	8b 45 ec             	mov    eax,DWORD PTR [ebp-0x14]
  1014cb:	01 d0                	add    eax,edx
  1014cd:	01 c0                	add    eax,eax
  1014cf:	8d 14 06             	lea    edx,[esi+eax*1]
  1014d2:	0f b7 01             	movzx  eax,WORD PTR [ecx]
  1014d5:	66 89 02             	mov    WORD PTR [edx],ax
  1014d8:	83 45 ec 01          	add    DWORD PTR [ebp-0x14],0x1
  1014dc:	83 7d ec 4f          	cmp    DWORD PTR [ebp-0x14],0x4f
  1014e0:	76 b2                	jbe    101494 <vga_scroll+0xae>
  1014e2:	83 45 f0 01          	add    DWORD PTR [ebp-0x10],0x1
  1014e6:	83 7d f0 18          	cmp    DWORD PTR [ebp-0x10],0x18
  1014ea:	76 9f                	jbe    10148b <vga_scroll+0xa5>
  1014ec:	c7 45 e8 00 00 00 00 	mov    DWORD PTR [ebp-0x18],0x0
  1014f3:	eb 3a                	jmp    10152f <vga_scroll+0x149>
  1014f5:	83 ec 08             	sub    esp,0x8
  1014f8:	6a 00                	push   0x0
  1014fa:	6a 0f                	push   0xf
  1014fc:	e8 67 fd ff ff       	call   101268 <make_color>
  101501:	83 c4 10             	add    esp,0x10
  101504:	0f b6 c0             	movzx  eax,al
  101507:	b9 00 80 0b 00       	mov    ecx,0xb8000
  10150c:	8b 55 e8             	mov    edx,DWORD PTR [ebp-0x18]
  10150f:	81 c2 80 07 00 00    	add    edx,0x780
  101515:	01 d2                	add    edx,edx
  101517:	8d 34 11             	lea    esi,[ecx+edx*1]
  10151a:	83 ec 08             	sub    esp,0x8
  10151d:	50                   	push   eax
  10151e:	6a 20                	push   0x20
  101520:	e8 5f fd ff ff       	call   101284 <make_vga_entry>
  101525:	83 c4 10             	add    esp,0x10
  101528:	66 89 06             	mov    WORD PTR [esi],ax
  10152b:	83 45 e8 01          	add    DWORD PTR [ebp-0x18],0x1
  10152f:	83 7d e8 4f          	cmp    DWORD PTR [ebp-0x18],0x4f
  101533:	76 c0                	jbe    1014f5 <vga_scroll+0x10f>
  101535:	c7 83 f8 4f 00 00 18 	mov    DWORD PTR [ebx+0x4ff8],0x18
  10153c:	00 00 00 
  10153f:	c7 83 fc 4f 00 00 00 	mov    DWORD PTR [ebx+0x4ffc],0x0
  101546:	00 00 00 
  101549:	90                   	nop
  10154a:	8d 65 f8             	lea    esp,[ebp-0x8]
  10154d:	5b                   	pop    ebx
  10154e:	5e                   	pop    esi
  10154f:	5d                   	pop    ebp
  101550:	c3                   	ret

00101551 <vga_view_reset>:
  101551:	55                   	push   ebp
  101552:	89 e5                	mov    ebp,esp
  101554:	53                   	push   ebx
  101555:	83 ec 14             	sub    esp,0x14
  101558:	e8 01 53 00 00       	call   10685e <__x86.get_pc_thunk.dx>
  10155d:	81 c2 ab 7a 00 00    	add    edx,0x7aab
  101563:	8b 82 58 9e 00 00    	mov    eax,DWORD PTR [edx+0x9e58]
  101569:	85 c0                	test   eax,eax
  10156b:	74 71                	je     1015de <vga_view_reset+0x8d>
  10156d:	c7 45 f4 00 00 00 00 	mov    DWORD PTR [ebp-0xc],0x0
  101574:	eb 51                	jmp    1015c7 <vga_view_reset+0x76>
  101576:	c7 45 f0 00 00 00 00 	mov    DWORD PTR [ebp-0x10],0x0
  10157d:	eb 3e                	jmp    1015bd <vga_view_reset+0x6c>
  10157f:	bb 00 80 0b 00       	mov    ebx,0xb8000
  101584:	8b 4d f4             	mov    ecx,DWORD PTR [ebp-0xc]
  101587:	89 c8                	mov    eax,ecx
  101589:	c1 e0 02             	shl    eax,0x2
  10158c:	01 c8                	add    eax,ecx
  10158e:	c1 e0 04             	shl    eax,0x4
  101591:	89 c1                	mov    ecx,eax
  101593:	8b 45 f0             	mov    eax,DWORD PTR [ebp-0x10]
  101596:	01 c8                	add    eax,ecx
  101598:	01 c0                	add    eax,eax
  10159a:	01 c3                	add    ebx,eax
  10159c:	8b 4d f4             	mov    ecx,DWORD PTR [ebp-0xc]
  10159f:	89 c8                	mov    eax,ecx
  1015a1:	c1 e0 02             	shl    eax,0x2
  1015a4:	01 c8                	add    eax,ecx
  1015a6:	c1 e0 04             	shl    eax,0x4
  1015a9:	8b 4d f0             	mov    ecx,DWORD PTR [ebp-0x10]
  1015ac:	01 c8                	add    eax,ecx
  1015ae:	0f b7 84 42 b8 8e 00 	movzx  eax,WORD PTR [edx+eax*2+0x8eb8]
  1015b5:	00 
  1015b6:	66 89 03             	mov    WORD PTR [ebx],ax
  1015b9:	83 45 f0 01          	add    DWORD PTR [ebp-0x10],0x1
  1015bd:	83 7d f0 4f          	cmp    DWORD PTR [ebp-0x10],0x4f
  1015c1:	76 bc                	jbe    10157f <vga_view_reset+0x2e>
  1015c3:	83 45 f4 01          	add    DWORD PTR [ebp-0xc],0x1
  1015c7:	83 7d f4 18          	cmp    DWORD PTR [ebp-0xc],0x18
  1015cb:	76 a9                	jbe    101576 <vga_view_reset+0x25>
  1015cd:	c7 82 58 9e 00 00 00 	mov    DWORD PTR [edx+0x9e58],0x0
  1015d4:	00 00 00 
  1015d7:	e8 23 02 00 00       	call   1017ff <vga_set_cursor>
  1015dc:	eb 01                	jmp    1015df <vga_view_reset+0x8e>
  1015de:	90                   	nop
  1015df:	8b 5d fc             	mov    ebx,DWORD PTR [ebp-0x4]
  1015e2:	c9                   	leave
  1015e3:	c3                   	ret

001015e4 <vga_view_up>:
  1015e4:	55                   	push   ebp
  1015e5:	89 e5                	mov    ebp,esp
  1015e7:	56                   	push   esi
  1015e8:	53                   	push   ebx
  1015e9:	83 ec 30             	sub    esp,0x30
  1015ec:	e8 71 52 00 00       	call   106862 <__x86.get_pc_thunk.cx>
  1015f1:	81 c1 17 7a 00 00    	add    ecx,0x7a17
  1015f7:	8b 81 9c 8e 00 00    	mov    eax,DWORD PTR [ecx+0x8e9c]
  1015fd:	85 c0                	test   eax,eax
  1015ff:	0f 84 cb 01 00 00    	je     1017d0 <vga_view_up+0x1ec>
  101605:	8b 81 58 9e 00 00    	mov    eax,DWORD PTR [ecx+0x9e58]
  10160b:	85 c0                	test   eax,eax
  10160d:	75 60                	jne    10166f <vga_view_up+0x8b>
  10160f:	c7 45 f4 00 00 00 00 	mov    DWORD PTR [ebp-0xc],0x0
  101616:	eb 51                	jmp    101669 <vga_view_up+0x85>
  101618:	c7 45 f0 00 00 00 00 	mov    DWORD PTR [ebp-0x10],0x0
  10161f:	eb 3e                	jmp    10165f <vga_view_up+0x7b>
  101621:	bb 00 80 0b 00       	mov    ebx,0xb8000
  101626:	8b 55 f4             	mov    edx,DWORD PTR [ebp-0xc]
  101629:	89 d0                	mov    eax,edx
  10162b:	c1 e0 02             	shl    eax,0x2
  10162e:	01 d0                	add    eax,edx
  101630:	c1 e0 04             	shl    eax,0x4
  101633:	89 c2                	mov    edx,eax
  101635:	8b 45 f0             	mov    eax,DWORD PTR [ebp-0x10]
  101638:	01 d0                	add    eax,edx
  10163a:	01 c0                	add    eax,eax
  10163c:	01 d8                	add    eax,ebx
  10163e:	0f b7 18             	movzx  ebx,WORD PTR [eax]
  101641:	8b 55 f4             	mov    edx,DWORD PTR [ebp-0xc]
  101644:	89 d0                	mov    eax,edx
  101646:	c1 e0 02             	shl    eax,0x2
  101649:	01 d0                	add    eax,edx
  10164b:	c1 e0 04             	shl    eax,0x4
  10164e:	8b 55 f0             	mov    edx,DWORD PTR [ebp-0x10]
  101651:	01 d0                	add    eax,edx
  101653:	66 89 9c 41 b8 8e 00 	mov    WORD PTR [ecx+eax*2+0x8eb8],bx
  10165a:	00 
  10165b:	83 45 f0 01          	add    DWORD PTR [ebp-0x10],0x1
  10165f:	83 7d f0 4f          	cmp    DWORD PTR [ebp-0x10],0x4f
  101663:	76 bc                	jbe    101621 <vga_view_up+0x3d>
  101665:	83 45 f4 01          	add    DWORD PTR [ebp-0xc],0x1
  101669:	83 7d f4 18          	cmp    DWORD PTR [ebp-0xc],0x18
  10166d:	76 a9                	jbe    101618 <vga_view_up+0x34>
  10166f:	8b 81 9c 8e 00 00    	mov    eax,DWORD PTR [ecx+0x8e9c]
  101675:	8b 91 58 9e 00 00    	mov    edx,DWORD PTR [ecx+0x9e58]
  10167b:	29 d0                	sub    eax,edx
  10167d:	89 45 d4             	mov    DWORD PTR [ebp-0x2c],eax
  101680:	83 7d d4 00          	cmp    DWORD PTR [ebp-0x2c],0x0
  101684:	0f 8e 49 01 00 00    	jle    1017d3 <vga_view_up+0x1ef>
  10168a:	c7 45 ec 0c 00 00 00 	mov    DWORD PTR [ebp-0x14],0xc
  101691:	8b 45 ec             	mov    eax,DWORD PTR [ebp-0x14]
  101694:	3b 45 d4             	cmp    eax,DWORD PTR [ebp-0x2c]
  101697:	7e 06                	jle    10169f <vga_view_up+0xbb>
  101699:	8b 45 d4             	mov    eax,DWORD PTR [ebp-0x2c]
  10169c:	89 45 ec             	mov    DWORD PTR [ebp-0x14],eax
  10169f:	c7 45 e8 18 00 00 00 	mov    DWORD PTR [ebp-0x18],0x18
  1016a6:	eb 5d                	jmp    101705 <vga_view_up+0x121>
  1016a8:	c7 45 e4 00 00 00 00 	mov    DWORD PTR [ebp-0x1c],0x0
  1016af:	eb 4a                	jmp    1016fb <vga_view_up+0x117>
  1016b1:	bb 00 80 0b 00       	mov    ebx,0xb8000
  1016b6:	8b 45 e8             	mov    eax,DWORD PTR [ebp-0x18]
  1016b9:	2b 45 ec             	sub    eax,DWORD PTR [ebp-0x14]
  1016bc:	89 c2                	mov    edx,eax
  1016be:	89 d0                	mov    eax,edx
  1016c0:	c1 e0 02             	shl    eax,0x2
  1016c3:	01 d0                	add    eax,edx
  1016c5:	c1 e0 04             	shl    eax,0x4
  1016c8:	89 c2                	mov    edx,eax
  1016ca:	8b 45 e4             	mov    eax,DWORD PTR [ebp-0x1c]
  1016cd:	01 d0                	add    eax,edx
  1016cf:	01 c0                	add    eax,eax
  1016d1:	01 c3                	add    ebx,eax
  1016d3:	be 00 80 0b 00       	mov    esi,0xb8000
  1016d8:	8b 55 e8             	mov    edx,DWORD PTR [ebp-0x18]
  1016db:	89 d0                	mov    eax,edx
  1016dd:	c1 e0 02             	shl    eax,0x2
  1016e0:	01 d0                	add    eax,edx
  1016e2:	c1 e0 04             	shl    eax,0x4
  1016e5:	89 c2                	mov    edx,eax
  1016e7:	8b 45 e4             	mov    eax,DWORD PTR [ebp-0x1c]
  1016ea:	01 d0                	add    eax,edx
  1016ec:	01 c0                	add    eax,eax
  1016ee:	8d 14 06             	lea    edx,[esi+eax*1]
  1016f1:	0f b7 03             	movzx  eax,WORD PTR [ebx]
  1016f4:	66 89 02             	mov    WORD PTR [edx],ax
  1016f7:	83 45 e4 01          	add    DWORD PTR [ebp-0x1c],0x1
  1016fb:	83 7d e4 4f          	cmp    DWORD PTR [ebp-0x1c],0x4f
  1016ff:	76 b0                	jbe    1016b1 <vga_view_up+0xcd>
  101701:	83 6d e8 01          	sub    DWORD PTR [ebp-0x18],0x1
  101705:	8b 45 e8             	mov    eax,DWORD PTR [ebp-0x18]
  101708:	3b 45 ec             	cmp    eax,DWORD PTR [ebp-0x14]
  10170b:	7d 9b                	jge    1016a8 <vga_view_up+0xc4>
  10170d:	c7 45 e0 00 00 00 00 	mov    DWORD PTR [ebp-0x20],0x0
  101714:	e9 98 00 00 00       	jmp    1017b1 <vga_view_up+0x1cd>
  101719:	8b 81 98 8e 00 00    	mov    eax,DWORD PTR [ecx+0x8e98]
  10171f:	8b 91 58 9e 00 00    	mov    edx,DWORD PTR [ecx+0x9e58]
  101725:	29 d0                	sub    eax,edx
  101727:	2b 45 ec             	sub    eax,DWORD PTR [ebp-0x14]
  10172a:	89 c2                	mov    edx,eax
  10172c:	8b 45 e0             	mov    eax,DWORD PTR [ebp-0x20]
  10172f:	01 d0                	add    eax,edx
  101731:	89 45 dc             	mov    DWORD PTR [ebp-0x24],eax
  101734:	eb 04                	jmp    10173a <vga_view_up+0x156>
  101736:	83 45 dc 64          	add    DWORD PTR [ebp-0x24],0x64
  10173a:	83 7d dc 00          	cmp    DWORD PTR [ebp-0x24],0x0
  10173e:	78 f6                	js     101736 <vga_view_up+0x152>
  101740:	8b 5d dc             	mov    ebx,DWORD PTR [ebp-0x24]
  101743:	ba 1f 85 eb 51       	mov    edx,0x51eb851f
  101748:	89 d8                	mov    eax,ebx
  10174a:	f7 ea                	imul   edx
  10174c:	c1 fa 05             	sar    edx,0x5
  10174f:	89 d8                	mov    eax,ebx
  101751:	c1 f8 1f             	sar    eax,0x1f
  101754:	29 c2                	sub    edx,eax
  101756:	6b c2 64             	imul   eax,edx,0x64
  101759:	29 c3                	sub    ebx,eax
  10175b:	89 da                	mov    edx,ebx
  10175d:	89 55 dc             	mov    DWORD PTR [ebp-0x24],edx
  101760:	c7 45 d8 00 00 00 00 	mov    DWORD PTR [ebp-0x28],0x0
  101767:	eb 3e                	jmp    1017a7 <vga_view_up+0x1c3>
  101769:	bb 00 80 0b 00       	mov    ebx,0xb8000
  10176e:	8b 55 e0             	mov    edx,DWORD PTR [ebp-0x20]
  101771:	89 d0                	mov    eax,edx
  101773:	c1 e0 02             	shl    eax,0x2
  101776:	01 d0                	add    eax,edx
  101778:	c1 e0 04             	shl    eax,0x4
  10177b:	89 c2                	mov    edx,eax
  10177d:	8b 45 d8             	mov    eax,DWORD PTR [ebp-0x28]
  101780:	01 d0                	add    eax,edx
  101782:	01 c0                	add    eax,eax
  101784:	01 c3                	add    ebx,eax
  101786:	8b 55 dc             	mov    edx,DWORD PTR [ebp-0x24]
  101789:	89 d0                	mov    eax,edx
  10178b:	c1 e0 02             	shl    eax,0x2
  10178e:	01 d0                	add    eax,edx
  101790:	c1 e0 04             	shl    eax,0x4
  101793:	8b 55 d8             	mov    edx,DWORD PTR [ebp-0x28]
  101796:	01 d0                	add    eax,edx
  101798:	0f b7 84 41 18 50 00 	movzx  eax,WORD PTR [ecx+eax*2+0x5018]
  10179f:	00 
  1017a0:	66 89 03             	mov    WORD PTR [ebx],ax
  1017a3:	83 45 d8 01          	add    DWORD PTR [ebp-0x28],0x1
  1017a7:	83 7d d8 4f          	cmp    DWORD PTR [ebp-0x28],0x4f
  1017ab:	76 bc                	jbe    101769 <vga_view_up+0x185>
  1017ad:	83 45 e0 01          	add    DWORD PTR [ebp-0x20],0x1
  1017b1:	8b 45 e0             	mov    eax,DWORD PTR [ebp-0x20]
  1017b4:	3b 45 ec             	cmp    eax,DWORD PTR [ebp-0x14]
  1017b7:	0f 8c 5c ff ff ff    	jl     101719 <vga_view_up+0x135>
  1017bd:	8b 91 58 9e 00 00    	mov    edx,DWORD PTR [ecx+0x9e58]
  1017c3:	8b 45 ec             	mov    eax,DWORD PTR [ebp-0x14]
  1017c6:	01 d0                	add    eax,edx
  1017c8:	89 81 58 9e 00 00    	mov    DWORD PTR [ecx+0x9e58],eax
  1017ce:	eb 04                	jmp    1017d4 <vga_view_up+0x1f0>
  1017d0:	90                   	nop
  1017d1:	eb 01                	jmp    1017d4 <vga_view_up+0x1f0>
  1017d3:	90                   	nop
  1017d4:	83 c4 30             	add    esp,0x30
  1017d7:	5b                   	pop    ebx
  1017d8:	5e                   	pop    esi
  1017d9:	5d                   	pop    ebp
  1017da:	c3                   	ret

001017db <vga_view_down>:
  1017db:	55                   	push   ebp
  1017dc:	89 e5                	mov    ebp,esp
  1017de:	83 ec 08             	sub    esp,0x8
  1017e1:	e8 74 50 00 00       	call   10685a <__x86.get_pc_thunk.ax>
  1017e6:	05 22 78 00 00       	add    eax,0x7822
  1017eb:	8b 80 58 9e 00 00    	mov    eax,DWORD PTR [eax+0x9e58]
  1017f1:	85 c0                	test   eax,eax
  1017f3:	74 07                	je     1017fc <vga_view_down+0x21>
  1017f5:	e8 57 fd ff ff       	call   101551 <vga_view_reset>
  1017fa:	eb 01                	jmp    1017fd <vga_view_down+0x22>
  1017fc:	90                   	nop
  1017fd:	c9                   	leave
  1017fe:	c3                   	ret

001017ff <vga_set_cursor>:
  1017ff:	55                   	push   ebp
  101800:	89 e5                	mov    ebp,esp
  101802:	83 ec 10             	sub    esp,0x10
  101805:	e8 54 50 00 00       	call   10685e <__x86.get_pc_thunk.dx>
  10180a:	81 c2 fe 77 00 00    	add    edx,0x77fe
  101810:	8b 82 f8 4f 00 00    	mov    eax,DWORD PTR [edx+0x4ff8]
  101816:	89 c1                	mov    ecx,eax
  101818:	89 c8                	mov    eax,ecx
  10181a:	c1 e0 02             	shl    eax,0x2
  10181d:	01 c8                	add    eax,ecx
  10181f:	c1 e0 04             	shl    eax,0x4
  101822:	89 c1                	mov    ecx,eax
  101824:	8b 82 fc 4f 00 00    	mov    eax,DWORD PTR [edx+0x4ffc]
  10182a:	01 c8                	add    eax,ecx
  10182c:	66 89 45 fe          	mov    WORD PTR [ebp-0x2],ax
  101830:	6a 0e                	push   0xe
  101832:	68 d4 03 00 00       	push   0x3d4
  101837:	e8 74 fa ff ff       	call   1012b0 <vga_outb>
  10183c:	83 c4 08             	add    esp,0x8
  10183f:	0f b7 45 fe          	movzx  eax,WORD PTR [ebp-0x2]
  101843:	66 c1 e8 08          	shr    ax,0x8
  101847:	0f b6 c0             	movzx  eax,al
  10184a:	50                   	push   eax
  10184b:	68 d5 03 00 00       	push   0x3d5
  101850:	e8 5b fa ff ff       	call   1012b0 <vga_outb>
  101855:	83 c4 08             	add    esp,0x8
  101858:	6a 0f                	push   0xf
  10185a:	68 d4 03 00 00       	push   0x3d4
  10185f:	e8 4c fa ff ff       	call   1012b0 <vga_outb>
  101864:	83 c4 08             	add    esp,0x8
  101867:	0f b7 45 fe          	movzx  eax,WORD PTR [ebp-0x2]
  10186b:	0f b6 c0             	movzx  eax,al
  10186e:	50                   	push   eax
  10186f:	68 d5 03 00 00       	push   0x3d5
  101874:	e8 37 fa ff ff       	call   1012b0 <vga_outb>
  101879:	83 c4 08             	add    esp,0x8
  10187c:	90                   	nop
  10187d:	c9                   	leave
  10187e:	c3                   	ret

0010187f <vga_putchar>:
  10187f:	55                   	push   ebp
  101880:	89 e5                	mov    ebp,esp
  101882:	56                   	push   esi
  101883:	53                   	push   ebx
  101884:	83 ec 20             	sub    esp,0x20
  101887:	e8 ca 4f 00 00       	call   106856 <__x86.get_pc_thunk.bx>
  10188c:	81 c3 7c 77 00 00    	add    ebx,0x777c
  101892:	8b 45 08             	mov    eax,DWORD PTR [ebp+0x8]
  101895:	88 45 e4             	mov    BYTE PTR [ebp-0x1c],al
  101898:	80 7d e4 0a          	cmp    BYTE PTR [ebp-0x1c],0xa
  10189c:	75 33                	jne    1018d1 <vga_putchar+0x52>
  10189e:	c7 83 fc 4f 00 00 00 	mov    DWORD PTR [ebx+0x4ffc],0x0
  1018a5:	00 00 00 
  1018a8:	8b 83 f8 4f 00 00    	mov    eax,DWORD PTR [ebx+0x4ff8]
  1018ae:	83 c0 01             	add    eax,0x1
  1018b1:	89 83 f8 4f 00 00    	mov    DWORD PTR [ebx+0x4ff8],eax
  1018b7:	8b 83 f8 4f 00 00    	mov    eax,DWORD PTR [ebx+0x4ff8]
  1018bd:	83 f8 18             	cmp    eax,0x18
  1018c0:	76 05                	jbe    1018c7 <vga_putchar+0x48>
  1018c2:	e8 1f fb ff ff       	call   1013e6 <vga_scroll>
  1018c7:	e8 33 ff ff ff       	call   1017ff <vga_set_cursor>
  1018cc:	e9 80 00 00 00       	jmp    101951 <vga_putchar+0xd2>
  1018d1:	8b 93 f8 4f 00 00    	mov    edx,DWORD PTR [ebx+0x4ff8]
  1018d7:	89 d0                	mov    eax,edx
  1018d9:	c1 e0 02             	shl    eax,0x2
  1018dc:	01 d0                	add    eax,edx
  1018de:	c1 e0 04             	shl    eax,0x4
  1018e1:	89 c2                	mov    edx,eax
  1018e3:	8b 83 fc 4f 00 00    	mov    eax,DWORD PTR [ebx+0x4ffc]
  1018e9:	01 d0                	add    eax,edx
  1018eb:	89 45 f4             	mov    DWORD PTR [ebp-0xc],eax
  1018ee:	0f b6 83 00 50 00 00 	movzx  eax,BYTE PTR [ebx+0x5000]
  1018f5:	0f b6 d0             	movzx  edx,al
  1018f8:	0f be 45 e4          	movsx  eax,BYTE PTR [ebp-0x1c]
  1018fc:	be 00 80 0b 00       	mov    esi,0xb8000
  101901:	8b 4d f4             	mov    ecx,DWORD PTR [ebp-0xc]
  101904:	01 c9                	add    ecx,ecx
  101906:	01 ce                	add    esi,ecx
  101908:	83 ec 08             	sub    esp,0x8
  10190b:	52                   	push   edx
  10190c:	50                   	push   eax
  10190d:	e8 72 f9 ff ff       	call   101284 <make_vga_entry>
  101912:	83 c4 10             	add    esp,0x10
  101915:	66 89 06             	mov    WORD PTR [esi],ax
  101918:	8b 83 fc 4f 00 00    	mov    eax,DWORD PTR [ebx+0x4ffc]
  10191e:	83 c0 01             	add    eax,0x1
  101921:	89 83 fc 4f 00 00    	mov    DWORD PTR [ebx+0x4ffc],eax
  101927:	8b 83 fc 4f 00 00    	mov    eax,DWORD PTR [ebx+0x4ffc]
  10192d:	83 f8 50             	cmp    eax,0x50
  101930:	75 1a                	jne    10194c <vga_putchar+0xcd>
  101932:	c7 83 fc 4f 00 00 00 	mov    DWORD PTR [ebx+0x4ffc],0x0
  101939:	00 00 00 
  10193c:	8b 83 f8 4f 00 00    	mov    eax,DWORD PTR [ebx+0x4ff8]
  101942:	83 f8 18             	cmp    eax,0x18
  101945:	76 05                	jbe    10194c <vga_putchar+0xcd>
  101947:	e8 9a fa ff ff       	call   1013e6 <vga_scroll>
  10194c:	e8 ae fe ff ff       	call   1017ff <vga_set_cursor>
  101951:	8d 65 f8             	lea    esp,[ebp-0x8]
  101954:	5b                   	pop    ebx
  101955:	5e                   	pop    esi
  101956:	5d                   	pop    ebp
  101957:	c3                   	ret

00101958 <vga_print>:
  101958:	55                   	push   ebp
  101959:	89 e5                	mov    ebp,esp
  10195b:	83 ec 08             	sub    esp,0x8
  10195e:	e8 f7 4e 00 00       	call   10685a <__x86.get_pc_thunk.ax>
  101963:	05 a5 76 00 00       	add    eax,0x76a5
  101968:	eb 19                	jmp    101983 <vga_print+0x2b>
  10196a:	8b 45 08             	mov    eax,DWORD PTR [ebp+0x8]
  10196d:	0f b6 00             	movzx  eax,BYTE PTR [eax]
  101970:	0f be c0             	movsx  eax,al
  101973:	83 ec 0c             	sub    esp,0xc
  101976:	50                   	push   eax
  101977:	e8 03 ff ff ff       	call   10187f <vga_putchar>
  10197c:	83 c4 10             	add    esp,0x10
  10197f:	83 45 08 01          	add    DWORD PTR [ebp+0x8],0x1
  101983:	8b 45 08             	mov    eax,DWORD PTR [ebp+0x8]
  101986:	0f b6 00             	movzx  eax,BYTE PTR [eax]
  101989:	84 c0                	test   al,al
  10198b:	75 dd                	jne    10196a <vga_print+0x12>
  10198d:	90                   	nop
  10198e:	90                   	nop
  10198f:	c9                   	leave
  101990:	c3                   	ret

00101991 <vga_backspace>:
  101991:	55                   	push   ebp
  101992:	89 e5                	mov    ebp,esp
  101994:	53                   	push   ebx
  101995:	83 ec 10             	sub    esp,0x10
  101998:	e8 bd 4e 00 00       	call   10685a <__x86.get_pc_thunk.ax>
  10199d:	05 6b 76 00 00       	add    eax,0x766b
  1019a2:	8b 90 fc 4f 00 00    	mov    edx,DWORD PTR [eax+0x4ffc]
  1019a8:	85 d2                	test   edx,edx
  1019aa:	74 11                	je     1019bd <vga_backspace+0x2c>
  1019ac:	8b 90 fc 4f 00 00    	mov    edx,DWORD PTR [eax+0x4ffc]
  1019b2:	83 ea 01             	sub    edx,0x1
  1019b5:	89 90 fc 4f 00 00    	mov    DWORD PTR [eax+0x4ffc],edx
  1019bb:	eb 23                	jmp    1019e0 <vga_backspace+0x4f>
  1019bd:	8b 90 f8 4f 00 00    	mov    edx,DWORD PTR [eax+0x4ff8]
  1019c3:	85 d2                	test   edx,edx
  1019c5:	74 65                	je     101a2c <vga_backspace+0x9b>
  1019c7:	8b 90 f8 4f 00 00    	mov    edx,DWORD PTR [eax+0x4ff8]
  1019cd:	83 ea 01             	sub    edx,0x1
  1019d0:	89 90 f8 4f 00 00    	mov    DWORD PTR [eax+0x4ff8],edx
  1019d6:	c7 80 fc 4f 00 00 4f 	mov    DWORD PTR [eax+0x4ffc],0x4f
  1019dd:	00 00 00 
  1019e0:	8b 88 f8 4f 00 00    	mov    ecx,DWORD PTR [eax+0x4ff8]
  1019e6:	89 ca                	mov    edx,ecx
  1019e8:	c1 e2 02             	shl    edx,0x2
  1019eb:	01 ca                	add    edx,ecx
  1019ed:	c1 e2 04             	shl    edx,0x4
  1019f0:	8b 80 fc 4f 00 00    	mov    eax,DWORD PTR [eax+0x4ffc]
  1019f6:	01 d0                	add    eax,edx
  1019f8:	89 45 f8             	mov    DWORD PTR [ebp-0x8],eax
  1019fb:	6a 00                	push   0x0
  1019fd:	6a 0f                	push   0xf
  1019ff:	e8 64 f8 ff ff       	call   101268 <make_color>
  101a04:	83 c4 08             	add    esp,0x8
  101a07:	0f b6 c0             	movzx  eax,al
  101a0a:	b9 00 80 0b 00       	mov    ecx,0xb8000
  101a0f:	8b 55 f8             	mov    edx,DWORD PTR [ebp-0x8]
  101a12:	01 d2                	add    edx,edx
  101a14:	8d 1c 11             	lea    ebx,[ecx+edx*1]
  101a17:	50                   	push   eax
  101a18:	6a 20                	push   0x20
  101a1a:	e8 65 f8 ff ff       	call   101284 <make_vga_entry>
  101a1f:	83 c4 08             	add    esp,0x8
  101a22:	66 89 03             	mov    WORD PTR [ebx],ax
  101a25:	e8 d5 fd ff ff       	call   1017ff <vga_set_cursor>
  101a2a:	eb 01                	jmp    101a2d <vga_backspace+0x9c>
  101a2c:	90                   	nop
  101a2d:	8b 5d fc             	mov    ebx,DWORD PTR [ebp-0x4]
  101a30:	c9                   	leave
  101a31:	c3                   	ret

00101a32 <gdt_set_entry>:
  101a32:	55                   	push   ebp
  101a33:	89 e5                	mov    ebp,esp
  101a35:	83 ec 08             	sub    esp,0x8
  101a38:	e8 1d 4e 00 00       	call   10685a <__x86.get_pc_thunk.ax>
  101a3d:	05 cb 75 00 00       	add    eax,0x75cb
  101a42:	8b 4d 14             	mov    ecx,DWORD PTR [ebp+0x14]
  101a45:	8b 55 18             	mov    edx,DWORD PTR [ebp+0x18]
  101a48:	88 4d fc             	mov    BYTE PTR [ebp-0x4],cl
  101a4b:	88 55 f8             	mov    BYTE PTR [ebp-0x8],dl
  101a4e:	8b 55 0c             	mov    edx,DWORD PTR [ebp+0xc]
  101a51:	89 d1                	mov    ecx,edx
  101a53:	8b 55 08             	mov    edx,DWORD PTR [ebp+0x8]
  101a56:	66 89 8c d0 5e 9e 00 	mov    WORD PTR [eax+edx*8+0x9e5e],cx
  101a5d:	00 
  101a5e:	8b 55 0c             	mov    edx,DWORD PTR [ebp+0xc]
  101a61:	c1 ea 10             	shr    edx,0x10
  101a64:	89 d1                	mov    ecx,edx
  101a66:	8b 55 08             	mov    edx,DWORD PTR [ebp+0x8]
  101a69:	88 8c d0 60 9e 00 00 	mov    BYTE PTR [eax+edx*8+0x9e60],cl
  101a70:	8b 55 0c             	mov    edx,DWORD PTR [ebp+0xc]
  101a73:	c1 ea 18             	shr    edx,0x18
  101a76:	89 d1                	mov    ecx,edx
  101a78:	8b 55 08             	mov    edx,DWORD PTR [ebp+0x8]
  101a7b:	88 8c d0 63 9e 00 00 	mov    BYTE PTR [eax+edx*8+0x9e63],cl
  101a82:	8b 55 10             	mov    edx,DWORD PTR [ebp+0x10]
  101a85:	89 d1                	mov    ecx,edx
  101a87:	8b 55 08             	mov    edx,DWORD PTR [ebp+0x8]
  101a8a:	66 89 8c d0 5c 9e 00 	mov    WORD PTR [eax+edx*8+0x9e5c],cx
  101a91:	00 
  101a92:	8b 55 10             	mov    edx,DWORD PTR [ebp+0x10]
  101a95:	c1 ea 10             	shr    edx,0x10
  101a98:	89 d1                	mov    ecx,edx
  101a9a:	83 e1 0f             	and    ecx,0xf
  101a9d:	8b 55 08             	mov    edx,DWORD PTR [ebp+0x8]
  101aa0:	88 8c d0 62 9e 00 00 	mov    BYTE PTR [eax+edx*8+0x9e62],cl
  101aa7:	8b 55 08             	mov    edx,DWORD PTR [ebp+0x8]
  101aaa:	0f b6 94 d0 62 9e 00 	movzx  edx,BYTE PTR [eax+edx*8+0x9e62]
  101ab1:	00 
  101ab2:	89 d1                	mov    ecx,edx
  101ab4:	0f b6 55 f8          	movzx  edx,BYTE PTR [ebp-0x8]
  101ab8:	83 e2 f0             	and    edx,0xfffffff0
  101abb:	09 ca                	or     edx,ecx
  101abd:	89 d1                	mov    ecx,edx
  101abf:	8b 55 08             	mov    edx,DWORD PTR [ebp+0x8]
  101ac2:	88 8c d0 62 9e 00 00 	mov    BYTE PTR [eax+edx*8+0x9e62],cl
  101ac9:	8b 55 08             	mov    edx,DWORD PTR [ebp+0x8]
  101acc:	0f b6 4d fc          	movzx  ecx,BYTE PTR [ebp-0x4]
  101ad0:	88 8c d0 61 9e 00 00 	mov    BYTE PTR [eax+edx*8+0x9e61],cl
  101ad7:	90                   	nop
  101ad8:	c9                   	leave
  101ad9:	c3                   	ret

00101ada <gdt_init>:
  101ada:	55                   	push   ebp
  101adb:	89 e5                	mov    ebp,esp
  101add:	53                   	push   ebx
  101ade:	83 ec 04             	sub    esp,0x4
  101ae1:	e8 70 4d 00 00       	call   106856 <__x86.get_pc_thunk.bx>
  101ae6:	81 c3 22 75 00 00    	add    ebx,0x7522
  101aec:	66 c7 83 74 9e 00 00 	mov    WORD PTR [ebx+0x9e74],0x17
  101af3:	17 00 
  101af5:	8d 83 5c 9e 00 00    	lea    eax,[ebx+0x9e5c]
  101afb:	89 83 76 9e 00 00    	mov    DWORD PTR [ebx+0x9e76],eax
  101b01:	6a 00                	push   0x0
  101b03:	6a 00                	push   0x0
  101b05:	6a 00                	push   0x0
  101b07:	6a 00                	push   0x0
  101b09:	6a 00                	push   0x0
  101b0b:	e8 22 ff ff ff       	call   101a32 <gdt_set_entry>
  101b10:	83 c4 14             	add    esp,0x14
  101b13:	68 cf 00 00 00       	push   0xcf
  101b18:	68 9a 00 00 00       	push   0x9a
  101b1d:	6a ff                	push   0xffffffff
  101b1f:	6a 00                	push   0x0
  101b21:	6a 01                	push   0x1
  101b23:	e8 0a ff ff ff       	call   101a32 <gdt_set_entry>
  101b28:	83 c4 14             	add    esp,0x14
  101b2b:	68 cf 00 00 00       	push   0xcf
  101b30:	68 92 00 00 00       	push   0x92
  101b35:	6a ff                	push   0xffffffff
  101b37:	6a 00                	push   0x0
  101b39:	6a 02                	push   0x2
  101b3b:	e8 f2 fe ff ff       	call   101a32 <gdt_set_entry>
  101b40:	83 c4 14             	add    esp,0x14
  101b43:	8d 83 74 9e 00 00    	lea    eax,[ebx+0x9e74]
  101b49:	83 ec 0c             	sub    esp,0xc
  101b4c:	50                   	push   eax
  101b4d:	e8 0e 00 00 00       	call   101b60 <gdt_flush>
  101b52:	83 c4 10             	add    esp,0x10
  101b55:	90                   	nop
  101b56:	8b 5d fc             	mov    ebx,DWORD PTR [ebp-0x4]
  101b59:	c9                   	leave
  101b5a:	c3                   	ret
  101b5b:	66 90                	xchg   ax,ax
  101b5d:	66 90                	xchg   ax,ax
  101b5f:	90                   	nop

00101b60 <gdt_flush>:
  101b60:	8b 44 24 04          	mov    eax,DWORD PTR [esp+0x4]
  101b64:	0f 01 10             	lgdtd  [eax]
  101b67:	66 b8 10 00          	mov    ax,0x10
  101b6b:	8e d8                	mov    ds,eax
  101b6d:	8e c0                	mov    es,eax
  101b6f:	8e e0                	mov    fs,eax
  101b71:	8e e8                	mov    gs,eax
  101b73:	8e d0                	mov    ss,eax
  101b75:	ea 7c 1b 10 00 08 00 	jmp    0x8:0x101b7c

00101b7c <gdt_flush.flush>:
  101b7c:	c3                   	ret

00101b7d <outb>:
  101b7d:	55                   	push   ebp
  101b7e:	89 e5                	mov    ebp,esp
  101b80:	83 ec 08             	sub    esp,0x8
  101b83:	e8 d2 4c 00 00       	call   10685a <__x86.get_pc_thunk.ax>
  101b88:	05 80 74 00 00       	add    eax,0x7480
  101b8d:	8b 55 08             	mov    edx,DWORD PTR [ebp+0x8]
  101b90:	8b 45 0c             	mov    eax,DWORD PTR [ebp+0xc]
  101b93:	66 89 55 fc          	mov    WORD PTR [ebp-0x4],dx
  101b97:	88 45 f8             	mov    BYTE PTR [ebp-0x8],al
  101b9a:	0f b7 55 fc          	movzx  edx,WORD PTR [ebp-0x4]
  101b9e:	0f b6 45 f8          	movzx  eax,BYTE PTR [ebp-0x8]
  101ba2:	ee                   	out    dx,al
  101ba3:	90                   	nop
  101ba4:	c9                   	leave
  101ba5:	c3                   	ret

00101ba6 <inb>:
  101ba6:	55                   	push   ebp
  101ba7:	89 e5                	mov    ebp,esp
  101ba9:	83 ec 14             	sub    esp,0x14
  101bac:	e8 a9 4c 00 00       	call   10685a <__x86.get_pc_thunk.ax>
  101bb1:	05 57 74 00 00       	add    eax,0x7457
  101bb6:	8b 45 08             	mov    eax,DWORD PTR [ebp+0x8]
  101bb9:	66 89 45 ec          	mov    WORD PTR [ebp-0x14],ax
  101bbd:	0f b7 45 ec          	movzx  eax,WORD PTR [ebp-0x14]
  101bc1:	89 c2                	mov    edx,eax
  101bc3:	ec                   	in     al,dx
  101bc4:	88 45 ff             	mov    BYTE PTR [ebp-0x1],al
  101bc7:	0f b6 45 ff          	movzx  eax,BYTE PTR [ebp-0x1]
  101bcb:	c9                   	leave
  101bcc:	c3                   	ret

00101bcd <io_wait>:
  101bcd:	55                   	push   ebp
  101bce:	89 e5                	mov    ebp,esp
  101bd0:	e8 85 4c 00 00       	call   10685a <__x86.get_pc_thunk.ax>
  101bd5:	05 33 74 00 00       	add    eax,0x7433
  101bda:	6a 00                	push   0x0
  101bdc:	68 80 00 00 00       	push   0x80
  101be1:	e8 97 ff ff ff       	call   101b7d <outb>
  101be6:	83 c4 08             	add    esp,0x8
  101be9:	90                   	nop
  101bea:	c9                   	leave
  101beb:	c3                   	ret

00101bec <idt_set_gate>:
  101bec:	55                   	push   ebp
  101bed:	89 e5                	mov    ebp,esp
  101bef:	53                   	push   ebx
  101bf0:	83 ec 0c             	sub    esp,0xc
  101bf3:	e8 62 4c 00 00       	call   10685a <__x86.get_pc_thunk.ax>
  101bf8:	05 10 74 00 00       	add    eax,0x7410
  101bfd:	8b 5d 08             	mov    ebx,DWORD PTR [ebp+0x8]
  101c00:	8b 4d 10             	mov    ecx,DWORD PTR [ebp+0x10]
  101c03:	8b 55 14             	mov    edx,DWORD PTR [ebp+0x14]
  101c06:	88 5d f8             	mov    BYTE PTR [ebp-0x8],bl
  101c09:	66 89 4d f4          	mov    WORD PTR [ebp-0xc],cx
  101c0d:	88 55 f0             	mov    BYTE PTR [ebp-0x10],dl
  101c10:	0f b6 55 f8          	movzx  edx,BYTE PTR [ebp-0x8]
  101c14:	8b 4d 0c             	mov    ecx,DWORD PTR [ebp+0xc]
  101c17:	66 89 8c d0 98 9e 00 	mov    WORD PTR [eax+edx*8+0x9e98],cx
  101c1e:	00 
  101c1f:	8b 55 0c             	mov    edx,DWORD PTR [ebp+0xc]
  101c22:	c1 ea 10             	shr    edx,0x10
  101c25:	89 d1                	mov    ecx,edx
  101c27:	0f b6 55 f8          	movzx  edx,BYTE PTR [ebp-0x8]
  101c2b:	66 89 8c d0 9e 9e 00 	mov    WORD PTR [eax+edx*8+0x9e9e],cx
  101c32:	00 
  101c33:	0f b6 55 f8          	movzx  edx,BYTE PTR [ebp-0x8]
  101c37:	0f b7 4d f4          	movzx  ecx,WORD PTR [ebp-0xc]
  101c3b:	66 89 8c d0 9a 9e 00 	mov    WORD PTR [eax+edx*8+0x9e9a],cx
  101c42:	00 
  101c43:	0f b6 55 f8          	movzx  edx,BYTE PTR [ebp-0x8]
  101c47:	c6 84 d0 9c 9e 00 00 	mov    BYTE PTR [eax+edx*8+0x9e9c],0x0
  101c4e:	00 
  101c4f:	0f b6 55 f8          	movzx  edx,BYTE PTR [ebp-0x8]
  101c53:	0f b6 4d f0          	movzx  ecx,BYTE PTR [ebp-0x10]
  101c57:	88 8c d0 9d 9e 00 00 	mov    BYTE PTR [eax+edx*8+0x9e9d],cl
  101c5e:	90                   	nop
  101c5f:	8b 5d fc             	mov    ebx,DWORD PTR [ebp-0x4]
  101c62:	c9                   	leave
  101c63:	c3                   	ret

00101c64 <pic_remap>:
  101c64:	55                   	push   ebp
  101c65:	89 e5                	mov    ebp,esp
  101c67:	83 ec 10             	sub    esp,0x10
  101c6a:	e8 eb 4b 00 00       	call   10685a <__x86.get_pc_thunk.ax>
  101c6f:	05 99 73 00 00       	add    eax,0x7399
  101c74:	6a 21                	push   0x21
  101c76:	e8 2b ff ff ff       	call   101ba6 <inb>
  101c7b:	83 c4 04             	add    esp,0x4
  101c7e:	88 45 ff             	mov    BYTE PTR [ebp-0x1],al
  101c81:	68 a1 00 00 00       	push   0xa1
  101c86:	e8 1b ff ff ff       	call   101ba6 <inb>
  101c8b:	83 c4 04             	add    esp,0x4
  101c8e:	88 45 fe             	mov    BYTE PTR [ebp-0x2],al
  101c91:	6a 11                	push   0x11
  101c93:	6a 20                	push   0x20
  101c95:	e8 e3 fe ff ff       	call   101b7d <outb>
  101c9a:	83 c4 08             	add    esp,0x8
  101c9d:	e8 2b ff ff ff       	call   101bcd <io_wait>
  101ca2:	6a 11                	push   0x11
  101ca4:	68 a0 00 00 00       	push   0xa0
  101ca9:	e8 cf fe ff ff       	call   101b7d <outb>
  101cae:	83 c4 08             	add    esp,0x8
  101cb1:	e8 17 ff ff ff       	call   101bcd <io_wait>
  101cb6:	6a 20                	push   0x20
  101cb8:	6a 21                	push   0x21
  101cba:	e8 be fe ff ff       	call   101b7d <outb>
  101cbf:	83 c4 08             	add    esp,0x8
  101cc2:	e8 06 ff ff ff       	call   101bcd <io_wait>
  101cc7:	6a 28                	push   0x28
  101cc9:	68 a1 00 00 00       	push   0xa1
  101cce:	e8 aa fe ff ff       	call   101b7d <outb>
  101cd3:	83 c4 08             	add    esp,0x8
  101cd6:	e8 f2 fe ff ff       	call   101bcd <io_wait>
  101cdb:	6a 04                	push   0x4
  101cdd:	6a 21                	push   0x21
  101cdf:	e8 99 fe ff ff       	call   101b7d <outb>
  101ce4:	83 c4 08             	add    esp,0x8
  101ce7:	e8 e1 fe ff ff       	call   101bcd <io_wait>
  101cec:	6a 02                	push   0x2
  101cee:	68 a1 00 00 00       	push   0xa1
  101cf3:	e8 85 fe ff ff       	call   101b7d <outb>
  101cf8:	83 c4 08             	add    esp,0x8
  101cfb:	e8 cd fe ff ff       	call   101bcd <io_wait>
  101d00:	6a 01                	push   0x1
  101d02:	6a 21                	push   0x21
  101d04:	e8 74 fe ff ff       	call   101b7d <outb>
  101d09:	83 c4 08             	add    esp,0x8
  101d0c:	e8 bc fe ff ff       	call   101bcd <io_wait>
  101d11:	6a 01                	push   0x1
  101d13:	68 a1 00 00 00       	push   0xa1
  101d18:	e8 60 fe ff ff       	call   101b7d <outb>
  101d1d:	83 c4 08             	add    esp,0x8
  101d20:	e8 a8 fe ff ff       	call   101bcd <io_wait>
  101d25:	68 ff 00 00 00       	push   0xff
  101d2a:	6a 21                	push   0x21
  101d2c:	e8 4c fe ff ff       	call   101b7d <outb>
  101d31:	83 c4 08             	add    esp,0x8
  101d34:	68 ff 00 00 00       	push   0xff
  101d39:	68 a1 00 00 00       	push   0xa1
  101d3e:	e8 3a fe ff ff       	call   101b7d <outb>
  101d43:	83 c4 08             	add    esp,0x8
  101d46:	90                   	nop
  101d47:	c9                   	leave
  101d48:	c3                   	ret

00101d49 <isr_handler>:
  101d49:	55                   	push   ebp
  101d4a:	89 e5                	mov    ebp,esp
  101d4c:	53                   	push   ebx
  101d4d:	83 ec 04             	sub    esp,0x4
  101d50:	e8 01 4b 00 00       	call   106856 <__x86.get_pc_thunk.bx>
  101d55:	81 c3 b3 72 00 00    	add    ebx,0x72b3
  101d5b:	8b 45 2c             	mov    eax,DWORD PTR [ebp+0x2c]
  101d5e:	83 f8 0e             	cmp    eax,0xe
  101d61:	75 11                	jne    101d74 <isr_handler+0x2b>
  101d63:	8b 45 30             	mov    eax,DWORD PTR [ebp+0x30]
  101d66:	83 ec 0c             	sub    esp,0xc
  101d69:	50                   	push   eax
  101d6a:	e8 ad 0d 00 00       	call   102b1c <vmm_page_fault>
  101d6f:	83 c4 10             	add    esp,0x10
  101d72:	eb 4e                	jmp    101dc2 <isr_handler+0x79>
  101d74:	83 ec 08             	sub    esp,0x8
  101d77:	6a 00                	push   0x0
  101d79:	6a 0c                	push   0xc
  101d7b:	e8 59 f5 ff ff       	call   1012d9 <vga_set_color>
  101d80:	83 c4 10             	add    esp,0x10
  101d83:	83 ec 0c             	sub    esp,0xc
  101d86:	8d 83 e0 e2 ff ff    	lea    eax,[ebx-0x1d20]
  101d8c:	50                   	push   eax
  101d8d:	e8 c6 fb ff ff       	call   101958 <vga_print>
  101d92:	83 c4 10             	add    esp,0x10
  101d95:	8b 45 2c             	mov    eax,DWORD PTR [ebp+0x2c]
  101d98:	83 f8 1f             	cmp    eax,0x1f
  101d9b:	77 16                	ja     101db3 <isr_handler+0x6a>
  101d9d:	8b 45 2c             	mov    eax,DWORD PTR [ebp+0x2c]
  101da0:	8b 84 83 18 00 00 00 	mov    eax,DWORD PTR [ebx+eax*4+0x18]
  101da7:	83 ec 0c             	sub    esp,0xc
  101daa:	50                   	push   eax
  101dab:	e8 a8 fb ff ff       	call   101958 <vga_print>
  101db0:	83 c4 10             	add    esp,0x10
  101db3:	83 ec 08             	sub    esp,0x8
  101db6:	6a 00                	push   0x0
  101db8:	6a 0f                	push   0xf
  101dba:	e8 1a f5 ff ff       	call   1012d9 <vga_set_color>
  101dbf:	83 c4 10             	add    esp,0x10
  101dc2:	8b 5d fc             	mov    ebx,DWORD PTR [ebp-0x4]
  101dc5:	c9                   	leave
  101dc6:	c3                   	ret

00101dc7 <idt_init>:
  101dc7:	55                   	push   ebp
  101dc8:	89 e5                	mov    ebp,esp
  101dca:	53                   	push   ebx
  101dcb:	83 ec 04             	sub    esp,0x4
  101dce:	e8 83 4a 00 00       	call   106856 <__x86.get_pc_thunk.bx>
  101dd3:	81 c3 35 72 00 00    	add    ebx,0x7235
  101dd9:	66 c7 83 98 a6 00 00 	mov    WORD PTR [ebx+0xa698],0x7ff
  101de0:	ff 07 
  101de2:	8d 83 98 9e 00 00    	lea    eax,[ebx+0x9e98]
  101de8:	89 83 9a a6 00 00    	mov    DWORD PTR [ebx+0xa69a],eax
  101dee:	c7 c0 90 22 10 00    	mov    eax,0x102290
  101df4:	68 8e 00 00 00       	push   0x8e
  101df9:	6a 08                	push   0x8
  101dfb:	50                   	push   eax
  101dfc:	6a 00                	push   0x0
  101dfe:	e8 e9 fd ff ff       	call   101bec <idt_set_gate>
  101e03:	83 c4 10             	add    esp,0x10
  101e06:	c7 c0 99 22 10 00    	mov    eax,0x102299
  101e0c:	68 8e 00 00 00       	push   0x8e
  101e11:	6a 08                	push   0x8
  101e13:	50                   	push   eax
  101e14:	6a 01                	push   0x1
  101e16:	e8 d1 fd ff ff       	call   101bec <idt_set_gate>
  101e1b:	83 c4 10             	add    esp,0x10
  101e1e:	c7 c0 a2 22 10 00    	mov    eax,0x1022a2
  101e24:	68 8e 00 00 00       	push   0x8e
  101e29:	6a 08                	push   0x8
  101e2b:	50                   	push   eax
  101e2c:	6a 02                	push   0x2
  101e2e:	e8 b9 fd ff ff       	call   101bec <idt_set_gate>
  101e33:	83 c4 10             	add    esp,0x10
  101e36:	c7 c0 ab 22 10 00    	mov    eax,0x1022ab
  101e3c:	68 8e 00 00 00       	push   0x8e
  101e41:	6a 08                	push   0x8
  101e43:	50                   	push   eax
  101e44:	6a 03                	push   0x3
  101e46:	e8 a1 fd ff ff       	call   101bec <idt_set_gate>
  101e4b:	83 c4 10             	add    esp,0x10
  101e4e:	c7 c0 b4 22 10 00    	mov    eax,0x1022b4
  101e54:	68 8e 00 00 00       	push   0x8e
  101e59:	6a 08                	push   0x8
  101e5b:	50                   	push   eax
  101e5c:	6a 04                	push   0x4
  101e5e:	e8 89 fd ff ff       	call   101bec <idt_set_gate>
  101e63:	83 c4 10             	add    esp,0x10
  101e66:	c7 c0 bd 22 10 00    	mov    eax,0x1022bd
  101e6c:	68 8e 00 00 00       	push   0x8e
  101e71:	6a 08                	push   0x8
  101e73:	50                   	push   eax
  101e74:	6a 05                	push   0x5
  101e76:	e8 71 fd ff ff       	call   101bec <idt_set_gate>
  101e7b:	83 c4 10             	add    esp,0x10
  101e7e:	c7 c0 c6 22 10 00    	mov    eax,0x1022c6
  101e84:	68 8e 00 00 00       	push   0x8e
  101e89:	6a 08                	push   0x8
  101e8b:	50                   	push   eax
  101e8c:	6a 06                	push   0x6
  101e8e:	e8 59 fd ff ff       	call   101bec <idt_set_gate>
  101e93:	83 c4 10             	add    esp,0x10
  101e96:	c7 c0 cf 22 10 00    	mov    eax,0x1022cf
  101e9c:	68 8e 00 00 00       	push   0x8e
  101ea1:	6a 08                	push   0x8
  101ea3:	50                   	push   eax
  101ea4:	6a 07                	push   0x7
  101ea6:	e8 41 fd ff ff       	call   101bec <idt_set_gate>
  101eab:	83 c4 10             	add    esp,0x10
  101eae:	c7 c0 d8 22 10 00    	mov    eax,0x1022d8
  101eb4:	68 8e 00 00 00       	push   0x8e
  101eb9:	6a 08                	push   0x8
  101ebb:	50                   	push   eax
  101ebc:	6a 08                	push   0x8
  101ebe:	e8 29 fd ff ff       	call   101bec <idt_set_gate>
  101ec3:	83 c4 10             	add    esp,0x10
  101ec6:	c7 c0 dc 22 10 00    	mov    eax,0x1022dc
  101ecc:	68 8e 00 00 00       	push   0x8e
  101ed1:	6a 08                	push   0x8
  101ed3:	50                   	push   eax
  101ed4:	6a 09                	push   0x9
  101ed6:	e8 11 fd ff ff       	call   101bec <idt_set_gate>
  101edb:	83 c4 10             	add    esp,0x10
  101ede:	c7 c0 e2 22 10 00    	mov    eax,0x1022e2
  101ee4:	68 8e 00 00 00       	push   0x8e
  101ee9:	6a 08                	push   0x8
  101eeb:	50                   	push   eax
  101eec:	6a 0a                	push   0xa
  101eee:	e8 f9 fc ff ff       	call   101bec <idt_set_gate>
  101ef3:	83 c4 10             	add    esp,0x10
  101ef6:	c7 c0 e6 22 10 00    	mov    eax,0x1022e6
  101efc:	68 8e 00 00 00       	push   0x8e
  101f01:	6a 08                	push   0x8
  101f03:	50                   	push   eax
  101f04:	6a 0b                	push   0xb
  101f06:	e8 e1 fc ff ff       	call   101bec <idt_set_gate>
  101f0b:	83 c4 10             	add    esp,0x10
  101f0e:	c7 c0 ea 22 10 00    	mov    eax,0x1022ea
  101f14:	68 8e 00 00 00       	push   0x8e
  101f19:	6a 08                	push   0x8
  101f1b:	50                   	push   eax
  101f1c:	6a 0c                	push   0xc
  101f1e:	e8 c9 fc ff ff       	call   101bec <idt_set_gate>
  101f23:	83 c4 10             	add    esp,0x10
  101f26:	c7 c0 ee 22 10 00    	mov    eax,0x1022ee
  101f2c:	68 8e 00 00 00       	push   0x8e
  101f31:	6a 08                	push   0x8
  101f33:	50                   	push   eax
  101f34:	6a 0d                	push   0xd
  101f36:	e8 b1 fc ff ff       	call   101bec <idt_set_gate>
  101f3b:	83 c4 10             	add    esp,0x10
  101f3e:	c7 c0 f2 22 10 00    	mov    eax,0x1022f2
  101f44:	68 8e 00 00 00       	push   0x8e
  101f49:	6a 08                	push   0x8
  101f4b:	50                   	push   eax
  101f4c:	6a 0e                	push   0xe
  101f4e:	e8 99 fc ff ff       	call   101bec <idt_set_gate>
  101f53:	83 c4 10             	add    esp,0x10
  101f56:	c7 c0 f6 22 10 00    	mov    eax,0x1022f6
  101f5c:	68 8e 00 00 00       	push   0x8e
  101f61:	6a 08                	push   0x8
  101f63:	50                   	push   eax
  101f64:	6a 0f                	push   0xf
  101f66:	e8 81 fc ff ff       	call   101bec <idt_set_gate>
  101f6b:	83 c4 10             	add    esp,0x10
  101f6e:	c7 c0 fc 22 10 00    	mov    eax,0x1022fc
  101f74:	68 8e 00 00 00       	push   0x8e
  101f79:	6a 08                	push   0x8
  101f7b:	50                   	push   eax
  101f7c:	6a 10                	push   0x10
  101f7e:	e8 69 fc ff ff       	call   101bec <idt_set_gate>
  101f83:	83 c4 10             	add    esp,0x10
  101f86:	c7 c0 02 23 10 00    	mov    eax,0x102302
  101f8c:	68 8e 00 00 00       	push   0x8e
  101f91:	6a 08                	push   0x8
  101f93:	50                   	push   eax
  101f94:	6a 11                	push   0x11
  101f96:	e8 51 fc ff ff       	call   101bec <idt_set_gate>
  101f9b:	83 c4 10             	add    esp,0x10
  101f9e:	c7 c0 06 23 10 00    	mov    eax,0x102306
  101fa4:	68 8e 00 00 00       	push   0x8e
  101fa9:	6a 08                	push   0x8
  101fab:	50                   	push   eax
  101fac:	6a 12                	push   0x12
  101fae:	e8 39 fc ff ff       	call   101bec <idt_set_gate>
  101fb3:	83 c4 10             	add    esp,0x10
  101fb6:	c7 c0 0c 23 10 00    	mov    eax,0x10230c
  101fbc:	68 8e 00 00 00       	push   0x8e
  101fc1:	6a 08                	push   0x8
  101fc3:	50                   	push   eax
  101fc4:	6a 13                	push   0x13
  101fc6:	e8 21 fc ff ff       	call   101bec <idt_set_gate>
  101fcb:	83 c4 10             	add    esp,0x10
  101fce:	c7 c0 12 23 10 00    	mov    eax,0x102312
  101fd4:	68 8e 00 00 00       	push   0x8e
  101fd9:	6a 08                	push   0x8
  101fdb:	50                   	push   eax
  101fdc:	6a 14                	push   0x14
  101fde:	e8 09 fc ff ff       	call   101bec <idt_set_gate>
  101fe3:	83 c4 10             	add    esp,0x10
  101fe6:	c7 c0 18 23 10 00    	mov    eax,0x102318
  101fec:	68 8e 00 00 00       	push   0x8e
  101ff1:	6a 08                	push   0x8
  101ff3:	50                   	push   eax
  101ff4:	6a 15                	push   0x15
  101ff6:	e8 f1 fb ff ff       	call   101bec <idt_set_gate>
  101ffb:	83 c4 10             	add    esp,0x10
  101ffe:	c7 c0 1e 23 10 00    	mov    eax,0x10231e
  102004:	68 8e 00 00 00       	push   0x8e
  102009:	6a 08                	push   0x8
  10200b:	50                   	push   eax
  10200c:	6a 16                	push   0x16
  10200e:	e8 d9 fb ff ff       	call   101bec <idt_set_gate>
  102013:	83 c4 10             	add    esp,0x10
  102016:	c7 c0 24 23 10 00    	mov    eax,0x102324
  10201c:	68 8e 00 00 00       	push   0x8e
  102021:	6a 08                	push   0x8
  102023:	50                   	push   eax
  102024:	6a 17                	push   0x17
  102026:	e8 c1 fb ff ff       	call   101bec <idt_set_gate>
  10202b:	83 c4 10             	add    esp,0x10
  10202e:	c7 c0 2a 23 10 00    	mov    eax,0x10232a
  102034:	68 8e 00 00 00       	push   0x8e
  102039:	6a 08                	push   0x8
  10203b:	50                   	push   eax
  10203c:	6a 18                	push   0x18
  10203e:	e8 a9 fb ff ff       	call   101bec <idt_set_gate>
  102043:	83 c4 10             	add    esp,0x10
  102046:	c7 c0 30 23 10 00    	mov    eax,0x102330
  10204c:	68 8e 00 00 00       	push   0x8e
  102051:	6a 08                	push   0x8
  102053:	50                   	push   eax
  102054:	6a 19                	push   0x19
  102056:	e8 91 fb ff ff       	call   101bec <idt_set_gate>
  10205b:	83 c4 10             	add    esp,0x10
  10205e:	c7 c0 36 23 10 00    	mov    eax,0x102336
  102064:	68 8e 00 00 00       	push   0x8e
  102069:	6a 08                	push   0x8
  10206b:	50                   	push   eax
  10206c:	6a 1a                	push   0x1a
  10206e:	e8 79 fb ff ff       	call   101bec <idt_set_gate>
  102073:	83 c4 10             	add    esp,0x10
  102076:	c7 c0 3c 23 10 00    	mov    eax,0x10233c
  10207c:	68 8e 00 00 00       	push   0x8e
  102081:	6a 08                	push   0x8
  102083:	50                   	push   eax
  102084:	6a 1b                	push   0x1b
  102086:	e8 61 fb ff ff       	call   101bec <idt_set_gate>
  10208b:	83 c4 10             	add    esp,0x10
  10208e:	c7 c0 42 23 10 00    	mov    eax,0x102342
  102094:	68 8e 00 00 00       	push   0x8e
  102099:	6a 08                	push   0x8
  10209b:	50                   	push   eax
  10209c:	6a 1c                	push   0x1c
  10209e:	e8 49 fb ff ff       	call   101bec <idt_set_gate>
  1020a3:	83 c4 10             	add    esp,0x10
  1020a6:	c7 c0 48 23 10 00    	mov    eax,0x102348
  1020ac:	68 8e 00 00 00       	push   0x8e
  1020b1:	6a 08                	push   0x8
  1020b3:	50                   	push   eax
  1020b4:	6a 1d                	push   0x1d
  1020b6:	e8 31 fb ff ff       	call   101bec <idt_set_gate>
  1020bb:	83 c4 10             	add    esp,0x10
  1020be:	c7 c0 4e 23 10 00    	mov    eax,0x10234e
  1020c4:	68 8e 00 00 00       	push   0x8e
  1020c9:	6a 08                	push   0x8
  1020cb:	50                   	push   eax
  1020cc:	6a 1e                	push   0x1e
  1020ce:	e8 19 fb ff ff       	call   101bec <idt_set_gate>
  1020d3:	83 c4 10             	add    esp,0x10
  1020d6:	c7 c0 54 23 10 00    	mov    eax,0x102354
  1020dc:	68 8e 00 00 00       	push   0x8e
  1020e1:	6a 08                	push   0x8
  1020e3:	50                   	push   eax
  1020e4:	6a 1f                	push   0x1f
  1020e6:	e8 01 fb ff ff       	call   101bec <idt_set_gate>
  1020eb:	83 c4 10             	add    esp,0x10
  1020ee:	c7 c0 10 34 10 00    	mov    eax,0x103410
  1020f4:	68 8e 00 00 00       	push   0x8e
  1020f9:	6a 08                	push   0x8
  1020fb:	50                   	push   eax
  1020fc:	6a 20                	push   0x20
  1020fe:	e8 e9 fa ff ff       	call   101bec <idt_set_gate>
  102103:	83 c4 10             	add    esp,0x10
  102106:	c7 c0 14 34 10 00    	mov    eax,0x103414
  10210c:	68 8e 00 00 00       	push   0x8e
  102111:	6a 08                	push   0x8
  102113:	50                   	push   eax
  102114:	6a 21                	push   0x21
  102116:	e8 d1 fa ff ff       	call   101bec <idt_set_gate>
  10211b:	83 c4 10             	add    esp,0x10
  10211e:	c7 c0 18 34 10 00    	mov    eax,0x103418
  102124:	68 8e 00 00 00       	push   0x8e
  102129:	6a 08                	push   0x8
  10212b:	50                   	push   eax
  10212c:	6a 22                	push   0x22
  10212e:	e8 b9 fa ff ff       	call   101bec <idt_set_gate>
  102133:	83 c4 10             	add    esp,0x10
  102136:	c7 c0 1c 34 10 00    	mov    eax,0x10341c
  10213c:	68 8e 00 00 00       	push   0x8e
  102141:	6a 08                	push   0x8
  102143:	50                   	push   eax
  102144:	6a 23                	push   0x23
  102146:	e8 a1 fa ff ff       	call   101bec <idt_set_gate>
  10214b:	83 c4 10             	add    esp,0x10
  10214e:	c7 c0 20 34 10 00    	mov    eax,0x103420
  102154:	68 8e 00 00 00       	push   0x8e
  102159:	6a 08                	push   0x8
  10215b:	50                   	push   eax
  10215c:	6a 24                	push   0x24
  10215e:	e8 89 fa ff ff       	call   101bec <idt_set_gate>
  102163:	83 c4 10             	add    esp,0x10
  102166:	c7 c0 24 34 10 00    	mov    eax,0x103424
  10216c:	68 8e 00 00 00       	push   0x8e
  102171:	6a 08                	push   0x8
  102173:	50                   	push   eax
  102174:	6a 25                	push   0x25
  102176:	e8 71 fa ff ff       	call   101bec <idt_set_gate>
  10217b:	83 c4 10             	add    esp,0x10
  10217e:	c7 c0 28 34 10 00    	mov    eax,0x103428
  102184:	68 8e 00 00 00       	push   0x8e
  102189:	6a 08                	push   0x8
  10218b:	50                   	push   eax
  10218c:	6a 26                	push   0x26
  10218e:	e8 59 fa ff ff       	call   101bec <idt_set_gate>
  102193:	83 c4 10             	add    esp,0x10
  102196:	c7 c0 2c 34 10 00    	mov    eax,0x10342c
  10219c:	68 8e 00 00 00       	push   0x8e
  1021a1:	6a 08                	push   0x8
  1021a3:	50                   	push   eax
  1021a4:	6a 27                	push   0x27
  1021a6:	e8 41 fa ff ff       	call   101bec <idt_set_gate>
  1021ab:	83 c4 10             	add    esp,0x10
  1021ae:	c7 c0 30 34 10 00    	mov    eax,0x103430
  1021b4:	68 8e 00 00 00       	push   0x8e
  1021b9:	6a 08                	push   0x8
  1021bb:	50                   	push   eax
  1021bc:	6a 28                	push   0x28
  1021be:	e8 29 fa ff ff       	call   101bec <idt_set_gate>
  1021c3:	83 c4 10             	add    esp,0x10
  1021c6:	c7 c0 34 34 10 00    	mov    eax,0x103434
  1021cc:	68 8e 00 00 00       	push   0x8e
  1021d1:	6a 08                	push   0x8
  1021d3:	50                   	push   eax
  1021d4:	6a 29                	push   0x29
  1021d6:	e8 11 fa ff ff       	call   101bec <idt_set_gate>
  1021db:	83 c4 10             	add    esp,0x10
  1021de:	c7 c0 38 34 10 00    	mov    eax,0x103438
  1021e4:	68 8e 00 00 00       	push   0x8e
  1021e9:	6a 08                	push   0x8
  1021eb:	50                   	push   eax
  1021ec:	6a 2a                	push   0x2a
  1021ee:	e8 f9 f9 ff ff       	call   101bec <idt_set_gate>
  1021f3:	83 c4 10             	add    esp,0x10
  1021f6:	c7 c0 3c 34 10 00    	mov    eax,0x10343c
  1021fc:	68 8e 00 00 00       	push   0x8e
  102201:	6a 08                	push   0x8
  102203:	50                   	push   eax
  102204:	6a 2b                	push   0x2b
  102206:	e8 e1 f9 ff ff       	call   101bec <idt_set_gate>
  10220b:	83 c4 10             	add    esp,0x10
  10220e:	c7 c0 40 34 10 00    	mov    eax,0x103440
  102214:	68 8e 00 00 00       	push   0x8e
  102219:	6a 08                	push   0x8
  10221b:	50                   	push   eax
  10221c:	6a 2c                	push   0x2c
  10221e:	e8 c9 f9 ff ff       	call   101bec <idt_set_gate>
  102223:	83 c4 10             	add    esp,0x10
  102226:	c7 c0 44 34 10 00    	mov    eax,0x103444
  10222c:	68 8e 00 00 00       	push   0x8e
  102231:	6a 08                	push   0x8
  102233:	50                   	push   eax
  102234:	6a 2d                	push   0x2d
  102236:	e8 b1 f9 ff ff       	call   101bec <idt_set_gate>
  10223b:	83 c4 10             	add    esp,0x10
  10223e:	c7 c0 48 34 10 00    	mov    eax,0x103448
  102244:	68 8e 00 00 00       	push   0x8e
  102249:	6a 08                	push   0x8
  10224b:	50                   	push   eax
  10224c:	6a 2e                	push   0x2e
  10224e:	e8 99 f9 ff ff       	call   101bec <idt_set_gate>
  102253:	83 c4 10             	add    esp,0x10
  102256:	c7 c0 4c 34 10 00    	mov    eax,0x10344c
  10225c:	68 8e 00 00 00       	push   0x8e
  102261:	6a 08                	push   0x8
  102263:	50                   	push   eax
  102264:	6a 2f                	push   0x2f
  102266:	e8 81 f9 ff ff       	call   101bec <idt_set_gate>
  10226b:	83 c4 10             	add    esp,0x10
  10226e:	e8 f1 f9 ff ff       	call   101c64 <pic_remap>
  102273:	8d 83 98 a6 00 00    	lea    eax,[ebx+0xa698]
  102279:	83 ec 0c             	sub    esp,0xc
  10227c:	50                   	push   eax
  10227d:	e8 fc 00 00 00       	call   10237e <idt_flush>
  102282:	83 c4 10             	add    esp,0x10
  102285:	90                   	nop
  102286:	8b 5d fc             	mov    ebx,DWORD PTR [ebp-0x4]
  102289:	c9                   	leave
  10228a:	c3                   	ret
  10228b:	66 90                	xchg   ax,ax
  10228d:	66 90                	xchg   ax,ax
  10228f:	90                   	nop

00102290 <isr0>:
  102290:	6a 00                	push   0x0
  102292:	6a 00                	push   0x0
  102294:	e9 c1 00 00 00       	jmp    10235a <isr_common_stub>

00102299 <isr1>:
  102299:	6a 00                	push   0x0
  10229b:	6a 01                	push   0x1
  10229d:	e9 b8 00 00 00       	jmp    10235a <isr_common_stub>

001022a2 <isr2>:
  1022a2:	6a 00                	push   0x0
  1022a4:	6a 02                	push   0x2
  1022a6:	e9 af 00 00 00       	jmp    10235a <isr_common_stub>

001022ab <isr3>:
  1022ab:	6a 00                	push   0x0
  1022ad:	6a 03                	push   0x3
  1022af:	e9 a6 00 00 00       	jmp    10235a <isr_common_stub>

001022b4 <isr4>:
  1022b4:	6a 00                	push   0x0
  1022b6:	6a 04                	push   0x4
  1022b8:	e9 9d 00 00 00       	jmp    10235a <isr_common_stub>

001022bd <isr5>:
  1022bd:	6a 00                	push   0x0
  1022bf:	6a 05                	push   0x5
  1022c1:	e9 94 00 00 00       	jmp    10235a <isr_common_stub>

001022c6 <isr6>:
  1022c6:	6a 00                	push   0x0
  1022c8:	6a 06                	push   0x6
  1022ca:	e9 8b 00 00 00       	jmp    10235a <isr_common_stub>

001022cf <isr7>:
  1022cf:	6a 00                	push   0x0
  1022d1:	6a 07                	push   0x7
  1022d3:	e9 82 00 00 00       	jmp    10235a <isr_common_stub>

001022d8 <isr8>:
  1022d8:	6a 08                	push   0x8
  1022da:	eb 7e                	jmp    10235a <isr_common_stub>

001022dc <isr9>:
  1022dc:	6a 00                	push   0x0
  1022de:	6a 09                	push   0x9
  1022e0:	eb 78                	jmp    10235a <isr_common_stub>

001022e2 <isr10>:
  1022e2:	6a 0a                	push   0xa
  1022e4:	eb 74                	jmp    10235a <isr_common_stub>

001022e6 <isr11>:
  1022e6:	6a 0b                	push   0xb
  1022e8:	eb 70                	jmp    10235a <isr_common_stub>

001022ea <isr12>:
  1022ea:	6a 0c                	push   0xc
  1022ec:	eb 6c                	jmp    10235a <isr_common_stub>

001022ee <isr13>:
  1022ee:	6a 0d                	push   0xd
  1022f0:	eb 68                	jmp    10235a <isr_common_stub>

001022f2 <isr14>:
  1022f2:	6a 0e                	push   0xe
  1022f4:	eb 64                	jmp    10235a <isr_common_stub>

001022f6 <isr15>:
  1022f6:	6a 00                	push   0x0
  1022f8:	6a 0f                	push   0xf
  1022fa:	eb 5e                	jmp    10235a <isr_common_stub>

001022fc <isr16>:
  1022fc:	6a 00                	push   0x0
  1022fe:	6a 10                	push   0x10
  102300:	eb 58                	jmp    10235a <isr_common_stub>

00102302 <isr17>:
  102302:	6a 11                	push   0x11
  102304:	eb 54                	jmp    10235a <isr_common_stub>

00102306 <isr18>:
  102306:	6a 00                	push   0x0
  102308:	6a 12                	push   0x12
  10230a:	eb 4e                	jmp    10235a <isr_common_stub>

0010230c <isr19>:
  10230c:	6a 00                	push   0x0
  10230e:	6a 13                	push   0x13
  102310:	eb 48                	jmp    10235a <isr_common_stub>

00102312 <isr20>:
  102312:	6a 00                	push   0x0
  102314:	6a 14                	push   0x14
  102316:	eb 42                	jmp    10235a <isr_common_stub>

00102318 <isr21>:
  102318:	6a 00                	push   0x0
  10231a:	6a 15                	push   0x15
  10231c:	eb 3c                	jmp    10235a <isr_common_stub>

0010231e <isr22>:
  10231e:	6a 00                	push   0x0
  102320:	6a 16                	push   0x16
  102322:	eb 36                	jmp    10235a <isr_common_stub>

00102324 <isr23>:
  102324:	6a 00                	push   0x0
  102326:	6a 17                	push   0x17
  102328:	eb 30                	jmp    10235a <isr_common_stub>

0010232a <isr24>:
  10232a:	6a 00                	push   0x0
  10232c:	6a 18                	push   0x18
  10232e:	eb 2a                	jmp    10235a <isr_common_stub>

00102330 <isr25>:
  102330:	6a 00                	push   0x0
  102332:	6a 19                	push   0x19
  102334:	eb 24                	jmp    10235a <isr_common_stub>

00102336 <isr26>:
  102336:	6a 00                	push   0x0
  102338:	6a 1a                	push   0x1a
  10233a:	eb 1e                	jmp    10235a <isr_common_stub>

0010233c <isr27>:
  10233c:	6a 00                	push   0x0
  10233e:	6a 1b                	push   0x1b
  102340:	eb 18                	jmp    10235a <isr_common_stub>

00102342 <isr28>:
  102342:	6a 00                	push   0x0
  102344:	6a 1c                	push   0x1c
  102346:	eb 12                	jmp    10235a <isr_common_stub>

00102348 <isr29>:
  102348:	6a 00                	push   0x0
  10234a:	6a 1d                	push   0x1d
  10234c:	eb 0c                	jmp    10235a <isr_common_stub>

0010234e <isr30>:
  10234e:	6a 00                	push   0x0
  102350:	6a 1e                	push   0x1e
  102352:	eb 06                	jmp    10235a <isr_common_stub>

00102354 <isr31>:
  102354:	6a 00                	push   0x0
  102356:	6a 1f                	push   0x1f
  102358:	eb 00                	jmp    10235a <isr_common_stub>

0010235a <isr_common_stub>:
  10235a:	60                   	pusha
  10235b:	66 8c d8             	mov    ax,ds
  10235e:	50                   	push   eax
  10235f:	66 b8 10 00          	mov    ax,0x10
  102363:	8e d8                	mov    ds,eax
  102365:	8e c0                	mov    es,eax
  102367:	8e e0                	mov    fs,eax
  102369:	8e e8                	mov    gs,eax
  10236b:	e8 d9 f9 ff ff       	call   101d49 <isr_handler>
  102370:	58                   	pop    eax
  102371:	8e d8                	mov    ds,eax
  102373:	8e c0                	mov    es,eax
  102375:	8e e0                	mov    fs,eax
  102377:	8e e8                	mov    gs,eax
  102379:	61                   	popa
  10237a:	83 c4 08             	add    esp,0x8
  10237d:	cf                   	iret

0010237e <idt_flush>:
  10237e:	8b 44 24 04          	mov    eax,DWORD PTR [esp+0x4]
  102382:	0f 01 18             	lidtd  [eax]
  102385:	c3                   	ret

00102386 <pmm_set_frame>:
  102386:	55                   	push   ebp
  102387:	89 e5                	mov    ebp,esp
  102389:	56                   	push   esi
  10238a:	53                   	push   ebx
  10238b:	83 ec 10             	sub    esp,0x10
  10238e:	e8 c7 44 00 00       	call   10685a <__x86.get_pc_thunk.ax>
  102393:	05 75 6c 00 00       	add    eax,0x6c75
  102398:	8b 55 08             	mov    edx,DWORD PTR [ebp+0x8]
  10239b:	c1 ea 0c             	shr    edx,0xc
  10239e:	89 55 f4             	mov    DWORD PTR [ebp-0xc],edx
  1023a1:	8b 55 f4             	mov    edx,DWORD PTR [ebp-0xc]
  1023a4:	c1 ea 03             	shr    edx,0x3
  1023a7:	89 55 f0             	mov    DWORD PTR [ebp-0x10],edx
  1023aa:	8b 55 f4             	mov    edx,DWORD PTR [ebp-0xc]
  1023ad:	83 e2 07             	and    edx,0x7
  1023b0:	88 55 ef             	mov    BYTE PTR [ebp-0x11],dl
  1023b3:	8d 88 b8 a6 00 00    	lea    ecx,[eax+0xa6b8]
  1023b9:	8b 55 f0             	mov    edx,DWORD PTR [ebp-0x10]
  1023bc:	01 ca                	add    edx,ecx
  1023be:	0f b6 12             	movzx  edx,BYTE PTR [edx]
  1023c1:	89 d6                	mov    esi,edx
  1023c3:	0f b6 55 ef          	movzx  edx,BYTE PTR [ebp-0x11]
  1023c7:	bb 01 00 00 00       	mov    ebx,0x1
  1023cc:	89 d1                	mov    ecx,edx
  1023ce:	d3 e3                	shl    ebx,cl
  1023d0:	89 da                	mov    edx,ebx
  1023d2:	09 f2                	or     edx,esi
  1023d4:	89 d1                	mov    ecx,edx
  1023d6:	8d 90 b8 a6 00 00    	lea    edx,[eax+0xa6b8]
  1023dc:	8b 45 f0             	mov    eax,DWORD PTR [ebp-0x10]
  1023df:	01 d0                	add    eax,edx
  1023e1:	88 08                	mov    BYTE PTR [eax],cl
  1023e3:	90                   	nop
  1023e4:	83 c4 10             	add    esp,0x10
  1023e7:	5b                   	pop    ebx
  1023e8:	5e                   	pop    esi
  1023e9:	5d                   	pop    ebp
  1023ea:	c3                   	ret

001023eb <pmm_clear_frame>:
  1023eb:	55                   	push   ebp
  1023ec:	89 e5                	mov    ebp,esp
  1023ee:	56                   	push   esi
  1023ef:	53                   	push   ebx
  1023f0:	83 ec 10             	sub    esp,0x10
  1023f3:	e8 62 44 00 00       	call   10685a <__x86.get_pc_thunk.ax>
  1023f8:	05 10 6c 00 00       	add    eax,0x6c10
  1023fd:	8b 55 08             	mov    edx,DWORD PTR [ebp+0x8]
  102400:	c1 ea 0c             	shr    edx,0xc
  102403:	89 55 f4             	mov    DWORD PTR [ebp-0xc],edx
  102406:	8b 55 f4             	mov    edx,DWORD PTR [ebp-0xc]
  102409:	c1 ea 03             	shr    edx,0x3
  10240c:	89 55 f0             	mov    DWORD PTR [ebp-0x10],edx
  10240f:	8b 55 f4             	mov    edx,DWORD PTR [ebp-0xc]
  102412:	83 e2 07             	and    edx,0x7
  102415:	88 55 ef             	mov    BYTE PTR [ebp-0x11],dl
  102418:	8d 88 b8 a6 00 00    	lea    ecx,[eax+0xa6b8]
  10241e:	8b 55 f0             	mov    edx,DWORD PTR [ebp-0x10]
  102421:	01 ca                	add    edx,ecx
  102423:	0f b6 12             	movzx  edx,BYTE PTR [edx]
  102426:	89 d6                	mov    esi,edx
  102428:	0f b6 55 ef          	movzx  edx,BYTE PTR [ebp-0x11]
  10242c:	bb 01 00 00 00       	mov    ebx,0x1
  102431:	89 d1                	mov    ecx,edx
  102433:	d3 e3                	shl    ebx,cl
  102435:	89 da                	mov    edx,ebx
  102437:	f7 d2                	not    edx
  102439:	21 f2                	and    edx,esi
  10243b:	89 d1                	mov    ecx,edx
  10243d:	8d 90 b8 a6 00 00    	lea    edx,[eax+0xa6b8]
  102443:	8b 45 f0             	mov    eax,DWORD PTR [ebp-0x10]
  102446:	01 d0                	add    eax,edx
  102448:	88 08                	mov    BYTE PTR [eax],cl
  10244a:	90                   	nop
  10244b:	83 c4 10             	add    esp,0x10
  10244e:	5b                   	pop    ebx
  10244f:	5e                   	pop    esi
  102450:	5d                   	pop    ebp
  102451:	c3                   	ret

00102452 <pmm_test_frame>:
  102452:	55                   	push   ebp
  102453:	89 e5                	mov    ebp,esp
  102455:	53                   	push   ebx
  102456:	83 ec 10             	sub    esp,0x10
  102459:	e8 fc 43 00 00       	call   10685a <__x86.get_pc_thunk.ax>
  10245e:	05 aa 6b 00 00       	add    eax,0x6baa
  102463:	8b 55 08             	mov    edx,DWORD PTR [ebp+0x8]
  102466:	c1 ea 0c             	shr    edx,0xc
  102469:	89 55 f8             	mov    DWORD PTR [ebp-0x8],edx
  10246c:	8b 55 f8             	mov    edx,DWORD PTR [ebp-0x8]
  10246f:	c1 ea 03             	shr    edx,0x3
  102472:	89 55 f4             	mov    DWORD PTR [ebp-0xc],edx
  102475:	8b 55 f8             	mov    edx,DWORD PTR [ebp-0x8]
  102478:	83 e2 07             	and    edx,0x7
  10247b:	88 55 f3             	mov    BYTE PTR [ebp-0xd],dl
  10247e:	8d 90 b8 a6 00 00    	lea    edx,[eax+0xa6b8]
  102484:	8b 45 f4             	mov    eax,DWORD PTR [ebp-0xc]
  102487:	01 d0                	add    eax,edx
  102489:	0f b6 00             	movzx  eax,BYTE PTR [eax]
  10248c:	0f b6 d0             	movzx  edx,al
  10248f:	0f b6 45 f3          	movzx  eax,BYTE PTR [ebp-0xd]
  102493:	bb 01 00 00 00       	mov    ebx,0x1
  102498:	89 c1                	mov    ecx,eax
  10249a:	d3 e3                	shl    ebx,cl
  10249c:	89 d8                	mov    eax,ebx
  10249e:	21 d0                	and    eax,edx
  1024a0:	8b 5d fc             	mov    ebx,DWORD PTR [ebp-0x4]
  1024a3:	c9                   	leave
  1024a4:	c3                   	ret

001024a5 <print_uint32>:
  1024a5:	55                   	push   ebp
  1024a6:	89 e5                	mov    ebp,esp
  1024a8:	53                   	push   ebx
  1024a9:	83 ec 14             	sub    esp,0x14
  1024ac:	e8 b1 43 00 00       	call   106862 <__x86.get_pc_thunk.cx>
  1024b1:	81 c1 57 6b 00 00    	add    ecx,0x6b57
  1024b7:	83 7d 08 00          	cmp    DWORD PTR [ebp+0x8],0x0
  1024bb:	75 16                	jne    1024d3 <print_uint32+0x2e>
  1024bd:	83 ec 0c             	sub    esp,0xc
  1024c0:	8d 81 f0 e2 ff ff    	lea    eax,[ecx-0x1d10]
  1024c6:	50                   	push   eax
  1024c7:	89 cb                	mov    ebx,ecx
  1024c9:	e8 8a f4 ff ff       	call   101958 <vga_print>
  1024ce:	83 c4 10             	add    esp,0x10
  1024d1:	eb 74                	jmp    102547 <print_uint32+0xa2>
  1024d3:	c7 45 f4 0a 00 00 00 	mov    DWORD PTR [ebp-0xc],0xa
  1024da:	c6 45 f3 00          	mov    BYTE PTR [ebp-0xd],0x0
  1024de:	eb 42                	jmp    102522 <print_uint32+0x7d>
  1024e0:	8b 5d 08             	mov    ebx,DWORD PTR [ebp+0x8]
  1024e3:	ba cd cc cc cc       	mov    edx,0xcccccccd
  1024e8:	89 d8                	mov    eax,ebx
  1024ea:	f7 e2                	mul    edx
  1024ec:	c1 ea 03             	shr    edx,0x3
  1024ef:	89 d0                	mov    eax,edx
  1024f1:	c1 e0 02             	shl    eax,0x2
  1024f4:	01 d0                	add    eax,edx
  1024f6:	01 c0                	add    eax,eax
  1024f8:	29 c3                	sub    ebx,eax
  1024fa:	89 da                	mov    edx,ebx
  1024fc:	89 d0                	mov    eax,edx
  1024fe:	8d 58 30             	lea    ebx,[eax+0x30]
  102501:	8b 45 f4             	mov    eax,DWORD PTR [ebp-0xc]
  102504:	8d 50 ff             	lea    edx,[eax-0x1]
  102507:	89 55 f4             	mov    DWORD PTR [ebp-0xc],edx
  10250a:	89 da                	mov    edx,ebx
  10250c:	88 54 05 e8          	mov    BYTE PTR [ebp+eax*1-0x18],dl
  102510:	8b 45 08             	mov    eax,DWORD PTR [ebp+0x8]
  102513:	ba cd cc cc cc       	mov    edx,0xcccccccd
  102518:	f7 e2                	mul    edx
  10251a:	89 d0                	mov    eax,edx
  10251c:	c1 e8 03             	shr    eax,0x3
  10251f:	89 45 08             	mov    DWORD PTR [ebp+0x8],eax
  102522:	83 7d 08 00          	cmp    DWORD PTR [ebp+0x8],0x0
  102526:	74 06                	je     10252e <print_uint32+0x89>
  102528:	83 7d f4 00          	cmp    DWORD PTR [ebp-0xc],0x0
  10252c:	79 b2                	jns    1024e0 <print_uint32+0x3b>
  10252e:	8b 45 f4             	mov    eax,DWORD PTR [ebp-0xc]
  102531:	8d 50 01             	lea    edx,[eax+0x1]
  102534:	8d 45 e8             	lea    eax,[ebp-0x18]
  102537:	01 d0                	add    eax,edx
  102539:	83 ec 0c             	sub    esp,0xc
  10253c:	50                   	push   eax
  10253d:	89 cb                	mov    ebx,ecx
  10253f:	e8 14 f4 ff ff       	call   101958 <vga_print>
  102544:	83 c4 10             	add    esp,0x10
  102547:	8b 5d fc             	mov    ebx,DWORD PTR [ebp-0x4]
  10254a:	c9                   	leave
  10254b:	c3                   	ret

0010254c <pmm_init>:
  10254c:	55                   	push   ebp
  10254d:	89 e5                	mov    ebp,esp
  10254f:	57                   	push   edi
  102550:	56                   	push   esi
  102551:	53                   	push   ebx
  102552:	83 ec 5c             	sub    esp,0x5c
  102555:	e8 fc 42 00 00       	call   106856 <__x86.get_pc_thunk.bx>
  10255a:	81 c3 ae 6a 00 00    	add    ebx,0x6aae
  102560:	c7 45 e4 00 00 00 00 	mov    DWORD PTR [ebp-0x1c],0x0
  102567:	eb 12                	jmp    10257b <pmm_init+0x2f>
  102569:	8d 93 b8 a6 00 00    	lea    edx,[ebx+0xa6b8]
  10256f:	8b 45 e4             	mov    eax,DWORD PTR [ebp-0x1c]
  102572:	01 d0                	add    eax,edx
  102574:	c6 00 ff             	mov    BYTE PTR [eax],0xff
  102577:	83 45 e4 01          	add    DWORD PTR [ebp-0x1c],0x1
  10257b:	81 7d e4 ff 7f 00 00 	cmp    DWORD PTR [ebp-0x1c],0x7fff
  102582:	76 e5                	jbe    102569 <pmm_init+0x1d>
  102584:	8b 45 08             	mov    eax,DWORD PTR [ebp+0x8]
  102587:	89 45 c4             	mov    DWORD PTR [ebp-0x3c],eax
  10258a:	8b 45 08             	mov    eax,DWORD PTR [ebp+0x8]
  10258d:	83 c0 08             	add    eax,0x8
  102590:	89 45 e0             	mov    DWORD PTR [ebp-0x20],eax
  102593:	c7 45 dc 00 00 00 00 	mov    DWORD PTR [ebp-0x24],0x0
  10259a:	eb 2e                	jmp    1025ca <pmm_init+0x7e>
  10259c:	8b 45 e0             	mov    eax,DWORD PTR [ebp-0x20]
  10259f:	8b 00                	mov    eax,DWORD PTR [eax]
  1025a1:	83 f8 06             	cmp    eax,0x6
  1025a4:	75 08                	jne    1025ae <pmm_init+0x62>
  1025a6:	8b 45 e0             	mov    eax,DWORD PTR [ebp-0x20]
  1025a9:	89 45 dc             	mov    DWORD PTR [ebp-0x24],eax
  1025ac:	eb 25                	jmp    1025d3 <pmm_init+0x87>
  1025ae:	8b 45 e0             	mov    eax,DWORD PTR [ebp-0x20]
  1025b1:	8b 40 04             	mov    eax,DWORD PTR [eax+0x4]
  1025b4:	83 c0 07             	add    eax,0x7
  1025b7:	83 e0 f8             	and    eax,0xfffffff8
  1025ba:	89 c2                	mov    edx,eax
  1025bc:	8b 45 e0             	mov    eax,DWORD PTR [ebp-0x20]
  1025bf:	01 d0                	add    eax,edx
  1025c1:	89 45 c0             	mov    DWORD PTR [ebp-0x40],eax
  1025c4:	8b 45 c0             	mov    eax,DWORD PTR [ebp-0x40]
  1025c7:	89 45 e0             	mov    DWORD PTR [ebp-0x20],eax
  1025ca:	8b 45 e0             	mov    eax,DWORD PTR [ebp-0x20]
  1025cd:	8b 00                	mov    eax,DWORD PTR [eax]
  1025cf:	85 c0                	test   eax,eax
  1025d1:	75 c9                	jne    10259c <pmm_init+0x50>
  1025d3:	83 7d dc 00          	cmp    DWORD PTR [ebp-0x24],0x0
  1025d7:	75 26                	jne    1025ff <pmm_init+0xb3>
  1025d9:	83 ec 08             	sub    esp,0x8
  1025dc:	6a 00                	push   0x0
  1025de:	6a 0c                	push   0xc
  1025e0:	e8 f4 ec ff ff       	call   1012d9 <vga_set_color>
  1025e5:	83 c4 10             	add    esp,0x10
  1025e8:	83 ec 0c             	sub    esp,0xc
  1025eb:	8d 83 f4 e2 ff ff    	lea    eax,[ebx-0x1d0c]
  1025f1:	50                   	push   eax
  1025f2:	e8 61 f3 ff ff       	call   101958 <vga_print>
  1025f7:	83 c4 10             	add    esp,0x10
  1025fa:	e9 af 02 00 00       	jmp    1028ae <pmm_init+0x362>
  1025ff:	8b 45 dc             	mov    eax,DWORD PTR [ebp-0x24]
  102602:	83 c0 10             	add    eax,0x10
  102605:	89 45 d8             	mov    DWORD PTR [ebp-0x28],eax
  102608:	8b 45 dc             	mov    eax,DWORD PTR [ebp-0x24]
  10260b:	8b 50 04             	mov    edx,DWORD PTR [eax+0x4]
  10260e:	8b 45 dc             	mov    eax,DWORD PTR [ebp-0x24]
  102611:	01 d0                	add    eax,edx
  102613:	89 45 bc             	mov    DWORD PTR [ebp-0x44],eax
  102616:	c7 45 d0 00 00 00 00 	mov    DWORD PTR [ebp-0x30],0x0
  10261d:	c7 45 d4 00 00 00 00 	mov    DWORD PTR [ebp-0x2c],0x0
  102624:	e9 b7 00 00 00       	jmp    1026e0 <pmm_init+0x194>
  102629:	8b 45 d8             	mov    eax,DWORD PTR [ebp-0x28]
  10262c:	89 45 b0             	mov    DWORD PTR [ebp-0x50],eax
  10262f:	8b 45 b0             	mov    eax,DWORD PTR [ebp-0x50]
  102632:	8b 40 10             	mov    eax,DWORD PTR [eax+0x10]
  102635:	83 f8 01             	cmp    eax,0x1
  102638:	0f 85 99 00 00 00    	jne    1026d7 <pmm_init+0x18b>
  10263e:	8b 45 b0             	mov    eax,DWORD PTR [ebp-0x50]
  102641:	8b 50 04             	mov    edx,DWORD PTR [eax+0x4]
  102644:	8b 00                	mov    eax,DWORD PTR [eax]
  102646:	89 45 ac             	mov    DWORD PTR [ebp-0x54],eax
  102649:	8b 45 b0             	mov    eax,DWORD PTR [ebp-0x50]
  10264c:	8b 50 0c             	mov    edx,DWORD PTR [eax+0xc]
  10264f:	8b 40 08             	mov    eax,DWORD PTR [eax+0x8]
  102652:	89 45 a8             	mov    DWORD PTR [ebp-0x58],eax
  102655:	8b 55 ac             	mov    edx,DWORD PTR [ebp-0x54]
  102658:	8b 45 a8             	mov    eax,DWORD PTR [ebp-0x58]
  10265b:	01 d0                	add    eax,edx
  10265d:	89 45 a4             	mov    DWORD PTR [ebp-0x5c],eax
  102660:	8b 45 b0             	mov    eax,DWORD PTR [ebp-0x50]
  102663:	8b 30                	mov    esi,DWORD PTR [eax]
  102665:	8b 78 04             	mov    edi,DWORD PTR [eax+0x4]
  102668:	8b 45 b0             	mov    eax,DWORD PTR [ebp-0x50]
  10266b:	8b 50 0c             	mov    edx,DWORD PTR [eax+0xc]
  10266e:	8b 40 08             	mov    eax,DWORD PTR [eax+0x8]
  102671:	01 f0                	add    eax,esi
  102673:	11 fa                	adc    edx,edi
  102675:	8b 4d d4             	mov    ecx,DWORD PTR [ebp-0x2c]
  102678:	39 45 d0             	cmp    DWORD PTR [ebp-0x30],eax
  10267b:	19 d1                	sbb    ecx,edx
  10267d:	73 1b                	jae    10269a <pmm_init+0x14e>
  10267f:	8b 45 b0             	mov    eax,DWORD PTR [ebp-0x50]
  102682:	8b 30                	mov    esi,DWORD PTR [eax]
  102684:	8b 78 04             	mov    edi,DWORD PTR [eax+0x4]
  102687:	8b 45 b0             	mov    eax,DWORD PTR [ebp-0x50]
  10268a:	8b 50 0c             	mov    edx,DWORD PTR [eax+0xc]
  10268d:	8b 40 08             	mov    eax,DWORD PTR [eax+0x8]
  102690:	01 f0                	add    eax,esi
  102692:	11 fa                	adc    edx,edi
  102694:	89 45 d0             	mov    DWORD PTR [ebp-0x30],eax
  102697:	89 55 d4             	mov    DWORD PTR [ebp-0x2c],edx
  10269a:	8b 45 ac             	mov    eax,DWORD PTR [ebp-0x54]
  10269d:	89 45 cc             	mov    DWORD PTR [ebp-0x34],eax
  1026a0:	eb 24                	jmp    1026c6 <pmm_init+0x17a>
  1026a2:	83 ec 0c             	sub    esp,0xc
  1026a5:	ff 75 cc             	push   DWORD PTR [ebp-0x34]
  1026a8:	e8 3e fd ff ff       	call   1023eb <pmm_clear_frame>
  1026ad:	83 c4 10             	add    esp,0x10
  1026b0:	8b 83 bc 26 01 00    	mov    eax,DWORD PTR [ebx+0x126bc]
  1026b6:	83 c0 01             	add    eax,0x1
  1026b9:	89 83 bc 26 01 00    	mov    DWORD PTR [ebx+0x126bc],eax
  1026bf:	81 45 cc 00 10 00 00 	add    DWORD PTR [ebp-0x34],0x1000
  1026c6:	8b 45 cc             	mov    eax,DWORD PTR [ebp-0x34]
  1026c9:	3b 45 a4             	cmp    eax,DWORD PTR [ebp-0x5c]
  1026cc:	73 09                	jae    1026d7 <pmm_init+0x18b>
  1026ce:	81 7d cc ff ff ff 3f 	cmp    DWORD PTR [ebp-0x34],0x3fffffff
  1026d5:	76 cb                	jbe    1026a2 <pmm_init+0x156>
  1026d7:	8b 45 dc             	mov    eax,DWORD PTR [ebp-0x24]
  1026da:	8b 40 08             	mov    eax,DWORD PTR [eax+0x8]
  1026dd:	01 45 d8             	add    DWORD PTR [ebp-0x28],eax
  1026e0:	8b 45 d8             	mov    eax,DWORD PTR [ebp-0x28]
  1026e3:	3b 45 bc             	cmp    eax,DWORD PTR [ebp-0x44]
  1026e6:	0f 82 3d ff ff ff    	jb     102629 <pmm_init+0xdd>
  1026ec:	8b 45 d0             	mov    eax,DWORD PTR [ebp-0x30]
  1026ef:	8b 55 d4             	mov    edx,DWORD PTR [ebp-0x2c]
  1026f2:	0f ac d0 0c          	shrd   eax,edx,0xc
  1026f6:	c1 ea 0c             	shr    edx,0xc
  1026f9:	89 83 b8 26 01 00    	mov    DWORD PTR [ebx+0x126b8],eax
  1026ff:	8b 83 b8 26 01 00    	mov    eax,DWORD PTR [ebx+0x126b8]
  102705:	3d 00 00 04 00       	cmp    eax,0x40000
  10270a:	76 0a                	jbe    102716 <pmm_init+0x1ca>
  10270c:	c7 83 b8 26 01 00 00 	mov    DWORD PTR [ebx+0x126b8],0x40000
  102713:	00 04 00 
  102716:	c7 45 c8 00 00 00 00 	mov    DWORD PTR [ebp-0x38],0x0
  10271d:	eb 40                	jmp    10275f <pmm_init+0x213>
  10271f:	83 ec 0c             	sub    esp,0xc
  102722:	ff 75 c8             	push   DWORD PTR [ebp-0x38]
  102725:	e8 28 fd ff ff       	call   102452 <pmm_test_frame>
  10272a:	83 c4 10             	add    esp,0x10
  10272d:	85 c0                	test   eax,eax
  10272f:	75 27                	jne    102758 <pmm_init+0x20c>
  102731:	83 ec 0c             	sub    esp,0xc
  102734:	ff 75 c8             	push   DWORD PTR [ebp-0x38]
  102737:	e8 4a fc ff ff       	call   102386 <pmm_set_frame>
  10273c:	83 c4 10             	add    esp,0x10
  10273f:	8b 83 bc 26 01 00    	mov    eax,DWORD PTR [ebx+0x126bc]
  102745:	85 c0                	test   eax,eax
  102747:	74 0f                	je     102758 <pmm_init+0x20c>
  102749:	8b 83 bc 26 01 00    	mov    eax,DWORD PTR [ebx+0x126bc]
  10274f:	83 e8 01             	sub    eax,0x1
  102752:	89 83 bc 26 01 00    	mov    DWORD PTR [ebx+0x126bc],eax
  102758:	81 45 c8 00 10 00 00 	add    DWORD PTR [ebp-0x38],0x1000
  10275f:	81 7d c8 ff ff 0f 00 	cmp    DWORD PTR [ebp-0x38],0xfffff
  102766:	76 b7                	jbe    10271f <pmm_init+0x1d3>
  102768:	c7 c0 00 00 10 00    	mov    eax,0x100000
  10276e:	25 00 f0 ff ff       	and    eax,0xfffff000
  102773:	89 45 b8             	mov    DWORD PTR [ebp-0x48],eax
  102776:	c7 c0 c0 f3 12 00    	mov    eax,0x12f3c0
  10277c:	05 ff 0f 00 00       	add    eax,0xfff
  102781:	25 00 f0 ff ff       	and    eax,0xfffff000
  102786:	89 45 b4             	mov    DWORD PTR [ebp-0x4c],eax
  102789:	8b 45 b8             	mov    eax,DWORD PTR [ebp-0x48]
  10278c:	89 45 c8             	mov    DWORD PTR [ebp-0x38],eax
  10278f:	eb 40                	jmp    1027d1 <pmm_init+0x285>
  102791:	83 ec 0c             	sub    esp,0xc
  102794:	ff 75 c8             	push   DWORD PTR [ebp-0x38]
  102797:	e8 b6 fc ff ff       	call   102452 <pmm_test_frame>
  10279c:	83 c4 10             	add    esp,0x10
  10279f:	85 c0                	test   eax,eax
  1027a1:	75 27                	jne    1027ca <pmm_init+0x27e>
  1027a3:	83 ec 0c             	sub    esp,0xc
  1027a6:	ff 75 c8             	push   DWORD PTR [ebp-0x38]
  1027a9:	e8 d8 fb ff ff       	call   102386 <pmm_set_frame>
  1027ae:	83 c4 10             	add    esp,0x10
  1027b1:	8b 83 bc 26 01 00    	mov    eax,DWORD PTR [ebx+0x126bc]
  1027b7:	85 c0                	test   eax,eax
  1027b9:	74 0f                	je     1027ca <pmm_init+0x27e>
  1027bb:	8b 83 bc 26 01 00    	mov    eax,DWORD PTR [ebx+0x126bc]
  1027c1:	83 e8 01             	sub    eax,0x1
  1027c4:	89 83 bc 26 01 00    	mov    DWORD PTR [ebx+0x126bc],eax
  1027ca:	81 45 c8 00 10 00 00 	add    DWORD PTR [ebp-0x38],0x1000
  1027d1:	8b 45 c8             	mov    eax,DWORD PTR [ebp-0x38]
  1027d4:	3b 45 b4             	cmp    eax,DWORD PTR [ebp-0x4c]
  1027d7:	72 b8                	jb     102791 <pmm_init+0x245>
  1027d9:	83 ec 08             	sub    esp,0x8
  1027dc:	6a 00                	push   0x0
  1027de:	6a 0b                	push   0xb
  1027e0:	e8 f4 ea ff ff       	call   1012d9 <vga_set_color>
  1027e5:	83 c4 10             	add    esp,0x10
  1027e8:	83 ec 0c             	sub    esp,0xc
  1027eb:	8d 83 22 e3 ff ff    	lea    eax,[ebx-0x1cde]
  1027f1:	50                   	push   eax
  1027f2:	e8 61 f1 ff ff       	call   101958 <vga_print>
  1027f7:	83 c4 10             	add    esp,0x10
  1027fa:	83 ec 08             	sub    esp,0x8
  1027fd:	6a 00                	push   0x0
  1027ff:	6a 0f                	push   0xf
  102801:	e8 d3 ea ff ff       	call   1012d9 <vga_set_color>
  102806:	83 c4 10             	add    esp,0x10
  102809:	83 ec 0c             	sub    esp,0xc
  10280c:	8d 83 3b e3 ff ff    	lea    eax,[ebx-0x1cc5]
  102812:	50                   	push   eax
  102813:	e8 40 f1 ff ff       	call   101958 <vga_print>
  102818:	83 c4 10             	add    esp,0x10
  10281b:	8b 83 b8 26 01 00    	mov    eax,DWORD PTR [ebx+0x126b8]
  102821:	83 ec 0c             	sub    esp,0xc
  102824:	50                   	push   eax
  102825:	e8 7b fc ff ff       	call   1024a5 <print_uint32>
  10282a:	83 c4 10             	add    esp,0x10
  10282d:	83 ec 0c             	sub    esp,0xc
  102830:	8d 83 51 e3 ff ff    	lea    eax,[ebx-0x1caf]
  102836:	50                   	push   eax
  102837:	e8 1c f1 ff ff       	call   101958 <vga_print>
  10283c:	83 c4 10             	add    esp,0x10
  10283f:	83 ec 0c             	sub    esp,0xc
  102842:	8d 83 53 e3 ff ff    	lea    eax,[ebx-0x1cad]
  102848:	50                   	push   eax
  102849:	e8 0a f1 ff ff       	call   101958 <vga_print>
  10284e:	83 c4 10             	add    esp,0x10
  102851:	8b 83 bc 26 01 00    	mov    eax,DWORD PTR [ebx+0x126bc]
  102857:	83 ec 0c             	sub    esp,0xc
  10285a:	50                   	push   eax
  10285b:	e8 45 fc ff ff       	call   1024a5 <print_uint32>
  102860:	83 c4 10             	add    esp,0x10
  102863:	83 ec 0c             	sub    esp,0xc
  102866:	8d 83 51 e3 ff ff    	lea    eax,[ebx-0x1caf]
  10286c:	50                   	push   eax
  10286d:	e8 e6 f0 ff ff       	call   101958 <vga_print>
  102872:	83 c4 10             	add    esp,0x10
  102875:	83 ec 0c             	sub    esp,0xc
  102878:	8d 83 69 e3 ff ff    	lea    eax,[ebx-0x1c97]
  10287e:	50                   	push   eax
  10287f:	e8 d4 f0 ff ff       	call   101958 <vga_print>
  102884:	83 c4 10             	add    esp,0x10
  102887:	8b 83 bc 26 01 00    	mov    eax,DWORD PTR [ebx+0x126bc]
  10288d:	c1 e0 02             	shl    eax,0x2
  102890:	83 ec 0c             	sub    esp,0xc
  102893:	50                   	push   eax
  102894:	e8 0c fc ff ff       	call   1024a5 <print_uint32>
  102899:	83 c4 10             	add    esp,0x10
  10289c:	83 ec 0c             	sub    esp,0xc
  10289f:	8d 83 7f e3 ff ff    	lea    eax,[ebx-0x1c81]
  1028a5:	50                   	push   eax
  1028a6:	e8 ad f0 ff ff       	call   101958 <vga_print>
  1028ab:	83 c4 10             	add    esp,0x10
  1028ae:	8d 65 f4             	lea    esp,[ebp-0xc]
  1028b1:	5b                   	pop    ebx
  1028b2:	5e                   	pop    esi
  1028b3:	5f                   	pop    edi
  1028b4:	5d                   	pop    ebp
  1028b5:	c3                   	ret

001028b6 <pmm_alloc_frame>:
  1028b6:	55                   	push   ebp
  1028b7:	89 e5                	mov    ebp,esp
  1028b9:	53                   	push   ebx
  1028ba:	83 ec 10             	sub    esp,0x10
  1028bd:	e8 94 3f 00 00       	call   106856 <__x86.get_pc_thunk.bx>
  1028c2:	81 c3 46 67 00 00    	add    ebx,0x6746
  1028c8:	8b 83 bc 26 01 00    	mov    eax,DWORD PTR [ebx+0x126bc]
  1028ce:	85 c0                	test   eax,eax
  1028d0:	75 0a                	jne    1028dc <pmm_alloc_frame+0x26>
  1028d2:	b8 00 00 00 00       	mov    eax,0x0
  1028d7:	e9 a4 00 00 00       	jmp    102980 <pmm_alloc_frame+0xca>
  1028dc:	c7 45 f8 00 00 00 00 	mov    DWORD PTR [ebp-0x8],0x0
  1028e3:	e9 86 00 00 00       	jmp    10296e <pmm_alloc_frame+0xb8>
  1028e8:	8d 93 b8 a6 00 00    	lea    edx,[ebx+0xa6b8]
  1028ee:	8b 45 f8             	mov    eax,DWORD PTR [ebp-0x8]
  1028f1:	01 d0                	add    eax,edx
  1028f3:	0f b6 00             	movzx  eax,BYTE PTR [eax]
  1028f6:	3c ff                	cmp    al,0xff
  1028f8:	74 6f                	je     102969 <pmm_alloc_frame+0xb3>
  1028fa:	c6 45 f7 00          	mov    BYTE PTR [ebp-0x9],0x0
  1028fe:	eb 61                	jmp    102961 <pmm_alloc_frame+0xab>
  102900:	8d 93 b8 a6 00 00    	lea    edx,[ebx+0xa6b8]
  102906:	8b 45 f8             	mov    eax,DWORD PTR [ebp-0x8]
  102909:	01 d0                	add    eax,edx
  10290b:	0f b6 00             	movzx  eax,BYTE PTR [eax]
  10290e:	0f b6 d0             	movzx  edx,al
  102911:	0f b6 45 f7          	movzx  eax,BYTE PTR [ebp-0x9]
  102915:	89 c1                	mov    ecx,eax
  102917:	d3 fa                	sar    edx,cl
  102919:	89 d0                	mov    eax,edx
  10291b:	83 e0 01             	and    eax,0x1
  10291e:	85 c0                	test   eax,eax
  102920:	75 35                	jne    102957 <pmm_alloc_frame+0xa1>
  102922:	8b 45 f8             	mov    eax,DWORD PTR [ebp-0x8]
  102925:	8d 14 c5 00 00 00 00 	lea    edx,[eax*8+0x0]
  10292c:	0f b6 45 f7          	movzx  eax,BYTE PTR [ebp-0x9]
  102930:	01 d0                	add    eax,edx
  102932:	c1 e0 0c             	shl    eax,0xc
  102935:	89 45 f0             	mov    DWORD PTR [ebp-0x10],eax
  102938:	ff 75 f0             	push   DWORD PTR [ebp-0x10]
  10293b:	e8 46 fa ff ff       	call   102386 <pmm_set_frame>
  102940:	83 c4 04             	add    esp,0x4
  102943:	8b 83 bc 26 01 00    	mov    eax,DWORD PTR [ebx+0x126bc]
  102949:	83 e8 01             	sub    eax,0x1
  10294c:	89 83 bc 26 01 00    	mov    DWORD PTR [ebx+0x126bc],eax
  102952:	8b 45 f0             	mov    eax,DWORD PTR [ebp-0x10]
  102955:	eb 29                	jmp    102980 <pmm_alloc_frame+0xca>
  102957:	0f b6 45 f7          	movzx  eax,BYTE PTR [ebp-0x9]
  10295b:	83 c0 01             	add    eax,0x1
  10295e:	88 45 f7             	mov    BYTE PTR [ebp-0x9],al
  102961:	80 7d f7 07          	cmp    BYTE PTR [ebp-0x9],0x7
  102965:	76 99                	jbe    102900 <pmm_alloc_frame+0x4a>
  102967:	eb 01                	jmp    10296a <pmm_alloc_frame+0xb4>
  102969:	90                   	nop
  10296a:	83 45 f8 01          	add    DWORD PTR [ebp-0x8],0x1
  10296e:	81 7d f8 ff 7f 00 00 	cmp    DWORD PTR [ebp-0x8],0x7fff
  102975:	0f 86 6d ff ff ff    	jbe    1028e8 <pmm_alloc_frame+0x32>
  10297b:	b8 00 00 00 00       	mov    eax,0x0
  102980:	8b 5d fc             	mov    ebx,DWORD PTR [ebp-0x4]
  102983:	c9                   	leave
  102984:	c3                   	ret

00102985 <pmm_free_frame>:
  102985:	55                   	push   ebp
  102986:	89 e5                	mov    ebp,esp
  102988:	53                   	push   ebx
  102989:	e8 c8 3e 00 00       	call   106856 <__x86.get_pc_thunk.bx>
  10298e:	81 c3 7a 66 00 00    	add    ebx,0x667a
  102994:	ff 75 08             	push   DWORD PTR [ebp+0x8]
  102997:	e8 4f fa ff ff       	call   1023eb <pmm_clear_frame>
  10299c:	83 c4 04             	add    esp,0x4
  10299f:	8b 83 bc 26 01 00    	mov    eax,DWORD PTR [ebx+0x126bc]
  1029a5:	83 c0 01             	add    eax,0x1
  1029a8:	89 83 bc 26 01 00    	mov    DWORD PTR [ebx+0x126bc],eax
  1029ae:	90                   	nop
  1029af:	8b 5d fc             	mov    ebx,DWORD PTR [ebp-0x4]
  1029b2:	c9                   	leave
  1029b3:	c3                   	ret

001029b4 <pmm_get_total_frames>:
  1029b4:	55                   	push   ebp
  1029b5:	89 e5                	mov    ebp,esp
  1029b7:	e8 9e 3e 00 00       	call   10685a <__x86.get_pc_thunk.ax>
  1029bc:	05 4c 66 00 00       	add    eax,0x664c
  1029c1:	8b 80 b8 26 01 00    	mov    eax,DWORD PTR [eax+0x126b8]
  1029c7:	5d                   	pop    ebp
  1029c8:	c3                   	ret

001029c9 <pmm_get_free_frames>:
  1029c9:	55                   	push   ebp
  1029ca:	89 e5                	mov    ebp,esp
  1029cc:	e8 89 3e 00 00       	call   10685a <__x86.get_pc_thunk.ax>
  1029d1:	05 37 66 00 00       	add    eax,0x6637
  1029d6:	8b 80 bc 26 01 00    	mov    eax,DWORD PTR [eax+0x126bc]
  1029dc:	5d                   	pop    ebp
  1029dd:	c3                   	ret

001029de <page_fault_handler>:
  1029de:	55                   	push   ebp
  1029df:	89 e5                	mov    ebp,esp
  1029e1:	53                   	push   ebx
  1029e2:	83 ec 14             	sub    esp,0x14
  1029e5:	e8 6c 3e 00 00       	call   106856 <__x86.get_pc_thunk.bx>
  1029ea:	81 c3 1e 66 00 00    	add    ebx,0x661e
  1029f0:	83 ec 08             	sub    esp,0x8
  1029f3:	6a 00                	push   0x0
  1029f5:	6a 0c                	push   0xc
  1029f7:	e8 dd e8 ff ff       	call   1012d9 <vga_set_color>
  1029fc:	83 c4 10             	add    esp,0x10
  1029ff:	83 ec 0c             	sub    esp,0xc
  102a02:	8d 83 84 e3 ff ff    	lea    eax,[ebx-0x1c7c]
  102a08:	50                   	push   eax
  102a09:	e8 4a ef ff ff       	call   101958 <vga_print>
  102a0e:	83 c4 10             	add    esp,0x10
  102a11:	83 ec 08             	sub    esp,0x8
  102a14:	6a 00                	push   0x0
  102a16:	6a 0f                	push   0xf
  102a18:	e8 bc e8 ff ff       	call   1012d9 <vga_set_color>
  102a1d:	83 c4 10             	add    esp,0x10
  102a20:	83 ec 0c             	sub    esp,0xc
  102a23:	8d 83 93 e3 ff ff    	lea    eax,[ebx-0x1c6d]
  102a29:	50                   	push   eax
  102a2a:	e8 29 ef ff ff       	call   101958 <vga_print>
  102a2f:	83 c4 10             	add    esp,0x10
  102a32:	c6 45 f2 00          	mov    BYTE PTR [ebp-0xe],0x0
  102a36:	c7 45 f4 07 00 00 00 	mov    DWORD PTR [ebp-0xc],0x7
  102a3d:	eb 35                	jmp    102a74 <page_fault_handler+0x96>
  102a3f:	8b 45 0c             	mov    eax,DWORD PTR [ebp+0xc]
  102a42:	83 e0 0f             	and    eax,0xf
  102a45:	88 45 f3             	mov    BYTE PTR [ebp-0xd],al
  102a48:	80 7d f3 09          	cmp    BYTE PTR [ebp-0xd],0x9
  102a4c:	77 0b                	ja     102a59 <page_fault_handler+0x7b>
  102a4e:	0f b6 45 f3          	movzx  eax,BYTE PTR [ebp-0xd]
  102a52:	83 c0 30             	add    eax,0x30
  102a55:	89 c1                	mov    ecx,eax
  102a57:	eb 09                	jmp    102a62 <page_fault_handler+0x84>
  102a59:	0f b6 45 f3          	movzx  eax,BYTE PTR [ebp-0xd]
  102a5d:	83 c0 37             	add    eax,0x37
  102a60:	89 c1                	mov    ecx,eax
  102a62:	8d 55 ea             	lea    edx,[ebp-0x16]
  102a65:	8b 45 f4             	mov    eax,DWORD PTR [ebp-0xc]
  102a68:	01 d0                	add    eax,edx
  102a6a:	88 08                	mov    BYTE PTR [eax],cl
  102a6c:	c1 6d 0c 04          	shr    DWORD PTR [ebp+0xc],0x4
  102a70:	83 6d f4 01          	sub    DWORD PTR [ebp-0xc],0x1
  102a74:	83 7d f4 00          	cmp    DWORD PTR [ebp-0xc],0x0
  102a78:	79 c5                	jns    102a3f <page_fault_handler+0x61>
  102a7a:	83 ec 0c             	sub    esp,0xc
  102a7d:	8d 45 ea             	lea    eax,[ebp-0x16]
  102a80:	50                   	push   eax
  102a81:	e8 d2 ee ff ff       	call   101958 <vga_print>
  102a86:	83 c4 10             	add    esp,0x10
  102a89:	83 ec 0c             	sub    esp,0xc
  102a8c:	8d 83 a8 e3 ff ff    	lea    eax,[ebx-0x1c58]
  102a92:	50                   	push   eax
  102a93:	e8 c0 ee ff ff       	call   101958 <vga_print>
  102a98:	83 c4 10             	add    esp,0x10
  102a9b:	83 ec 0c             	sub    esp,0xc
  102a9e:	8d 83 aa e3 ff ff    	lea    eax,[ebx-0x1c56]
  102aa4:	50                   	push   eax
  102aa5:	e8 ae ee ff ff       	call   101958 <vga_print>
  102aaa:	83 c4 10             	add    esp,0x10
  102aad:	8b 45 08             	mov    eax,DWORD PTR [ebp+0x8]
  102ab0:	83 e0 01             	and    eax,0x1
  102ab3:	85 c0                	test   eax,eax
  102ab5:	74 08                	je     102abf <page_fault_handler+0xe1>
  102ab7:	8d 83 bd e3 ff ff    	lea    eax,[ebx-0x1c43]
  102abd:	eb 06                	jmp    102ac5 <page_fault_handler+0xe7>
  102abf:	8d 83 c9 e3 ff ff    	lea    eax,[ebx-0x1c37]
  102ac5:	83 ec 0c             	sub    esp,0xc
  102ac8:	50                   	push   eax
  102ac9:	e8 8a ee ff ff       	call   101958 <vga_print>
  102ace:	83 c4 10             	add    esp,0x10
  102ad1:	8b 45 08             	mov    eax,DWORD PTR [ebp+0x8]
  102ad4:	83 e0 02             	and    eax,0x2
  102ad7:	85 c0                	test   eax,eax
  102ad9:	74 08                	je     102ae3 <page_fault_handler+0x105>
  102adb:	8d 83 d6 e3 ff ff    	lea    eax,[ebx-0x1c2a]
  102ae1:	eb 06                	jmp    102ae9 <page_fault_handler+0x10b>
  102ae3:	8d 83 dd e3 ff ff    	lea    eax,[ebx-0x1c23]
  102ae9:	83 ec 0c             	sub    esp,0xc
  102aec:	50                   	push   eax
  102aed:	e8 66 ee ff ff       	call   101958 <vga_print>
  102af2:	83 c4 10             	add    esp,0x10
  102af5:	8b 45 08             	mov    eax,DWORD PTR [ebp+0x8]
  102af8:	83 e0 04             	and    eax,0x4
  102afb:	85 c0                	test   eax,eax
  102afd:	74 08                	je     102b07 <page_fault_handler+0x129>
  102aff:	8d 83 e3 e3 ff ff    	lea    eax,[ebx-0x1c1d]
  102b05:	eb 06                	jmp    102b0d <page_fault_handler+0x12f>
  102b07:	8d 83 e9 e3 ff ff    	lea    eax,[ebx-0x1c17]
  102b0d:	83 ec 0c             	sub    esp,0xc
  102b10:	50                   	push   eax
  102b11:	e8 42 ee ff ff       	call   101958 <vga_print>
  102b16:	83 c4 10             	add    esp,0x10
  102b19:	f4                   	hlt
  102b1a:	eb fd                	jmp    102b19 <page_fault_handler+0x13b>

00102b1c <vmm_page_fault>:
  102b1c:	55                   	push   ebp
  102b1d:	89 e5                	mov    ebp,esp
  102b1f:	83 ec 18             	sub    esp,0x18
  102b22:	e8 33 3d 00 00       	call   10685a <__x86.get_pc_thunk.ax>
  102b27:	05 e1 64 00 00       	add    eax,0x64e1
  102b2c:	0f 20 d0             	mov    eax,cr2
  102b2f:	89 45 f4             	mov    DWORD PTR [ebp-0xc],eax
  102b32:	83 ec 08             	sub    esp,0x8
  102b35:	ff 75 f4             	push   DWORD PTR [ebp-0xc]
  102b38:	ff 75 08             	push   DWORD PTR [ebp+0x8]
  102b3b:	e8 9e fe ff ff       	call   1029de <page_fault_handler>
  102b40:	83 c4 10             	add    esp,0x10
  102b43:	90                   	nop
  102b44:	c9                   	leave
  102b45:	c3                   	ret

00102b46 <vmm_map_page>:
  102b46:	55                   	push   ebp
  102b47:	89 e5                	mov    ebp,esp
  102b49:	53                   	push   ebx
  102b4a:	83 ec 24             	sub    esp,0x24
  102b4d:	e8 04 3d 00 00       	call   106856 <__x86.get_pc_thunk.bx>
  102b52:	81 c3 b6 64 00 00    	add    ebx,0x64b6
  102b58:	8b 45 08             	mov    eax,DWORD PTR [ebp+0x8]
  102b5b:	c1 e8 16             	shr    eax,0x16
  102b5e:	89 45 ec             	mov    DWORD PTR [ebp-0x14],eax
  102b61:	8b 45 08             	mov    eax,DWORD PTR [ebp+0x8]
  102b64:	c1 e8 0c             	shr    eax,0xc
  102b67:	25 ff 03 00 00       	and    eax,0x3ff
  102b6c:	89 45 e8             	mov    DWORD PTR [ebp-0x18],eax
  102b6f:	8b 45 ec             	mov    eax,DWORD PTR [ebp-0x14]
  102b72:	8b 84 83 f8 2f 01 00 	mov    eax,DWORD PTR [ebx+eax*4+0x12ff8]
  102b79:	83 e0 01             	and    eax,0x1
  102b7c:	85 c0                	test   eax,eax
  102b7e:	75 68                	jne    102be8 <vmm_map_page+0xa2>
  102b80:	e8 31 fd ff ff       	call   1028b6 <pmm_alloc_frame>
  102b85:	89 45 e4             	mov    DWORD PTR [ebp-0x1c],eax
  102b88:	83 7d e4 00          	cmp    DWORD PTR [ebp-0x1c],0x0
  102b8c:	75 15                	jne    102ba3 <vmm_map_page+0x5d>
  102b8e:	83 ec 0c             	sub    esp,0xc
  102b91:	8d 83 f4 e3 ff ff    	lea    eax,[ebx-0x1c0c]
  102b97:	50                   	push   eax
  102b98:	e8 bb ed ff ff       	call   101958 <vga_print>
  102b9d:	83 c4 10             	add    esp,0x10
  102ba0:	f4                   	hlt
  102ba1:	eb fd                	jmp    102ba0 <vmm_map_page+0x5a>
  102ba3:	8b 45 e4             	mov    eax,DWORD PTR [ebp-0x1c]
  102ba6:	89 45 f4             	mov    DWORD PTR [ebp-0xc],eax
  102ba9:	c7 45 f0 00 00 00 00 	mov    DWORD PTR [ebp-0x10],0x0
  102bb0:	eb 19                	jmp    102bcb <vmm_map_page+0x85>
  102bb2:	8b 45 f0             	mov    eax,DWORD PTR [ebp-0x10]
  102bb5:	8d 14 85 00 00 00 00 	lea    edx,[eax*4+0x0]
  102bbc:	8b 45 f4             	mov    eax,DWORD PTR [ebp-0xc]
  102bbf:	01 d0                	add    eax,edx
  102bc1:	c7 00 00 00 00 00    	mov    DWORD PTR [eax],0x0
  102bc7:	83 45 f0 01          	add    DWORD PTR [ebp-0x10],0x1
  102bcb:	81 7d f0 ff 03 00 00 	cmp    DWORD PTR [ebp-0x10],0x3ff
  102bd2:	76 de                	jbe    102bb2 <vmm_map_page+0x6c>
  102bd4:	8b 45 e4             	mov    eax,DWORD PTR [ebp-0x1c]
  102bd7:	83 c8 03             	or     eax,0x3
  102bda:	89 c2                	mov    edx,eax
  102bdc:	8b 45 ec             	mov    eax,DWORD PTR [ebp-0x14]
  102bdf:	89 94 83 f8 2f 01 00 	mov    DWORD PTR [ebx+eax*4+0x12ff8],edx
  102be6:	eb 12                	jmp    102bfa <vmm_map_page+0xb4>
  102be8:	8b 45 ec             	mov    eax,DWORD PTR [ebp-0x14]
  102beb:	8b 84 83 f8 2f 01 00 	mov    eax,DWORD PTR [ebx+eax*4+0x12ff8]
  102bf2:	25 00 f0 ff ff       	and    eax,0xfffff000
  102bf7:	89 45 f4             	mov    DWORD PTR [ebp-0xc],eax
  102bfa:	8b 45 0c             	mov    eax,DWORD PTR [ebp+0xc]
  102bfd:	25 00 f0 ff ff       	and    eax,0xfffff000
  102c02:	89 c2                	mov    edx,eax
  102c04:	8b 45 10             	mov    eax,DWORD PTR [ebp+0x10]
  102c07:	25 ff 0f 00 00       	and    eax,0xfff
  102c0c:	09 c2                	or     edx,eax
  102c0e:	8b 45 e8             	mov    eax,DWORD PTR [ebp-0x18]
  102c11:	8d 0c 85 00 00 00 00 	lea    ecx,[eax*4+0x0]
  102c18:	8b 45 f4             	mov    eax,DWORD PTR [ebp-0xc]
  102c1b:	01 c8                	add    eax,ecx
  102c1d:	83 ca 01             	or     edx,0x1
  102c20:	89 10                	mov    DWORD PTR [eax],edx
  102c22:	90                   	nop
  102c23:	8b 5d fc             	mov    ebx,DWORD PTR [ebp-0x4]
  102c26:	c9                   	leave
  102c27:	c3                   	ret

00102c28 <vmm_unmap_page>:
  102c28:	55                   	push   ebp
  102c29:	89 e5                	mov    ebp,esp
  102c2b:	83 ec 10             	sub    esp,0x10
  102c2e:	e8 27 3c 00 00       	call   10685a <__x86.get_pc_thunk.ax>
  102c33:	05 d5 63 00 00       	add    eax,0x63d5
  102c38:	8b 55 08             	mov    edx,DWORD PTR [ebp+0x8]
  102c3b:	c1 ea 16             	shr    edx,0x16
  102c3e:	89 55 fc             	mov    DWORD PTR [ebp-0x4],edx
  102c41:	8b 55 08             	mov    edx,DWORD PTR [ebp+0x8]
  102c44:	c1 ea 0c             	shr    edx,0xc
  102c47:	81 e2 ff 03 00 00    	and    edx,0x3ff
  102c4d:	89 55 f8             	mov    DWORD PTR [ebp-0x8],edx
  102c50:	8b 55 fc             	mov    edx,DWORD PTR [ebp-0x4]
  102c53:	8b 94 90 f8 2f 01 00 	mov    edx,DWORD PTR [eax+edx*4+0x12ff8]
  102c5a:	83 e2 01             	and    edx,0x1
  102c5d:	85 d2                	test   edx,edx
  102c5f:	74 2f                	je     102c90 <vmm_unmap_page+0x68>
  102c61:	8b 55 fc             	mov    edx,DWORD PTR [ebp-0x4]
  102c64:	8b 84 90 f8 2f 01 00 	mov    eax,DWORD PTR [eax+edx*4+0x12ff8]
  102c6b:	25 00 f0 ff ff       	and    eax,0xfffff000
  102c70:	89 45 f4             	mov    DWORD PTR [ebp-0xc],eax
  102c73:	8b 45 f8             	mov    eax,DWORD PTR [ebp-0x8]
  102c76:	8d 14 85 00 00 00 00 	lea    edx,[eax*4+0x0]
  102c7d:	8b 45 f4             	mov    eax,DWORD PTR [ebp-0xc]
  102c80:	01 d0                	add    eax,edx
  102c82:	c7 00 00 00 00 00    	mov    DWORD PTR [eax],0x0
  102c88:	8b 45 08             	mov    eax,DWORD PTR [ebp+0x8]
  102c8b:	0f 01 38             	invlpg BYTE PTR [eax]
  102c8e:	eb 01                	jmp    102c91 <vmm_unmap_page+0x69>
  102c90:	90                   	nop
  102c91:	c9                   	leave
  102c92:	c3                   	ret

00102c93 <vmm_get_physical>:
  102c93:	55                   	push   ebp
  102c94:	89 e5                	mov    ebp,esp
  102c96:	83 ec 10             	sub    esp,0x10
  102c99:	e8 bc 3b 00 00       	call   10685a <__x86.get_pc_thunk.ax>
  102c9e:	05 6a 63 00 00       	add    eax,0x636a
  102ca3:	8b 55 08             	mov    edx,DWORD PTR [ebp+0x8]
  102ca6:	c1 ea 16             	shr    edx,0x16
  102ca9:	89 55 fc             	mov    DWORD PTR [ebp-0x4],edx
  102cac:	8b 55 08             	mov    edx,DWORD PTR [ebp+0x8]
  102caf:	c1 ea 0c             	shr    edx,0xc
  102cb2:	81 e2 ff 03 00 00    	and    edx,0x3ff
  102cb8:	89 55 f8             	mov    DWORD PTR [ebp-0x8],edx
  102cbb:	8b 55 fc             	mov    edx,DWORD PTR [ebp-0x4]
  102cbe:	8b 94 90 f8 2f 01 00 	mov    edx,DWORD PTR [eax+edx*4+0x12ff8]
  102cc5:	83 e2 01             	and    edx,0x1
  102cc8:	85 d2                	test   edx,edx
  102cca:	75 07                	jne    102cd3 <vmm_get_physical+0x40>
  102ccc:	b8 00 00 00 00       	mov    eax,0x0
  102cd1:	eb 53                	jmp    102d26 <vmm_get_physical+0x93>
  102cd3:	8b 55 fc             	mov    edx,DWORD PTR [ebp-0x4]
  102cd6:	8b 84 90 f8 2f 01 00 	mov    eax,DWORD PTR [eax+edx*4+0x12ff8]
  102cdd:	25 00 f0 ff ff       	and    eax,0xfffff000
  102ce2:	89 45 f4             	mov    DWORD PTR [ebp-0xc],eax
  102ce5:	8b 45 f8             	mov    eax,DWORD PTR [ebp-0x8]
  102ce8:	8d 14 85 00 00 00 00 	lea    edx,[eax*4+0x0]
  102cef:	8b 45 f4             	mov    eax,DWORD PTR [ebp-0xc]
  102cf2:	01 d0                	add    eax,edx
  102cf4:	8b 00                	mov    eax,DWORD PTR [eax]
  102cf6:	83 e0 01             	and    eax,0x1
  102cf9:	85 c0                	test   eax,eax
  102cfb:	75 07                	jne    102d04 <vmm_get_physical+0x71>
  102cfd:	b8 00 00 00 00       	mov    eax,0x0
  102d02:	eb 22                	jmp    102d26 <vmm_get_physical+0x93>
  102d04:	8b 45 f8             	mov    eax,DWORD PTR [ebp-0x8]
  102d07:	8d 14 85 00 00 00 00 	lea    edx,[eax*4+0x0]
  102d0e:	8b 45 f4             	mov    eax,DWORD PTR [ebp-0xc]
  102d11:	01 d0                	add    eax,edx
  102d13:	8b 00                	mov    eax,DWORD PTR [eax]
  102d15:	25 00 f0 ff ff       	and    eax,0xfffff000
  102d1a:	89 c2                	mov    edx,eax
  102d1c:	8b 45 08             	mov    eax,DWORD PTR [ebp+0x8]
  102d1f:	25 ff 0f 00 00       	and    eax,0xfff
  102d24:	09 d0                	or     eax,edx
  102d26:	c9                   	leave
  102d27:	c3                   	ret

00102d28 <vmm_init>:
  102d28:	55                   	push   ebp
  102d29:	89 e5                	mov    ebp,esp
  102d2b:	53                   	push   ebx
  102d2c:	83 ec 24             	sub    esp,0x24
  102d2f:	e8 22 3b 00 00       	call   106856 <__x86.get_pc_thunk.bx>
  102d34:	81 c3 d4 62 00 00    	add    ebx,0x62d4
  102d3a:	c7 45 f4 00 00 00 00 	mov    DWORD PTR [ebp-0xc],0x0
  102d41:	eb 12                	jmp    102d55 <vmm_init+0x2d>
  102d43:	8b 45 f4             	mov    eax,DWORD PTR [ebp-0xc]
  102d46:	c7 84 83 f8 2f 01 00 	mov    DWORD PTR [ebx+eax*4+0x12ff8],0x0
  102d4d:	00 00 00 00 
  102d51:	83 45 f4 01          	add    DWORD PTR [ebp-0xc],0x1
  102d55:	81 7d f4 ff 03 00 00 	cmp    DWORD PTR [ebp-0xc],0x3ff
  102d5c:	76 e5                	jbe    102d43 <vmm_init+0x1b>
  102d5e:	c7 45 f0 00 00 00 00 	mov    DWORD PTR [ebp-0x10],0x0
  102d65:	eb 1a                	jmp    102d81 <vmm_init+0x59>
  102d67:	83 ec 04             	sub    esp,0x4
  102d6a:	6a 03                	push   0x3
  102d6c:	ff 75 f0             	push   DWORD PTR [ebp-0x10]
  102d6f:	ff 75 f0             	push   DWORD PTR [ebp-0x10]
  102d72:	e8 cf fd ff ff       	call   102b46 <vmm_map_page>
  102d77:	83 c4 10             	add    esp,0x10
  102d7a:	81 45 f0 00 10 00 00 	add    DWORD PTR [ebp-0x10],0x1000
  102d81:	81 7d f0 ff ff 3f 00 	cmp    DWORD PTR [ebp-0x10],0x3fffff
  102d88:	76 dd                	jbe    102d67 <vmm_init+0x3f>
  102d8a:	8d 83 f8 2f 01 00    	lea    eax,[ebx+0x12ff8]
  102d90:	0f 22 d8             	mov    cr3,eax
  102d93:	0f 20 c0             	mov    eax,cr0
  102d96:	89 45 e4             	mov    DWORD PTR [ebp-0x1c],eax
  102d99:	81 4d e4 00 00 00 80 	or     DWORD PTR [ebp-0x1c],0x80000000
  102da0:	8b 45 e4             	mov    eax,DWORD PTR [ebp-0x1c]
  102da3:	0f 22 c0             	mov    cr0,eax
  102da6:	83 ec 08             	sub    esp,0x8
  102da9:	6a 00                	push   0x0
  102dab:	6a 0b                	push   0xb
  102dad:	e8 27 e5 ff ff       	call   1012d9 <vga_set_color>
  102db2:	83 c4 10             	add    esp,0x10
  102db5:	83 ec 0c             	sub    esp,0xc
  102db8:	8d 83 1f e4 ff ff    	lea    eax,[ebx-0x1be1]
  102dbe:	50                   	push   eax
  102dbf:	e8 94 eb ff ff       	call   101958 <vga_print>
  102dc4:	83 c4 10             	add    esp,0x10
  102dc7:	83 ec 08             	sub    esp,0x8
  102dca:	6a 00                	push   0x0
  102dcc:	6a 0f                	push   0xf
  102dce:	e8 06 e5 ff ff       	call   1012d9 <vga_set_color>
  102dd3:	83 c4 10             	add    esp,0x10
  102dd6:	83 ec 0c             	sub    esp,0xc
  102dd9:	8d 83 38 e4 ff ff    	lea    eax,[ebx-0x1bc8]
  102ddf:	50                   	push   eax
  102de0:	e8 73 eb ff ff       	call   101958 <vga_print>
  102de5:	83 c4 10             	add    esp,0x10
  102de8:	83 ec 0c             	sub    esp,0xc
  102deb:	8d 83 69 e4 ff ff    	lea    eax,[ebx-0x1b97]
  102df1:	50                   	push   eax
  102df2:	e8 61 eb ff ff       	call   101958 <vga_print>
  102df7:	83 c4 10             	add    esp,0x10
  102dfa:	8d 83 f8 2f 01 00    	lea    eax,[ebx+0x12ff8]
  102e00:	89 45 ec             	mov    DWORD PTR [ebp-0x14],eax
  102e03:	c6 45 e2 00          	mov    BYTE PTR [ebp-0x1e],0x0
  102e07:	c7 45 e8 07 00 00 00 	mov    DWORD PTR [ebp-0x18],0x7
  102e0e:	eb 35                	jmp    102e45 <vmm_init+0x11d>
  102e10:	8b 45 ec             	mov    eax,DWORD PTR [ebp-0x14]
  102e13:	83 e0 0f             	and    eax,0xf
  102e16:	88 45 e3             	mov    BYTE PTR [ebp-0x1d],al
  102e19:	80 7d e3 09          	cmp    BYTE PTR [ebp-0x1d],0x9
  102e1d:	77 0b                	ja     102e2a <vmm_init+0x102>
  102e1f:	0f b6 45 e3          	movzx  eax,BYTE PTR [ebp-0x1d]
  102e23:	83 c0 30             	add    eax,0x30
  102e26:	89 c1                	mov    ecx,eax
  102e28:	eb 09                	jmp    102e33 <vmm_init+0x10b>
  102e2a:	0f b6 45 e3          	movzx  eax,BYTE PTR [ebp-0x1d]
  102e2e:	83 c0 37             	add    eax,0x37
  102e31:	89 c1                	mov    ecx,eax
  102e33:	8d 55 da             	lea    edx,[ebp-0x26]
  102e36:	8b 45 e8             	mov    eax,DWORD PTR [ebp-0x18]
  102e39:	01 d0                	add    eax,edx
  102e3b:	88 08                	mov    BYTE PTR [eax],cl
  102e3d:	c1 6d ec 04          	shr    DWORD PTR [ebp-0x14],0x4
  102e41:	83 6d e8 01          	sub    DWORD PTR [ebp-0x18],0x1
  102e45:	83 7d e8 00          	cmp    DWORD PTR [ebp-0x18],0x0
  102e49:	79 c5                	jns    102e10 <vmm_init+0xe8>
  102e4b:	83 ec 0c             	sub    esp,0xc
  102e4e:	8d 45 da             	lea    eax,[ebp-0x26]
  102e51:	50                   	push   eax
  102e52:	e8 01 eb ff ff       	call   101958 <vga_print>
  102e57:	83 c4 10             	add    esp,0x10
  102e5a:	83 ec 0c             	sub    esp,0xc
  102e5d:	8d 83 a8 e3 ff ff    	lea    eax,[ebx-0x1c58]
  102e63:	50                   	push   eax
  102e64:	e8 ef ea ff ff       	call   101958 <vga_print>
  102e69:	83 c4 10             	add    esp,0x10
  102e6c:	90                   	nop
  102e6d:	8b 5d fc             	mov    ebx,DWORD PTR [ebp-0x4]
  102e70:	c9                   	leave
  102e71:	c3                   	ret

00102e72 <heap_panic>:
  102e72:	55                   	push   ebp
  102e73:	89 e5                	mov    ebp,esp
  102e75:	53                   	push   ebx
  102e76:	83 ec 04             	sub    esp,0x4
  102e79:	e8 d8 39 00 00       	call   106856 <__x86.get_pc_thunk.bx>
  102e7e:	81 c3 8a 61 00 00    	add    ebx,0x618a
  102e84:	83 ec 08             	sub    esp,0x8
  102e87:	6a 00                	push   0x0
  102e89:	6a 0c                	push   0xc
  102e8b:	e8 49 e4 ff ff       	call   1012d9 <vga_set_color>
  102e90:	83 c4 10             	add    esp,0x10
  102e93:	83 ec 0c             	sub    esp,0xc
  102e96:	8d 83 84 e4 ff ff    	lea    eax,[ebx-0x1b7c]
  102e9c:	50                   	push   eax
  102e9d:	e8 b6 ea ff ff       	call   101958 <vga_print>
  102ea2:	83 c4 10             	add    esp,0x10
  102ea5:	83 ec 0c             	sub    esp,0xc
  102ea8:	ff 75 08             	push   DWORD PTR [ebp+0x8]
  102eab:	e8 a8 ea ff ff       	call   101958 <vga_print>
  102eb0:	83 c4 10             	add    esp,0x10
  102eb3:	83 ec 0c             	sub    esp,0xc
  102eb6:	8d 83 93 e4 ff ff    	lea    eax,[ebx-0x1b6d]
  102ebc:	50                   	push   eax
  102ebd:	e8 96 ea ff ff       	call   101958 <vga_print>
  102ec2:	83 c4 10             	add    esp,0x10
  102ec5:	f4                   	hlt
  102ec6:	eb fd                	jmp    102ec5 <heap_panic+0x53>

00102ec8 <heap_init>:
  102ec8:	55                   	push   ebp
  102ec9:	89 e5                	mov    ebp,esp
  102ecb:	53                   	push   ebx
  102ecc:	83 ec 14             	sub    esp,0x14
  102ecf:	e8 82 39 00 00       	call   106856 <__x86.get_pc_thunk.bx>
  102ed4:	81 c3 34 61 00 00    	add    ebx,0x6134
  102eda:	c7 45 f4 00 00 00 01 	mov    DWORD PTR [ebp-0xc],0x1000000
  102ee1:	c7 45 f0 00 00 00 00 	mov    DWORD PTR [ebp-0x10],0x0
  102ee8:	eb 46                	jmp    102f30 <heap_init+0x68>
  102eea:	e8 c7 f9 ff ff       	call   1028b6 <pmm_alloc_frame>
  102eef:	89 45 e8             	mov    DWORD PTR [ebp-0x18],eax
  102ef2:	83 7d e8 00          	cmp    DWORD PTR [ebp-0x18],0x0
  102ef6:	75 17                	jne    102f0f <heap_init+0x47>
  102ef8:	83 ec 0c             	sub    esp,0xc
  102efb:	8d 83 98 e4 ff ff    	lea    eax,[ebx-0x1b68]
  102f01:	50                   	push   eax
  102f02:	e8 6b ff ff ff       	call   102e72 <heap_panic>
  102f07:	83 c4 10             	add    esp,0x10
  102f0a:	e9 a9 00 00 00       	jmp    102fb8 <heap_init+0xf0>
  102f0f:	83 ec 04             	sub    esp,0x4
  102f12:	6a 03                	push   0x3
  102f14:	ff 75 e8             	push   DWORD PTR [ebp-0x18]
  102f17:	ff 75 f4             	push   DWORD PTR [ebp-0xc]
  102f1a:	e8 27 fc ff ff       	call   102b46 <vmm_map_page>
  102f1f:	83 c4 10             	add    esp,0x10
  102f22:	81 45 f4 00 10 00 00 	add    DWORD PTR [ebp-0xc],0x1000
  102f29:	81 45 f0 00 10 00 00 	add    DWORD PTR [ebp-0x10],0x1000
  102f30:	81 7d f0 ff ff 0f 00 	cmp    DWORD PTR [ebp-0x10],0xfffff
  102f37:	76 b1                	jbe    102eea <heap_init+0x22>
  102f39:	c7 83 f8 ff ff ff 00 	mov    DWORD PTR [ebx-0x8],0x1100000
  102f40:	00 10 01 
  102f43:	c7 45 ec 00 00 00 01 	mov    DWORD PTR [ebp-0x14],0x1000000
  102f4a:	8b 45 ec             	mov    eax,DWORD PTR [ebp-0x14]
  102f4d:	c7 00 42 ee ff c0    	mov    DWORD PTR [eax],0xc0ffee42
  102f53:	8b 45 ec             	mov    eax,DWORD PTR [ebp-0x14]
  102f56:	c7 40 04 f4 ff 0f 00 	mov    DWORD PTR [eax+0x4],0xffff4
  102f5d:	8b 45 ec             	mov    eax,DWORD PTR [ebp-0x14]
  102f60:	c6 40 08 01          	mov    BYTE PTR [eax+0x8],0x1
  102f64:	83 ec 08             	sub    esp,0x8
  102f67:	6a 00                	push   0x0
  102f69:	6a 0b                	push   0xb
  102f6b:	e8 69 e3 ff ff       	call   1012d9 <vga_set_color>
  102f70:	83 c4 10             	add    esp,0x10
  102f73:	83 ec 0c             	sub    esp,0xc
  102f76:	8d 83 c4 e4 ff ff    	lea    eax,[ebx-0x1b3c]
  102f7c:	50                   	push   eax
  102f7d:	e8 d6 e9 ff ff       	call   101958 <vga_print>
  102f82:	83 c4 10             	add    esp,0x10
  102f85:	83 ec 08             	sub    esp,0x8
  102f88:	6a 00                	push   0x0
  102f8a:	6a 0f                	push   0xf
  102f8c:	e8 48 e3 ff ff       	call   1012d9 <vga_set_color>
  102f91:	83 c4 10             	add    esp,0x10
  102f94:	83 ec 0c             	sub    esp,0xc
  102f97:	8d 83 d8 e4 ff ff    	lea    eax,[ebx-0x1b28]
  102f9d:	50                   	push   eax
  102f9e:	e8 b5 e9 ff ff       	call   101958 <vga_print>
  102fa3:	83 c4 10             	add    esp,0x10
  102fa6:	83 ec 0c             	sub    esp,0xc
  102fa9:	8d 83 f5 e4 ff ff    	lea    eax,[ebx-0x1b0b]
  102faf:	50                   	push   eax
  102fb0:	e8 a3 e9 ff ff       	call   101958 <vga_print>
  102fb5:	83 c4 10             	add    esp,0x10
  102fb8:	8b 5d fc             	mov    ebx,DWORD PTR [ebp-0x4]
  102fbb:	c9                   	leave
  102fbc:	c3                   	ret

00102fbd <kmalloc>:
  102fbd:	55                   	push   ebp
  102fbe:	89 e5                	mov    ebp,esp
  102fc0:	53                   	push   ebx
  102fc1:	83 ec 14             	sub    esp,0x14
  102fc4:	e8 8d 38 00 00       	call   106856 <__x86.get_pc_thunk.bx>
  102fc9:	81 c3 3f 60 00 00    	add    ebx,0x603f
  102fcf:	83 7d 08 00          	cmp    DWORD PTR [ebp+0x8],0x0
  102fd3:	75 0a                	jne    102fdf <kmalloc+0x22>
  102fd5:	b8 00 00 00 00       	mov    eax,0x0
  102fda:	e9 05 01 00 00       	jmp    1030e4 <kmalloc+0x127>
  102fdf:	8b 45 08             	mov    eax,DWORD PTR [ebp+0x8]
  102fe2:	83 c0 03             	add    eax,0x3
  102fe5:	83 e0 fc             	and    eax,0xfffffffc
  102fe8:	89 45 08             	mov    DWORD PTR [ebp+0x8],eax
  102feb:	c7 45 f4 00 00 00 01 	mov    DWORD PTR [ebp-0xc],0x1000000
  102ff2:	e9 a7 00 00 00       	jmp    10309e <kmalloc+0xe1>
  102ff7:	8b 45 f4             	mov    eax,DWORD PTR [ebp-0xc]
  102ffa:	8b 00                	mov    eax,DWORD PTR [eax]
  102ffc:	3d 42 ee ff c0       	cmp    eax,0xc0ffee42
  103001:	74 1c                	je     10301f <kmalloc+0x62>
  103003:	83 ec 0c             	sub    esp,0xc
  103006:	8d 83 0c e5 ff ff    	lea    eax,[ebx-0x1af4]
  10300c:	50                   	push   eax
  10300d:	e8 60 fe ff ff       	call   102e72 <heap_panic>
  103012:	83 c4 10             	add    esp,0x10
  103015:	b8 00 00 00 00       	mov    eax,0x0
  10301a:	e9 c5 00 00 00       	jmp    1030e4 <kmalloc+0x127>
  10301f:	8b 45 f4             	mov    eax,DWORD PTR [ebp-0xc]
  103022:	0f b6 40 08          	movzx  eax,BYTE PTR [eax+0x8]
  103026:	84 c0                	test   al,al
  103028:	74 63                	je     10308d <kmalloc+0xd0>
  10302a:	8b 45 f4             	mov    eax,DWORD PTR [ebp-0xc]
  10302d:	8b 40 04             	mov    eax,DWORD PTR [eax+0x4]
  103030:	3b 45 08             	cmp    eax,DWORD PTR [ebp+0x8]
  103033:	72 58                	jb     10308d <kmalloc+0xd0>
  103035:	8b 45 f4             	mov    eax,DWORD PTR [ebp-0xc]
  103038:	8b 50 04             	mov    edx,DWORD PTR [eax+0x4]
  10303b:	8b 45 08             	mov    eax,DWORD PTR [ebp+0x8]
  10303e:	83 c0 1c             	add    eax,0x1c
  103041:	39 c2                	cmp    edx,eax
  103043:	72 39                	jb     10307e <kmalloc+0xc1>
  103045:	8b 55 f4             	mov    edx,DWORD PTR [ebp-0xc]
  103048:	8b 45 08             	mov    eax,DWORD PTR [ebp+0x8]
  10304b:	01 d0                	add    eax,edx
  10304d:	83 c0 0c             	add    eax,0xc
  103050:	89 45 f0             	mov    DWORD PTR [ebp-0x10],eax
  103053:	8b 45 f0             	mov    eax,DWORD PTR [ebp-0x10]
  103056:	c7 00 42 ee ff c0    	mov    DWORD PTR [eax],0xc0ffee42
  10305c:	8b 45 f4             	mov    eax,DWORD PTR [ebp-0xc]
  10305f:	8b 40 04             	mov    eax,DWORD PTR [eax+0x4]
  103062:	2b 45 08             	sub    eax,DWORD PTR [ebp+0x8]
  103065:	8d 50 f4             	lea    edx,[eax-0xc]
  103068:	8b 45 f0             	mov    eax,DWORD PTR [ebp-0x10]
  10306b:	89 50 04             	mov    DWORD PTR [eax+0x4],edx
  10306e:	8b 45 f0             	mov    eax,DWORD PTR [ebp-0x10]
  103071:	c6 40 08 01          	mov    BYTE PTR [eax+0x8],0x1
  103075:	8b 45 f4             	mov    eax,DWORD PTR [ebp-0xc]
  103078:	8b 55 08             	mov    edx,DWORD PTR [ebp+0x8]
  10307b:	89 50 04             	mov    DWORD PTR [eax+0x4],edx
  10307e:	8b 45 f4             	mov    eax,DWORD PTR [ebp-0xc]
  103081:	c6 40 08 00          	mov    BYTE PTR [eax+0x8],0x0
  103085:	8b 45 f4             	mov    eax,DWORD PTR [ebp-0xc]
  103088:	83 c0 0c             	add    eax,0xc
  10308b:	eb 57                	jmp    1030e4 <kmalloc+0x127>
  10308d:	8b 45 f4             	mov    eax,DWORD PTR [ebp-0xc]
  103090:	8b 50 04             	mov    edx,DWORD PTR [eax+0x4]
  103093:	8b 45 f4             	mov    eax,DWORD PTR [ebp-0xc]
  103096:	01 d0                	add    eax,edx
  103098:	83 c0 0c             	add    eax,0xc
  10309b:	89 45 f4             	mov    DWORD PTR [ebp-0xc],eax
  10309e:	8b 55 f4             	mov    edx,DWORD PTR [ebp-0xc]
  1030a1:	8b 83 f8 ff ff ff    	mov    eax,DWORD PTR [ebx-0x8]
  1030a7:	39 c2                	cmp    edx,eax
  1030a9:	0f 82 48 ff ff ff    	jb     102ff7 <kmalloc+0x3a>
  1030af:	83 ec 08             	sub    esp,0x8
  1030b2:	6a 00                	push   0x0
  1030b4:	6a 0c                	push   0xc
  1030b6:	e8 1e e2 ff ff       	call   1012d9 <vga_set_color>
  1030bb:	83 c4 10             	add    esp,0x10
  1030be:	83 ec 0c             	sub    esp,0xc
  1030c1:	8d 83 2c e5 ff ff    	lea    eax,[ebx-0x1ad4]
  1030c7:	50                   	push   eax
  1030c8:	e8 8b e8 ff ff       	call   101958 <vga_print>
  1030cd:	83 c4 10             	add    esp,0x10
  1030d0:	83 ec 08             	sub    esp,0x8
  1030d3:	6a 00                	push   0x0
  1030d5:	6a 0f                	push   0xf
  1030d7:	e8 fd e1 ff ff       	call   1012d9 <vga_set_color>
  1030dc:	83 c4 10             	add    esp,0x10
  1030df:	b8 00 00 00 00       	mov    eax,0x0
  1030e4:	8b 5d fc             	mov    ebx,DWORD PTR [ebp-0x4]
  1030e7:	c9                   	leave
  1030e8:	c3                   	ret

001030e9 <kfree>:
  1030e9:	55                   	push   ebp
  1030ea:	89 e5                	mov    ebp,esp
  1030ec:	83 ec 18             	sub    esp,0x18
  1030ef:	e8 66 37 00 00       	call   10685a <__x86.get_pc_thunk.ax>
  1030f4:	05 14 5f 00 00       	add    eax,0x5f14
  1030f9:	83 7d 08 00          	cmp    DWORD PTR [ebp+0x8],0x0
  1030fd:	0f 84 9e 00 00 00    	je     1031a1 <kfree+0xb8>
  103103:	8b 55 08             	mov    edx,DWORD PTR [ebp+0x8]
  103106:	83 ea 0c             	sub    edx,0xc
  103109:	89 55 f4             	mov    DWORD PTR [ebp-0xc],edx
  10310c:	8b 55 f4             	mov    edx,DWORD PTR [ebp-0xc]
  10310f:	8b 12                	mov    edx,DWORD PTR [edx]
  103111:	81 fa 42 ee ff c0    	cmp    edx,0xc0ffee42
  103117:	74 14                	je     10312d <kfree+0x44>
  103119:	83 ec 0c             	sub    esp,0xc
  10311c:	8d 80 4b e5 ff ff    	lea    eax,[eax-0x1ab5]
  103122:	50                   	push   eax
  103123:	e8 4a fd ff ff       	call   102e72 <heap_panic>
  103128:	83 c4 10             	add    esp,0x10
  10312b:	eb 75                	jmp    1031a2 <kfree+0xb9>
  10312d:	8b 55 f4             	mov    edx,DWORD PTR [ebp-0xc]
  103130:	0f b6 52 08          	movzx  edx,BYTE PTR [edx+0x8]
  103134:	84 d2                	test   dl,dl
  103136:	74 14                	je     10314c <kfree+0x63>
  103138:	83 ec 0c             	sub    esp,0xc
  10313b:	8d 80 62 e5 ff ff    	lea    eax,[eax-0x1a9e]
  103141:	50                   	push   eax
  103142:	e8 2b fd ff ff       	call   102e72 <heap_panic>
  103147:	83 c4 10             	add    esp,0x10
  10314a:	eb 56                	jmp    1031a2 <kfree+0xb9>
  10314c:	8b 55 f4             	mov    edx,DWORD PTR [ebp-0xc]
  10314f:	c6 42 08 01          	mov    BYTE PTR [edx+0x8],0x1
  103153:	8b 55 f4             	mov    edx,DWORD PTR [ebp-0xc]
  103156:	8b 4a 04             	mov    ecx,DWORD PTR [edx+0x4]
  103159:	8b 55 f4             	mov    edx,DWORD PTR [ebp-0xc]
  10315c:	01 ca                	add    edx,ecx
  10315e:	83 c2 0c             	add    edx,0xc
  103161:	89 55 f0             	mov    DWORD PTR [ebp-0x10],edx
  103164:	8b 55 f0             	mov    edx,DWORD PTR [ebp-0x10]
  103167:	8b 80 f8 ff ff ff    	mov    eax,DWORD PTR [eax-0x8]
  10316d:	39 c2                	cmp    edx,eax
  10316f:	73 31                	jae    1031a2 <kfree+0xb9>
  103171:	8b 45 f0             	mov    eax,DWORD PTR [ebp-0x10]
  103174:	8b 00                	mov    eax,DWORD PTR [eax]
  103176:	3d 42 ee ff c0       	cmp    eax,0xc0ffee42
  10317b:	75 25                	jne    1031a2 <kfree+0xb9>
  10317d:	8b 45 f0             	mov    eax,DWORD PTR [ebp-0x10]
  103180:	0f b6 40 08          	movzx  eax,BYTE PTR [eax+0x8]
  103184:	84 c0                	test   al,al
  103186:	74 1a                	je     1031a2 <kfree+0xb9>
  103188:	8b 45 f4             	mov    eax,DWORD PTR [ebp-0xc]
  10318b:	8b 50 04             	mov    edx,DWORD PTR [eax+0x4]
  10318e:	8b 45 f0             	mov    eax,DWORD PTR [ebp-0x10]
  103191:	8b 40 04             	mov    eax,DWORD PTR [eax+0x4]
  103194:	01 d0                	add    eax,edx
  103196:	8d 50 0c             	lea    edx,[eax+0xc]
  103199:	8b 45 f4             	mov    eax,DWORD PTR [ebp-0xc]
  10319c:	89 50 04             	mov    DWORD PTR [eax+0x4],edx
  10319f:	eb 01                	jmp    1031a2 <kfree+0xb9>
  1031a1:	90                   	nop
  1031a2:	c9                   	leave
  1031a3:	c3                   	ret

001031a4 <heap_free_bytes>:
  1031a4:	55                   	push   ebp
  1031a5:	89 e5                	mov    ebp,esp
  1031a7:	83 ec 10             	sub    esp,0x10
  1031aa:	e8 af 36 00 00       	call   10685e <__x86.get_pc_thunk.dx>
  1031af:	81 c2 59 5e 00 00    	add    edx,0x5e59
  1031b5:	c7 45 fc 00 00 00 00 	mov    DWORD PTR [ebp-0x4],0x0
  1031bc:	c7 45 f8 00 00 00 01 	mov    DWORD PTR [ebp-0x8],0x1000000
  1031c3:	eb 31                	jmp    1031f6 <heap_free_bytes+0x52>
  1031c5:	8b 45 f8             	mov    eax,DWORD PTR [ebp-0x8]
  1031c8:	8b 00                	mov    eax,DWORD PTR [eax]
  1031ca:	3d 42 ee ff c0       	cmp    eax,0xc0ffee42
  1031cf:	75 34                	jne    103205 <heap_free_bytes+0x61>
  1031d1:	8b 45 f8             	mov    eax,DWORD PTR [ebp-0x8]
  1031d4:	0f b6 40 08          	movzx  eax,BYTE PTR [eax+0x8]
  1031d8:	84 c0                	test   al,al
  1031da:	74 09                	je     1031e5 <heap_free_bytes+0x41>
  1031dc:	8b 45 f8             	mov    eax,DWORD PTR [ebp-0x8]
  1031df:	8b 40 04             	mov    eax,DWORD PTR [eax+0x4]
  1031e2:	01 45 fc             	add    DWORD PTR [ebp-0x4],eax
  1031e5:	8b 45 f8             	mov    eax,DWORD PTR [ebp-0x8]
  1031e8:	8b 48 04             	mov    ecx,DWORD PTR [eax+0x4]
  1031eb:	8b 45 f8             	mov    eax,DWORD PTR [ebp-0x8]
  1031ee:	01 c8                	add    eax,ecx
  1031f0:	83 c0 0c             	add    eax,0xc
  1031f3:	89 45 f8             	mov    DWORD PTR [ebp-0x8],eax
  1031f6:	8b 4d f8             	mov    ecx,DWORD PTR [ebp-0x8]
  1031f9:	8b 82 f8 ff ff ff    	mov    eax,DWORD PTR [edx-0x8]
  1031ff:	39 c1                	cmp    ecx,eax
  103201:	72 c2                	jb     1031c5 <heap_free_bytes+0x21>
  103203:	eb 01                	jmp    103206 <heap_free_bytes+0x62>
  103205:	90                   	nop
  103206:	8b 45 fc             	mov    eax,DWORD PTR [ebp-0x4]
  103209:	c9                   	leave
  10320a:	c3                   	ret

0010320b <outb>:
  10320b:	55                   	push   ebp
  10320c:	89 e5                	mov    ebp,esp
  10320e:	83 ec 08             	sub    esp,0x8
  103211:	e8 44 36 00 00       	call   10685a <__x86.get_pc_thunk.ax>
  103216:	05 f2 5d 00 00       	add    eax,0x5df2
  10321b:	8b 55 08             	mov    edx,DWORD PTR [ebp+0x8]
  10321e:	8b 45 0c             	mov    eax,DWORD PTR [ebp+0xc]
  103221:	66 89 55 fc          	mov    WORD PTR [ebp-0x4],dx
  103225:	88 45 f8             	mov    BYTE PTR [ebp-0x8],al
  103228:	0f b7 55 fc          	movzx  edx,WORD PTR [ebp-0x4]
  10322c:	0f b6 45 f8          	movzx  eax,BYTE PTR [ebp-0x8]
  103230:	ee                   	out    dx,al
  103231:	90                   	nop
  103232:	c9                   	leave
  103233:	c3                   	ret

00103234 <inb>:
  103234:	55                   	push   ebp
  103235:	89 e5                	mov    ebp,esp
  103237:	83 ec 14             	sub    esp,0x14
  10323a:	e8 1b 36 00 00       	call   10685a <__x86.get_pc_thunk.ax>
  10323f:	05 c9 5d 00 00       	add    eax,0x5dc9
  103244:	8b 45 08             	mov    eax,DWORD PTR [ebp+0x8]
  103247:	66 89 45 ec          	mov    WORD PTR [ebp-0x14],ax
  10324b:	0f b7 45 ec          	movzx  eax,WORD PTR [ebp-0x14]
  10324f:	89 c2                	mov    edx,eax
  103251:	ec                   	in     al,dx
  103252:	88 45 ff             	mov    BYTE PTR [ebp-0x1],al
  103255:	0f b6 45 ff          	movzx  eax,BYTE PTR [ebp-0x1]
  103259:	c9                   	leave
  10325a:	c3                   	ret

0010325b <irq_install>:
  10325b:	55                   	push   ebp
  10325c:	89 e5                	mov    ebp,esp
  10325e:	83 ec 04             	sub    esp,0x4
  103261:	e8 f4 35 00 00       	call   10685a <__x86.get_pc_thunk.ax>
  103266:	05 a2 5d 00 00       	add    eax,0x5da2
  10326b:	8b 55 08             	mov    edx,DWORD PTR [ebp+0x8]
  10326e:	88 55 fc             	mov    BYTE PTR [ebp-0x4],dl
  103271:	80 7d fc 0f          	cmp    BYTE PTR [ebp-0x4],0xf
  103275:	77 0e                	ja     103285 <irq_install+0x2a>
  103277:	0f b6 55 fc          	movzx  edx,BYTE PTR [ebp-0x4]
  10327b:	8b 4d 0c             	mov    ecx,DWORD PTR [ebp+0xc]
  10327e:	89 8c 90 18 40 01 00 	mov    DWORD PTR [eax+edx*4+0x14018],ecx
  103285:	90                   	nop
  103286:	c9                   	leave
  103287:	c3                   	ret

00103288 <timer_callback>:
  103288:	55                   	push   ebp
  103289:	89 e5                	mov    ebp,esp
  10328b:	e8 ca 35 00 00       	call   10685a <__x86.get_pc_thunk.ax>
  103290:	05 78 5d 00 00       	add    eax,0x5d78
  103295:	8b 90 f8 3f 01 00    	mov    edx,DWORD PTR [eax+0x13ff8]
  10329b:	83 c2 01             	add    edx,0x1
  10329e:	89 90 f8 3f 01 00    	mov    DWORD PTR [eax+0x13ff8],edx
  1032a4:	90                   	nop
  1032a5:	5d                   	pop    ebp
  1032a6:	c3                   	ret

001032a7 <irq_handler>:
  1032a7:	55                   	push   ebp
  1032a8:	89 e5                	mov    ebp,esp
  1032aa:	53                   	push   ebx
  1032ab:	83 ec 04             	sub    esp,0x4
  1032ae:	e8 a3 35 00 00       	call   106856 <__x86.get_pc_thunk.bx>
  1032b3:	81 c3 55 5d 00 00    	add    ebx,0x5d55
  1032b9:	83 7d 08 07          	cmp    DWORD PTR [ebp+0x8],0x7
  1032bd:	76 0f                	jbe    1032ce <irq_handler+0x27>
  1032bf:	6a 20                	push   0x20
  1032c1:	68 a0 00 00 00       	push   0xa0
  1032c6:	e8 40 ff ff ff       	call   10320b <outb>
  1032cb:	83 c4 08             	add    esp,0x8
  1032ce:	6a 20                	push   0x20
  1032d0:	6a 20                	push   0x20
  1032d2:	e8 34 ff ff ff       	call   10320b <outb>
  1032d7:	83 c4 08             	add    esp,0x8
  1032da:	83 7d 08 0f          	cmp    DWORD PTR [ebp+0x8],0xf
  1032de:	77 1a                	ja     1032fa <irq_handler+0x53>
  1032e0:	8b 45 08             	mov    eax,DWORD PTR [ebp+0x8]
  1032e3:	8b 84 83 18 40 01 00 	mov    eax,DWORD PTR [ebx+eax*4+0x14018]
  1032ea:	85 c0                	test   eax,eax
  1032ec:	74 0c                	je     1032fa <irq_handler+0x53>
  1032ee:	8b 45 08             	mov    eax,DWORD PTR [ebp+0x8]
  1032f1:	8b 84 83 18 40 01 00 	mov    eax,DWORD PTR [ebx+eax*4+0x14018]
  1032f8:	ff d0                	call   eax
  1032fa:	90                   	nop
  1032fb:	8b 5d fc             	mov    ebx,DWORD PTR [ebp-0x4]
  1032fe:	c9                   	leave
  1032ff:	c3                   	ret

00103300 <pit_init>:
  103300:	55                   	push   ebp
  103301:	89 e5                	mov    ebp,esp
  103303:	53                   	push   ebx
  103304:	83 ec 14             	sub    esp,0x14
  103307:	e8 4a 35 00 00       	call   106856 <__x86.get_pc_thunk.bx>
  10330c:	81 c3 fc 5c 00 00    	add    ebx,0x5cfc
  103312:	c7 45 f4 00 00 00 00 	mov    DWORD PTR [ebp-0xc],0x0
  103319:	eb 12                	jmp    10332d <pit_init+0x2d>
  10331b:	8b 45 f4             	mov    eax,DWORD PTR [ebp-0xc]
  10331e:	c7 84 83 18 40 01 00 	mov    DWORD PTR [ebx+eax*4+0x14018],0x0
  103325:	00 00 00 00 
  103329:	83 45 f4 01          	add    DWORD PTR [ebp-0xc],0x1
  10332d:	83 7d f4 0f          	cmp    DWORD PTR [ebp-0xc],0xf
  103331:	7e e8                	jle    10331b <pit_init+0x1b>
  103333:	8d 83 80 a2 ff ff    	lea    eax,[ebx-0x5d80]
  103339:	50                   	push   eax
  10333a:	6a 00                	push   0x0
  10333c:	e8 1a ff ff ff       	call   10325b <irq_install>
  103341:	83 c4 08             	add    esp,0x8
  103344:	6a 36                	push   0x36
  103346:	6a 43                	push   0x43
  103348:	e8 be fe ff ff       	call   10320b <outb>
  10334d:	83 c4 08             	add    esp,0x8
  103350:	68 9b 00 00 00       	push   0x9b
  103355:	6a 40                	push   0x40
  103357:	e8 af fe ff ff       	call   10320b <outb>
  10335c:	83 c4 08             	add    esp,0x8
  10335f:	6a 2e                	push   0x2e
  103361:	6a 40                	push   0x40
  103363:	e8 a3 fe ff ff       	call   10320b <outb>
  103368:	83 c4 08             	add    esp,0x8
  10336b:	6a 21                	push   0x21
  10336d:	e8 c2 fe ff ff       	call   103234 <inb>
  103372:	83 c4 04             	add    esp,0x4
  103375:	88 45 f3             	mov    BYTE PTR [ebp-0xd],al
  103378:	80 65 f3 fe          	and    BYTE PTR [ebp-0xd],0xfe
  10337c:	0f b6 45 f3          	movzx  eax,BYTE PTR [ebp-0xd]
  103380:	50                   	push   eax
  103381:	6a 21                	push   0x21
  103383:	e8 83 fe ff ff       	call   10320b <outb>
  103388:	83 c4 08             	add    esp,0x8
  10338b:	83 ec 08             	sub    esp,0x8
  10338e:	6a 00                	push   0x0
  103390:	6a 0b                	push   0xb
  103392:	e8 42 df ff ff       	call   1012d9 <vga_set_color>
  103397:	83 c4 10             	add    esp,0x10
  10339a:	83 ec 0c             	sub    esp,0xc
  10339d:	8d 83 77 e5 ff ff    	lea    eax,[ebx-0x1a89]
  1033a3:	50                   	push   eax
  1033a4:	e8 af e5 ff ff       	call   101958 <vga_print>
  1033a9:	83 c4 10             	add    esp,0x10
  1033ac:	83 ec 08             	sub    esp,0x8
  1033af:	6a 00                	push   0x0
  1033b1:	6a 0f                	push   0xf
  1033b3:	e8 21 df ff ff       	call   1012d9 <vga_set_color>
  1033b8:	83 c4 10             	add    esp,0x10
  1033bb:	83 ec 0c             	sub    esp,0xc
  1033be:	8d 83 8b e5 ff ff    	lea    eax,[ebx-0x1a75]
  1033c4:	50                   	push   eax
  1033c5:	e8 8e e5 ff ff       	call   101958 <vga_print>
  1033ca:	83 c4 10             	add    esp,0x10
  1033cd:	83 ec 0c             	sub    esp,0xc
  1033d0:	8d 83 a5 e5 ff ff    	lea    eax,[ebx-0x1a5b]
  1033d6:	50                   	push   eax
  1033d7:	e8 7c e5 ff ff       	call   101958 <vga_print>
  1033dc:	83 c4 10             	add    esp,0x10
  1033df:	83 ec 0c             	sub    esp,0xc
  1033e2:	8d 83 be e5 ff ff    	lea    eax,[ebx-0x1a42]
  1033e8:	50                   	push   eax
  1033e9:	e8 6a e5 ff ff       	call   101958 <vga_print>
  1033ee:	83 c4 10             	add    esp,0x10
  1033f1:	90                   	nop
  1033f2:	8b 5d fc             	mov    ebx,DWORD PTR [ebp-0x4]
  1033f5:	c9                   	leave
  1033f6:	c3                   	ret

001033f7 <pit_get_ticks>:
  1033f7:	55                   	push   ebp
  1033f8:	89 e5                	mov    ebp,esp
  1033fa:	e8 5b 34 00 00       	call   10685a <__x86.get_pc_thunk.ax>
  1033ff:	05 09 5c 00 00       	add    eax,0x5c09
  103404:	8b 80 f8 3f 01 00    	mov    eax,DWORD PTR [eax+0x13ff8]
  10340a:	5d                   	pop    ebp
  10340b:	c3                   	ret
  10340c:	66 90                	xchg   ax,ax
  10340e:	66 90                	xchg   ax,ax

00103410 <irq0>:
  103410:	6a 00                	push   0x0
  103412:	eb 3c                	jmp    103450 <irq_common_stub>

00103414 <irq1>:
  103414:	6a 01                	push   0x1
  103416:	eb 38                	jmp    103450 <irq_common_stub>

00103418 <irq2>:
  103418:	6a 02                	push   0x2
  10341a:	eb 34                	jmp    103450 <irq_common_stub>

0010341c <irq3>:
  10341c:	6a 03                	push   0x3
  10341e:	eb 30                	jmp    103450 <irq_common_stub>

00103420 <irq4>:
  103420:	6a 04                	push   0x4
  103422:	eb 2c                	jmp    103450 <irq_common_stub>

00103424 <irq5>:
  103424:	6a 05                	push   0x5
  103426:	eb 28                	jmp    103450 <irq_common_stub>

00103428 <irq6>:
  103428:	6a 06                	push   0x6
  10342a:	eb 24                	jmp    103450 <irq_common_stub>

0010342c <irq7>:
  10342c:	6a 07                	push   0x7
  10342e:	eb 20                	jmp    103450 <irq_common_stub>

00103430 <irq8>:
  103430:	6a 08                	push   0x8
  103432:	eb 1c                	jmp    103450 <irq_common_stub>

00103434 <irq9>:
  103434:	6a 09                	push   0x9
  103436:	eb 18                	jmp    103450 <irq_common_stub>

00103438 <irq10>:
  103438:	6a 0a                	push   0xa
  10343a:	eb 14                	jmp    103450 <irq_common_stub>

0010343c <irq11>:
  10343c:	6a 0b                	push   0xb
  10343e:	eb 10                	jmp    103450 <irq_common_stub>

00103440 <irq12>:
  103440:	6a 0c                	push   0xc
  103442:	eb 0c                	jmp    103450 <irq_common_stub>

00103444 <irq13>:
  103444:	6a 0d                	push   0xd
  103446:	eb 08                	jmp    103450 <irq_common_stub>

00103448 <irq14>:
  103448:	6a 0e                	push   0xe
  10344a:	eb 04                	jmp    103450 <irq_common_stub>

0010344c <irq15>:
  10344c:	6a 0f                	push   0xf
  10344e:	eb 00                	jmp    103450 <irq_common_stub>

00103450 <irq_common_stub>:
  103450:	60                   	pusha
  103451:	66 8c d8             	mov    ax,ds
  103454:	50                   	push   eax
  103455:	66 b8 10 00          	mov    ax,0x10
  103459:	8e d8                	mov    ds,eax
  10345b:	8e c0                	mov    es,eax
  10345d:	8e e0                	mov    fs,eax
  10345f:	8e e8                	mov    gs,eax
  103461:	8b 44 24 24          	mov    eax,DWORD PTR [esp+0x24]
  103465:	50                   	push   eax
  103466:	e8 3c fe ff ff       	call   1032a7 <irq_handler>
  10346b:	83 c4 04             	add    esp,0x4
  10346e:	58                   	pop    eax
  10346f:	8e d8                	mov    ds,eax
  103471:	8e c0                	mov    es,eax
  103473:	8e e0                	mov    fs,eax
  103475:	8e e8                	mov    gs,eax
  103477:	61                   	popa
  103478:	83 c4 04             	add    esp,0x4
  10347b:	cf                   	iret

0010347c <inb>:
  10347c:	55                   	push   ebp
  10347d:	89 e5                	mov    ebp,esp
  10347f:	83 ec 14             	sub    esp,0x14
  103482:	e8 d3 33 00 00       	call   10685a <__x86.get_pc_thunk.ax>
  103487:	05 81 5b 00 00       	add    eax,0x5b81
  10348c:	8b 45 08             	mov    eax,DWORD PTR [ebp+0x8]
  10348f:	66 89 45 ec          	mov    WORD PTR [ebp-0x14],ax
  103493:	0f b7 45 ec          	movzx  eax,WORD PTR [ebp-0x14]
  103497:	89 c2                	mov    edx,eax
  103499:	ec                   	in     al,dx
  10349a:	88 45 ff             	mov    BYTE PTR [ebp-0x1],al
  10349d:	0f b6 45 ff          	movzx  eax,BYTE PTR [ebp-0x1]
  1034a1:	c9                   	leave
  1034a2:	c3                   	ret

001034a3 <outb>:
  1034a3:	55                   	push   ebp
  1034a4:	89 e5                	mov    ebp,esp
  1034a6:	83 ec 08             	sub    esp,0x8
  1034a9:	e8 ac 33 00 00       	call   10685a <__x86.get_pc_thunk.ax>
  1034ae:	05 5a 5b 00 00       	add    eax,0x5b5a
  1034b3:	8b 55 08             	mov    edx,DWORD PTR [ebp+0x8]
  1034b6:	8b 45 0c             	mov    eax,DWORD PTR [ebp+0xc]
  1034b9:	66 89 55 fc          	mov    WORD PTR [ebp-0x4],dx
  1034bd:	88 45 f8             	mov    BYTE PTR [ebp-0x8],al
  1034c0:	0f b7 55 fc          	movzx  edx,WORD PTR [ebp-0x4]
  1034c4:	0f b6 45 f8          	movzx  eax,BYTE PTR [ebp-0x8]
  1034c8:	ee                   	out    dx,al
  1034c9:	90                   	nop
  1034ca:	c9                   	leave
  1034cb:	c3                   	ret

001034cc <keyboard_callback>:
  1034cc:	55                   	push   ebp
  1034cd:	89 e5                	mov    ebp,esp
  1034cf:	53                   	push   ebx
  1034d0:	83 ec 10             	sub    esp,0x10
  1034d3:	e8 7e 33 00 00       	call   106856 <__x86.get_pc_thunk.bx>
  1034d8:	81 c3 30 5b 00 00    	add    ebx,0x5b30
  1034de:	6a 60                	push   0x60
  1034e0:	e8 97 ff ff ff       	call   10347c <inb>
  1034e5:	83 c4 04             	add    esp,0x4
  1034e8:	88 45 fa             	mov    BYTE PTR [ebp-0x6],al
  1034eb:	80 7d fa e0          	cmp    BYTE PTR [ebp-0x6],0xe0
  1034ef:	75 0c                	jne    1034fd <keyboard_callback+0x31>
  1034f1:	c6 83 5c 41 01 00 01 	mov    BYTE PTR [ebx+0x1415c],0x1
  1034f8:	e9 9f 01 00 00       	jmp    10369c <keyboard_callback+0x1d0>
  1034fd:	0f b6 83 5c 41 01 00 	movzx  eax,BYTE PTR [ebx+0x1415c]
  103504:	84 c0                	test   al,al
  103506:	0f 84 82 00 00 00    	je     10358e <keyboard_callback+0xc2>
  10350c:	c6 83 5c 41 01 00 00 	mov    BYTE PTR [ebx+0x1415c],0x0
  103513:	0f b6 45 fa          	movzx  eax,BYTE PTR [ebp-0x6]
  103517:	84 c0                	test   al,al
  103519:	0f 88 6a 01 00 00    	js     103689 <keyboard_callback+0x1bd>
  10351f:	0f b6 83 59 41 01 00 	movzx  eax,BYTE PTR [ebx+0x14159]
  103526:	83 c0 01             	add    eax,0x1
  103529:	88 45 f7             	mov    BYTE PTR [ebp-0x9],al
  10352c:	0f b6 83 58 41 01 00 	movzx  eax,BYTE PTR [ebx+0x14158]
  103533:	38 45 f7             	cmp    BYTE PTR [ebp-0x9],al
  103536:	0f 84 50 01 00 00    	je     10368c <keyboard_callback+0x1c0>
  10353c:	80 7d fa 48          	cmp    BYTE PTR [ebp-0x6],0x48
  103540:	75 21                	jne    103563 <keyboard_callback+0x97>
  103542:	0f b6 83 59 41 01 00 	movzx  eax,BYTE PTR [ebx+0x14159]
  103549:	0f b6 c0             	movzx  eax,al
  10354c:	c6 84 03 58 40 01 00 	mov    BYTE PTR [ebx+eax*1+0x14058],0x1
  103553:	01 
  103554:	0f b6 45 f7          	movzx  eax,BYTE PTR [ebp-0x9]
  103558:	88 83 59 41 01 00    	mov    BYTE PTR [ebx+0x14159],al
  10355e:	e9 2c 01 00 00       	jmp    10368f <keyboard_callback+0x1c3>
  103563:	80 7d fa 50          	cmp    BYTE PTR [ebp-0x6],0x50
  103567:	0f 85 22 01 00 00    	jne    10368f <keyboard_callback+0x1c3>
  10356d:	0f b6 83 59 41 01 00 	movzx  eax,BYTE PTR [ebx+0x14159]
  103574:	0f b6 c0             	movzx  eax,al
  103577:	c6 84 03 58 40 01 00 	mov    BYTE PTR [ebx+eax*1+0x14058],0x2
  10357e:	02 
  10357f:	0f b6 45 f7          	movzx  eax,BYTE PTR [ebp-0x9]
  103583:	88 83 59 41 01 00    	mov    BYTE PTR [ebx+0x14159],al
  103589:	e9 01 01 00 00       	jmp    10368f <keyboard_callback+0x1c3>
  10358e:	0f b6 45 fa          	movzx  eax,BYTE PTR [ebp-0x6]
  103592:	84 c0                	test   al,al
  103594:	79 26                	jns    1035bc <keyboard_callback+0xf0>
  103596:	0f b6 45 fa          	movzx  eax,BYTE PTR [ebp-0x6]
  10359a:	83 e0 7f             	and    eax,0x7f
  10359d:	88 45 f8             	mov    BYTE PTR [ebp-0x8],al
  1035a0:	80 7d f8 2a          	cmp    BYTE PTR [ebp-0x8],0x2a
  1035a4:	74 0a                	je     1035b0 <keyboard_callback+0xe4>
  1035a6:	80 7d f8 36          	cmp    BYTE PTR [ebp-0x8],0x36
  1035aa:	0f 85 e2 00 00 00    	jne    103692 <keyboard_callback+0x1c6>
  1035b0:	c6 83 5a 41 01 00 00 	mov    BYTE PTR [ebx+0x1415a],0x0
  1035b7:	e9 d6 00 00 00       	jmp    103692 <keyboard_callback+0x1c6>
  1035bc:	80 7d fa 2a          	cmp    BYTE PTR [ebp-0x6],0x2a
  1035c0:	74 06                	je     1035c8 <keyboard_callback+0xfc>
  1035c2:	80 7d fa 36          	cmp    BYTE PTR [ebp-0x6],0x36
  1035c6:	75 0c                	jne    1035d4 <keyboard_callback+0x108>
  1035c8:	c6 83 5a 41 01 00 01 	mov    BYTE PTR [ebx+0x1415a],0x1
  1035cf:	e9 c8 00 00 00       	jmp    10369c <keyboard_callback+0x1d0>
  1035d4:	80 7d fa 3a          	cmp    BYTE PTR [ebp-0x6],0x3a
  1035d8:	75 15                	jne    1035ef <keyboard_callback+0x123>
  1035da:	0f b6 83 5b 41 01 00 	movzx  eax,BYTE PTR [ebx+0x1415b]
  1035e1:	83 f0 01             	xor    eax,0x1
  1035e4:	88 83 5b 41 01 00    	mov    BYTE PTR [ebx+0x1415b],al
  1035ea:	e9 ad 00 00 00       	jmp    10369c <keyboard_callback+0x1d0>
  1035ef:	80 7d fa 58          	cmp    BYTE PTR [ebp-0x6],0x58
  1035f3:	0f 87 9c 00 00 00    	ja     103695 <keyboard_callback+0x1c9>
  1035f9:	c6 45 fb 00          	mov    BYTE PTR [ebp-0x5],0x0
  1035fd:	0f b6 83 5a 41 01 00 	movzx  eax,BYTE PTR [ebx+0x1415a]
  103604:	84 c0                	test   al,al
  103606:	74 11                	je     103619 <keyboard_callback+0x14d>
  103608:	0f b6 45 fa          	movzx  eax,BYTE PTR [ebp-0x6]
  10360c:	0f b6 84 03 58 e6 ff 	movzx  eax,BYTE PTR [ebx+eax*1-0x19a8]
  103613:	ff 
  103614:	88 45 fb             	mov    BYTE PTR [ebp-0x5],al
  103617:	eb 30                	jmp    103649 <keyboard_callback+0x17d>
  103619:	0f b6 45 fa          	movzx  eax,BYTE PTR [ebp-0x6]
  10361d:	0f b6 84 03 f8 e5 ff 	movzx  eax,BYTE PTR [ebx+eax*1-0x1a08]
  103624:	ff 
  103625:	88 45 fb             	mov    BYTE PTR [ebp-0x5],al
  103628:	0f b6 83 5b 41 01 00 	movzx  eax,BYTE PTR [ebx+0x1415b]
  10362f:	84 c0                	test   al,al
  103631:	74 16                	je     103649 <keyboard_callback+0x17d>
  103633:	80 7d fb 60          	cmp    BYTE PTR [ebp-0x5],0x60
  103637:	7e 10                	jle    103649 <keyboard_callback+0x17d>
  103639:	80 7d fb 7a          	cmp    BYTE PTR [ebp-0x5],0x7a
  10363d:	7f 0a                	jg     103649 <keyboard_callback+0x17d>
  10363f:	0f b6 45 fb          	movzx  eax,BYTE PTR [ebp-0x5]
  103643:	83 e8 20             	sub    eax,0x20
  103646:	88 45 fb             	mov    BYTE PTR [ebp-0x5],al
  103649:	80 7d fb 00          	cmp    BYTE PTR [ebp-0x5],0x0
  10364d:	74 49                	je     103698 <keyboard_callback+0x1cc>
  10364f:	0f b6 83 59 41 01 00 	movzx  eax,BYTE PTR [ebx+0x14159]
  103656:	83 c0 01             	add    eax,0x1
  103659:	88 45 f9             	mov    BYTE PTR [ebp-0x7],al
  10365c:	0f b6 83 58 41 01 00 	movzx  eax,BYTE PTR [ebx+0x14158]
  103663:	38 45 f9             	cmp    BYTE PTR [ebp-0x7],al
  103666:	74 33                	je     10369b <keyboard_callback+0x1cf>
  103668:	0f b6 83 59 41 01 00 	movzx  eax,BYTE PTR [ebx+0x14159]
  10366f:	0f b6 c0             	movzx  eax,al
  103672:	0f b6 55 fb          	movzx  edx,BYTE PTR [ebp-0x5]
  103676:	88 94 03 58 40 01 00 	mov    BYTE PTR [ebx+eax*1+0x14058],dl
  10367d:	0f b6 45 f9          	movzx  eax,BYTE PTR [ebp-0x7]
  103681:	88 83 59 41 01 00    	mov    BYTE PTR [ebx+0x14159],al
  103687:	eb 13                	jmp    10369c <keyboard_callback+0x1d0>
  103689:	90                   	nop
  10368a:	eb 10                	jmp    10369c <keyboard_callback+0x1d0>
  10368c:	90                   	nop
  10368d:	eb 0d                	jmp    10369c <keyboard_callback+0x1d0>
  10368f:	90                   	nop
  103690:	eb 0a                	jmp    10369c <keyboard_callback+0x1d0>
  103692:	90                   	nop
  103693:	eb 07                	jmp    10369c <keyboard_callback+0x1d0>
  103695:	90                   	nop
  103696:	eb 04                	jmp    10369c <keyboard_callback+0x1d0>
  103698:	90                   	nop
  103699:	eb 01                	jmp    10369c <keyboard_callback+0x1d0>
  10369b:	90                   	nop
  10369c:	8b 5d fc             	mov    ebx,DWORD PTR [ebp-0x4]
  10369f:	c9                   	leave
  1036a0:	c3                   	ret

001036a1 <keyboard_init>:
  1036a1:	55                   	push   ebp
  1036a2:	89 e5                	mov    ebp,esp
  1036a4:	53                   	push   ebx
  1036a5:	83 ec 14             	sub    esp,0x14
  1036a8:	e8 a9 31 00 00       	call   106856 <__x86.get_pc_thunk.bx>
  1036ad:	81 c3 5b 59 00 00    	add    ebx,0x595b
  1036b3:	c6 83 5a 41 01 00 00 	mov    BYTE PTR [ebx+0x1415a],0x0
  1036ba:	c6 83 5b 41 01 00 00 	mov    BYTE PTR [ebx+0x1415b],0x0
  1036c1:	c6 83 58 41 01 00 00 	mov    BYTE PTR [ebx+0x14158],0x0
  1036c8:	c6 83 59 41 01 00 00 	mov    BYTE PTR [ebx+0x14159],0x0
  1036cf:	83 ec 08             	sub    esp,0x8
  1036d2:	8d 83 c4 a4 ff ff    	lea    eax,[ebx-0x5b3c]
  1036d8:	50                   	push   eax
  1036d9:	6a 01                	push   0x1
  1036db:	e8 7b fb ff ff       	call   10325b <irq_install>
  1036e0:	83 c4 10             	add    esp,0x10
  1036e3:	83 ec 0c             	sub    esp,0xc
  1036e6:	6a 21                	push   0x21
  1036e8:	e8 8f fd ff ff       	call   10347c <inb>
  1036ed:	83 c4 10             	add    esp,0x10
  1036f0:	88 45 f7             	mov    BYTE PTR [ebp-0x9],al
  1036f3:	80 65 f7 fd          	and    BYTE PTR [ebp-0x9],0xfd
  1036f7:	0f b6 45 f7          	movzx  eax,BYTE PTR [ebp-0x9]
  1036fb:	83 ec 08             	sub    esp,0x8
  1036fe:	50                   	push   eax
  1036ff:	6a 21                	push   0x21
  103701:	e8 9d fd ff ff       	call   1034a3 <outb>
  103706:	83 c4 10             	add    esp,0x10
  103709:	83 ec 08             	sub    esp,0x8
  10370c:	6a 00                	push   0x0
  10370e:	6a 0b                	push   0xb
  103710:	e8 c4 db ff ff       	call   1012d9 <vga_set_color>
  103715:	83 c4 10             	add    esp,0x10
  103718:	83 ec 0c             	sub    esp,0xc
  10371b:	8d 83 b1 e6 ff ff    	lea    eax,[ebx-0x194f]
  103721:	50                   	push   eax
  103722:	e8 31 e2 ff ff       	call   101958 <vga_print>
  103727:	83 c4 10             	add    esp,0x10
  10372a:	83 ec 08             	sub    esp,0x8
  10372d:	6a 00                	push   0x0
  10372f:	6a 0f                	push   0xf
  103731:	e8 a3 db ff ff       	call   1012d9 <vga_set_color>
  103736:	83 c4 10             	add    esp,0x10
  103739:	83 ec 0c             	sub    esp,0xc
  10373c:	8d 83 c7 e6 ff ff    	lea    eax,[ebx-0x1939]
  103742:	50                   	push   eax
  103743:	e8 10 e2 ff ff       	call   101958 <vga_print>
  103748:	83 c4 10             	add    esp,0x10
  10374b:	83 ec 0c             	sub    esp,0xc
  10374e:	8d 83 e1 e6 ff ff    	lea    eax,[ebx-0x191f]
  103754:	50                   	push   eax
  103755:	e8 fe e1 ff ff       	call   101958 <vga_print>
  10375a:	83 c4 10             	add    esp,0x10
  10375d:	83 ec 0c             	sub    esp,0xc
  103760:	8d 83 fc e6 ff ff    	lea    eax,[ebx-0x1904]
  103766:	50                   	push   eax
  103767:	e8 ec e1 ff ff       	call   101958 <vga_print>
  10376c:	83 c4 10             	add    esp,0x10
  10376f:	90                   	nop
  103770:	8b 5d fc             	mov    ebx,DWORD PTR [ebp-0x4]
  103773:	c9                   	leave
  103774:	c3                   	ret

00103775 <keyboard_getchar>:
  103775:	55                   	push   ebp
  103776:	89 e5                	mov    ebp,esp
  103778:	83 ec 10             	sub    esp,0x10
  10377b:	e8 da 30 00 00       	call   10685a <__x86.get_pc_thunk.ax>
  103780:	05 88 58 00 00       	add    eax,0x5888
  103785:	0f b6 88 58 41 01 00 	movzx  ecx,BYTE PTR [eax+0x14158]
  10378c:	0f b6 90 59 41 01 00 	movzx  edx,BYTE PTR [eax+0x14159]
  103793:	38 d1                	cmp    cl,dl
  103795:	75 07                	jne    10379e <keyboard_getchar+0x29>
  103797:	b8 00 00 00 00       	mov    eax,0x0
  10379c:	eb 29                	jmp    1037c7 <keyboard_getchar+0x52>
  10379e:	0f b6 90 58 41 01 00 	movzx  edx,BYTE PTR [eax+0x14158]
  1037a5:	0f b6 d2             	movzx  edx,dl
  1037a8:	0f b6 94 10 58 40 01 	movzx  edx,BYTE PTR [eax+edx*1+0x14058]
  1037af:	00 
  1037b0:	88 55 ff             	mov    BYTE PTR [ebp-0x1],dl
  1037b3:	0f b6 90 58 41 01 00 	movzx  edx,BYTE PTR [eax+0x14158]
  1037ba:	83 c2 01             	add    edx,0x1
  1037bd:	88 90 58 41 01 00    	mov    BYTE PTR [eax+0x14158],dl
  1037c3:	0f b6 45 ff          	movzx  eax,BYTE PTR [ebp-0x1]
  1037c7:	c9                   	leave
  1037c8:	c3                   	ret

001037c9 <keyboard_haschar>:
  1037c9:	55                   	push   ebp
  1037ca:	89 e5                	mov    ebp,esp
  1037cc:	e8 89 30 00 00       	call   10685a <__x86.get_pc_thunk.ax>
  1037d1:	05 37 58 00 00       	add    eax,0x5837
  1037d6:	0f b6 90 58 41 01 00 	movzx  edx,BYTE PTR [eax+0x14158]
  1037dd:	0f b6 80 59 41 01 00 	movzx  eax,BYTE PTR [eax+0x14159]
  1037e4:	38 c2                	cmp    dl,al
  1037e6:	0f 95 c0             	setne  al
  1037e9:	5d                   	pop    ebp
  1037ea:	c3                   	ret

001037eb <str_len>:
  1037eb:	55                   	push   ebp
  1037ec:	89 e5                	mov    ebp,esp
  1037ee:	83 ec 10             	sub    esp,0x10
  1037f1:	e8 64 30 00 00       	call   10685a <__x86.get_pc_thunk.ax>
  1037f6:	05 12 58 00 00       	add    eax,0x5812
  1037fb:	c7 45 fc 00 00 00 00 	mov    DWORD PTR [ebp-0x4],0x0
  103802:	eb 04                	jmp    103808 <str_len+0x1d>
  103804:	83 45 fc 01          	add    DWORD PTR [ebp-0x4],0x1
  103808:	8b 55 08             	mov    edx,DWORD PTR [ebp+0x8]
  10380b:	8b 45 fc             	mov    eax,DWORD PTR [ebp-0x4]
  10380e:	01 d0                	add    eax,edx
  103810:	0f b6 00             	movzx  eax,BYTE PTR [eax]
  103813:	84 c0                	test   al,al
  103815:	75 ed                	jne    103804 <str_len+0x19>
  103817:	8b 45 fc             	mov    eax,DWORD PTR [ebp-0x4]
  10381a:	c9                   	leave
  10381b:	c3                   	ret

0010381c <str_eq>:
  10381c:	55                   	push   ebp
  10381d:	89 e5                	mov    ebp,esp
  10381f:	e8 36 30 00 00       	call   10685a <__x86.get_pc_thunk.ax>
  103824:	05 e4 57 00 00       	add    eax,0x57e4
  103829:	eb 1f                	jmp    10384a <str_eq+0x2e>
  10382b:	8b 45 08             	mov    eax,DWORD PTR [ebp+0x8]
  10382e:	0f b6 10             	movzx  edx,BYTE PTR [eax]
  103831:	8b 45 0c             	mov    eax,DWORD PTR [ebp+0xc]
  103834:	0f b6 00             	movzx  eax,BYTE PTR [eax]
  103837:	38 c2                	cmp    dl,al
  103839:	74 07                	je     103842 <str_eq+0x26>
  10383b:	b8 00 00 00 00       	mov    eax,0x0
  103840:	eb 30                	jmp    103872 <str_eq+0x56>
  103842:	83 45 08 01          	add    DWORD PTR [ebp+0x8],0x1
  103846:	83 45 0c 01          	add    DWORD PTR [ebp+0xc],0x1
  10384a:	8b 45 08             	mov    eax,DWORD PTR [ebp+0x8]
  10384d:	0f b6 00             	movzx  eax,BYTE PTR [eax]
  103850:	84 c0                	test   al,al
  103852:	74 0a                	je     10385e <str_eq+0x42>
  103854:	8b 45 0c             	mov    eax,DWORD PTR [ebp+0xc]
  103857:	0f b6 00             	movzx  eax,BYTE PTR [eax]
  10385a:	84 c0                	test   al,al
  10385c:	75 cd                	jne    10382b <str_eq+0xf>
  10385e:	8b 45 08             	mov    eax,DWORD PTR [ebp+0x8]
  103861:	0f b6 10             	movzx  edx,BYTE PTR [eax]
  103864:	8b 45 0c             	mov    eax,DWORD PTR [ebp+0xc]
  103867:	0f b6 00             	movzx  eax,BYTE PTR [eax]
  10386a:	38 c2                	cmp    dl,al
  10386c:	0f 94 c0             	sete   al
  10386f:	0f b6 c0             	movzx  eax,al
  103872:	5d                   	pop    ebp
  103873:	c3                   	ret

00103874 <print_uint>:
  103874:	55                   	push   ebp
  103875:	89 e5                	mov    ebp,esp
  103877:	53                   	push   ebx
  103878:	83 ec 14             	sub    esp,0x14
  10387b:	e8 e2 2f 00 00       	call   106862 <__x86.get_pc_thunk.cx>
  103880:	81 c1 88 57 00 00    	add    ecx,0x5788
  103886:	83 7d 08 00          	cmp    DWORD PTR [ebp+0x8],0x0
  10388a:	75 16                	jne    1038a2 <print_uint+0x2e>
  10388c:	83 ec 0c             	sub    esp,0xc
  10388f:	8d 81 24 e7 ff ff    	lea    eax,[ecx-0x18dc]
  103895:	50                   	push   eax
  103896:	89 cb                	mov    ebx,ecx
  103898:	e8 bb e0 ff ff       	call   101958 <vga_print>
  10389d:	83 c4 10             	add    esp,0x10
  1038a0:	eb 74                	jmp    103916 <print_uint+0xa2>
  1038a2:	c6 45 f3 00          	mov    BYTE PTR [ebp-0xd],0x0
  1038a6:	c7 45 f4 0a 00 00 00 	mov    DWORD PTR [ebp-0xc],0xa
  1038ad:	eb 42                	jmp    1038f1 <print_uint+0x7d>
  1038af:	8b 5d 08             	mov    ebx,DWORD PTR [ebp+0x8]
  1038b2:	ba cd cc cc cc       	mov    edx,0xcccccccd
  1038b7:	89 d8                	mov    eax,ebx
  1038b9:	f7 e2                	mul    edx
  1038bb:	c1 ea 03             	shr    edx,0x3
  1038be:	89 d0                	mov    eax,edx
  1038c0:	c1 e0 02             	shl    eax,0x2
  1038c3:	01 d0                	add    eax,edx
  1038c5:	01 c0                	add    eax,eax
  1038c7:	29 c3                	sub    ebx,eax
  1038c9:	89 da                	mov    edx,ebx
  1038cb:	89 d0                	mov    eax,edx
  1038cd:	8d 58 30             	lea    ebx,[eax+0x30]
  1038d0:	8b 45 f4             	mov    eax,DWORD PTR [ebp-0xc]
  1038d3:	8d 50 ff             	lea    edx,[eax-0x1]
  1038d6:	89 55 f4             	mov    DWORD PTR [ebp-0xc],edx
  1038d9:	89 da                	mov    edx,ebx
  1038db:	88 54 05 e8          	mov    BYTE PTR [ebp+eax*1-0x18],dl
  1038df:	8b 45 08             	mov    eax,DWORD PTR [ebp+0x8]
  1038e2:	ba cd cc cc cc       	mov    edx,0xcccccccd
  1038e7:	f7 e2                	mul    edx
  1038e9:	89 d0                	mov    eax,edx
  1038eb:	c1 e8 03             	shr    eax,0x3
  1038ee:	89 45 08             	mov    DWORD PTR [ebp+0x8],eax
  1038f1:	83 7d 08 00          	cmp    DWORD PTR [ebp+0x8],0x0
  1038f5:	74 06                	je     1038fd <print_uint+0x89>
  1038f7:	83 7d f4 00          	cmp    DWORD PTR [ebp-0xc],0x0
  1038fb:	79 b2                	jns    1038af <print_uint+0x3b>
  1038fd:	8b 45 f4             	mov    eax,DWORD PTR [ebp-0xc]
  103900:	8d 50 01             	lea    edx,[eax+0x1]
  103903:	8d 45 e8             	lea    eax,[ebp-0x18]
  103906:	01 d0                	add    eax,edx
  103908:	83 ec 0c             	sub    esp,0xc
  10390b:	50                   	push   eax
  10390c:	89 cb                	mov    ebx,ecx
  10390e:	e8 45 e0 ff ff       	call   101958 <vga_print>
  103913:	83 c4 10             	add    esp,0x10
  103916:	8b 5d fc             	mov    ebx,DWORD PTR [ebp-0x4]
  103919:	c9                   	leave
  10391a:	c3                   	ret

0010391b <shell_prompt>:
  10391b:	55                   	push   ebp
  10391c:	89 e5                	mov    ebp,esp
  10391e:	53                   	push   ebx
  10391f:	83 ec 04             	sub    esp,0x4
  103922:	e8 2f 2f 00 00       	call   106856 <__x86.get_pc_thunk.bx>
  103927:	81 c3 e1 56 00 00    	add    ebx,0x56e1
  10392d:	83 ec 08             	sub    esp,0x8
  103930:	6a 00                	push   0x0
  103932:	6a 0a                	push   0xa
  103934:	e8 a0 d9 ff ff       	call   1012d9 <vga_set_color>
  103939:	83 c4 10             	add    esp,0x10
  10393c:	83 ec 0c             	sub    esp,0xc
  10393f:	8d 83 26 e7 ff ff    	lea    eax,[ebx-0x18da]
  103945:	50                   	push   eax
  103946:	e8 0d e0 ff ff       	call   101958 <vga_print>
  10394b:	83 c4 10             	add    esp,0x10
  10394e:	83 ec 08             	sub    esp,0x8
  103951:	6a 00                	push   0x0
  103953:	6a 08                	push   0x8
  103955:	e8 7f d9 ff ff       	call   1012d9 <vga_set_color>
  10395a:	83 c4 10             	add    esp,0x10
  10395d:	83 ec 0c             	sub    esp,0xc
  103960:	8d 83 2a e7 ff ff    	lea    eax,[ebx-0x18d6]
  103966:	50                   	push   eax
  103967:	e8 ec df ff ff       	call   101958 <vga_print>
  10396c:	83 c4 10             	add    esp,0x10
  10396f:	83 ec 08             	sub    esp,0x8
  103972:	6a 00                	push   0x0
  103974:	6a 0b                	push   0xb
  103976:	e8 5e d9 ff ff       	call   1012d9 <vga_set_color>
  10397b:	83 c4 10             	add    esp,0x10
  10397e:	83 ec 0c             	sub    esp,0xc
  103981:	8d 83 2c e7 ff ff    	lea    eax,[ebx-0x18d4]
  103987:	50                   	push   eax
  103988:	e8 cb df ff ff       	call   101958 <vga_print>
  10398d:	83 c4 10             	add    esp,0x10
  103990:	83 ec 08             	sub    esp,0x8
  103993:	6a 00                	push   0x0
  103995:	6a 0f                	push   0xf
  103997:	e8 3d d9 ff ff       	call   1012d9 <vga_set_color>
  10399c:	83 c4 10             	add    esp,0x10
  10399f:	83 ec 0c             	sub    esp,0xc
  1039a2:	8d 83 37 e7 ff ff    	lea    eax,[ebx-0x18c9]
  1039a8:	50                   	push   eax
  1039a9:	e8 aa df ff ff       	call   101958 <vga_print>
  1039ae:	83 c4 10             	add    esp,0x10
  1039b1:	90                   	nop
  1039b2:	8b 5d fc             	mov    ebx,DWORD PTR [ebp-0x4]
  1039b5:	c9                   	leave
  1039b6:	c3                   	ret

001039b7 <cmd_clear>:
  1039b7:	55                   	push   ebp
  1039b8:	89 e5                	mov    ebp,esp
  1039ba:	53                   	push   ebx
  1039bb:	83 ec 04             	sub    esp,0x4
  1039be:	e8 97 2e 00 00       	call   10685a <__x86.get_pc_thunk.ax>
  1039c3:	05 45 56 00 00       	add    eax,0x5645
  1039c8:	89 c3                	mov    ebx,eax
  1039ca:	e8 33 d9 ff ff       	call   101302 <vga_init>
  1039cf:	90                   	nop
  1039d0:	8b 5d fc             	mov    ebx,DWORD PTR [ebp-0x4]
  1039d3:	c9                   	leave
  1039d4:	c3                   	ret

001039d5 <cmd_version>:
  1039d5:	55                   	push   ebp
  1039d6:	89 e5                	mov    ebp,esp
  1039d8:	53                   	push   ebx
  1039d9:	83 ec 04             	sub    esp,0x4
  1039dc:	e8 75 2e 00 00       	call   106856 <__x86.get_pc_thunk.bx>
  1039e1:	81 c3 27 56 00 00    	add    ebx,0x5627
  1039e7:	83 ec 0c             	sub    esp,0xc
  1039ea:	8d 83 3b e7 ff ff    	lea    eax,[ebx-0x18c5]
  1039f0:	50                   	push   eax
  1039f1:	e8 62 df ff ff       	call   101958 <vga_print>
  1039f6:	83 c4 10             	add    esp,0x10
  1039f9:	83 ec 08             	sub    esp,0x8
  1039fc:	6a 00                	push   0x0
  1039fe:	6a 0b                	push   0xb
  103a00:	e8 d4 d8 ff ff       	call   1012d9 <vga_set_color>
  103a05:	83 c4 10             	add    esp,0x10
  103a08:	83 ec 0c             	sub    esp,0xc
  103a0b:	8d 83 3d e7 ff ff    	lea    eax,[ebx-0x18c3]
  103a11:	50                   	push   eax
  103a12:	e8 41 df ff ff       	call   101958 <vga_print>
  103a17:	83 c4 10             	add    esp,0x10
  103a1a:	83 ec 08             	sub    esp,0x8
  103a1d:	6a 00                	push   0x0
  103a1f:	6a 08                	push   0x8
  103a21:	e8 b3 d8 ff ff       	call   1012d9 <vga_set_color>
  103a26:	83 c4 10             	add    esp,0x10
  103a29:	83 ec 0c             	sub    esp,0xc
  103a2c:	8d 83 4f e7 ff ff    	lea    eax,[ebx-0x18b1]
  103a32:	50                   	push   eax
  103a33:	e8 20 df ff ff       	call   101958 <vga_print>
  103a38:	83 c4 10             	add    esp,0x10
  103a3b:	83 ec 08             	sub    esp,0x8
  103a3e:	6a 00                	push   0x0
  103a40:	6a 0f                	push   0xf
  103a42:	e8 92 d8 ff ff       	call   1012d9 <vga_set_color>
  103a47:	83 c4 10             	add    esp,0x10
  103a4a:	83 ec 0c             	sub    esp,0xc
  103a4d:	8d 83 3b e7 ff ff    	lea    eax,[ebx-0x18c5]
  103a53:	50                   	push   eax
  103a54:	e8 ff de ff ff       	call   101958 <vga_print>
  103a59:	83 c4 10             	add    esp,0x10
  103a5c:	90                   	nop
  103a5d:	8b 5d fc             	mov    ebx,DWORD PTR [ebp-0x4]
  103a60:	c9                   	leave
  103a61:	c3                   	ret

00103a62 <cmd_uptime>:
  103a62:	55                   	push   ebp
  103a63:	89 e5                	mov    ebp,esp
  103a65:	53                   	push   ebx
  103a66:	83 ec 14             	sub    esp,0x14
  103a69:	e8 e8 2d 00 00       	call   106856 <__x86.get_pc_thunk.bx>
  103a6e:	81 c3 9a 55 00 00    	add    ebx,0x559a
  103a74:	e8 7e f9 ff ff       	call   1033f7 <pit_get_ticks>
  103a79:	89 45 f4             	mov    DWORD PTR [ebp-0xc],eax
  103a7c:	8b 45 f4             	mov    eax,DWORD PTR [ebp-0xc]
  103a7f:	ba 1f 85 eb 51       	mov    edx,0x51eb851f
  103a84:	f7 e2                	mul    edx
  103a86:	89 d0                	mov    eax,edx
  103a88:	c1 e8 05             	shr    eax,0x5
  103a8b:	89 45 f0             	mov    DWORD PTR [ebp-0x10],eax
  103a8e:	8b 45 f0             	mov    eax,DWORD PTR [ebp-0x10]
  103a91:	ba 89 88 88 88       	mov    edx,0x88888889
  103a96:	f7 e2                	mul    edx
  103a98:	89 d0                	mov    eax,edx
  103a9a:	c1 e8 05             	shr    eax,0x5
  103a9d:	89 45 ec             	mov    DWORD PTR [ebp-0x14],eax
  103aa0:	8b 45 ec             	mov    eax,DWORD PTR [ebp-0x14]
  103aa3:	ba 89 88 88 88       	mov    edx,0x88888889
  103aa8:	f7 e2                	mul    edx
  103aaa:	89 d0                	mov    eax,edx
  103aac:	c1 e8 05             	shr    eax,0x5
  103aaf:	89 45 e8             	mov    DWORD PTR [ebp-0x18],eax
  103ab2:	8b 4d f0             	mov    ecx,DWORD PTR [ebp-0x10]
  103ab5:	ba 89 88 88 88       	mov    edx,0x88888889
  103aba:	89 c8                	mov    eax,ecx
  103abc:	f7 e2                	mul    edx
  103abe:	89 d0                	mov    eax,edx
  103ac0:	c1 e8 05             	shr    eax,0x5
  103ac3:	6b c0 3c             	imul   eax,eax,0x3c
  103ac6:	29 c1                	sub    ecx,eax
  103ac8:	89 ca                	mov    edx,ecx
  103aca:	89 55 f0             	mov    DWORD PTR [ebp-0x10],edx
  103acd:	8b 4d ec             	mov    ecx,DWORD PTR [ebp-0x14]
  103ad0:	ba 89 88 88 88       	mov    edx,0x88888889
  103ad5:	89 c8                	mov    eax,ecx
  103ad7:	f7 e2                	mul    edx
  103ad9:	89 d0                	mov    eax,edx
  103adb:	c1 e8 05             	shr    eax,0x5
  103ade:	6b c0 3c             	imul   eax,eax,0x3c
  103ae1:	29 c1                	sub    ecx,eax
  103ae3:	89 ca                	mov    edx,ecx
  103ae5:	89 55 ec             	mov    DWORD PTR [ebp-0x14],edx
  103ae8:	83 ec 0c             	sub    esp,0xc
  103aeb:	8d 83 66 e7 ff ff    	lea    eax,[ebx-0x189a]
  103af1:	50                   	push   eax
  103af2:	e8 61 de ff ff       	call   101958 <vga_print>
  103af7:	83 c4 10             	add    esp,0x10
  103afa:	83 ec 0c             	sub    esp,0xc
  103afd:	ff 75 e8             	push   DWORD PTR [ebp-0x18]
  103b00:	e8 6f fd ff ff       	call   103874 <print_uint>
  103b05:	83 c4 10             	add    esp,0x10
  103b08:	83 ec 0c             	sub    esp,0xc
  103b0b:	8d 83 73 e7 ff ff    	lea    eax,[ebx-0x188d]
  103b11:	50                   	push   eax
  103b12:	e8 41 de ff ff       	call   101958 <vga_print>
  103b17:	83 c4 10             	add    esp,0x10
  103b1a:	83 ec 0c             	sub    esp,0xc
  103b1d:	ff 75 ec             	push   DWORD PTR [ebp-0x14]
  103b20:	e8 4f fd ff ff       	call   103874 <print_uint>
  103b25:	83 c4 10             	add    esp,0x10
  103b28:	83 ec 0c             	sub    esp,0xc
  103b2b:	8d 83 76 e7 ff ff    	lea    eax,[ebx-0x188a]
  103b31:	50                   	push   eax
  103b32:	e8 21 de ff ff       	call   101958 <vga_print>
  103b37:	83 c4 10             	add    esp,0x10
  103b3a:	83 ec 0c             	sub    esp,0xc
  103b3d:	ff 75 f0             	push   DWORD PTR [ebp-0x10]
  103b40:	e8 2f fd ff ff       	call   103874 <print_uint>
  103b45:	83 c4 10             	add    esp,0x10
  103b48:	83 ec 0c             	sub    esp,0xc
  103b4b:	8d 83 79 e7 ff ff    	lea    eax,[ebx-0x1887]
  103b51:	50                   	push   eax
  103b52:	e8 01 de ff ff       	call   101958 <vga_print>
  103b57:	83 c4 10             	add    esp,0x10
  103b5a:	83 ec 0c             	sub    esp,0xc
  103b5d:	8d 83 7b e7 ff ff    	lea    eax,[ebx-0x1885]
  103b63:	50                   	push   eax
  103b64:	e8 ef dd ff ff       	call   101958 <vga_print>
  103b69:	83 c4 10             	add    esp,0x10
  103b6c:	83 ec 0c             	sub    esp,0xc
  103b6f:	ff 75 f4             	push   DWORD PTR [ebp-0xc]
  103b72:	e8 fd fc ff ff       	call   103874 <print_uint>
  103b77:	83 c4 10             	add    esp,0x10
  103b7a:	83 ec 0c             	sub    esp,0xc
  103b7d:	8d 83 7f e7 ff ff    	lea    eax,[ebx-0x1881]
  103b83:	50                   	push   eax
  103b84:	e8 cf dd ff ff       	call   101958 <vga_print>
  103b89:	83 c4 10             	add    esp,0x10
  103b8c:	90                   	nop
  103b8d:	8b 5d fc             	mov    ebx,DWORD PTR [ebp-0x4]
  103b90:	c9                   	leave
  103b91:	c3                   	ret

00103b92 <cmd_mem>:
  103b92:	55                   	push   ebp
  103b93:	89 e5                	mov    ebp,esp
  103b95:	53                   	push   ebx
  103b96:	83 ec 14             	sub    esp,0x14
  103b99:	e8 b8 2c 00 00       	call   106856 <__x86.get_pc_thunk.bx>
  103b9e:	81 c3 6a 54 00 00    	add    ebx,0x546a
  103ba4:	e8 0b ee ff ff       	call   1029b4 <pmm_get_total_frames>
  103ba9:	c1 e0 02             	shl    eax,0x2
  103bac:	89 45 f4             	mov    DWORD PTR [ebp-0xc],eax
  103baf:	e8 15 ee ff ff       	call   1029c9 <pmm_get_free_frames>
  103bb4:	c1 e0 02             	shl    eax,0x2
  103bb7:	89 45 f0             	mov    DWORD PTR [ebp-0x10],eax
  103bba:	8b 45 f4             	mov    eax,DWORD PTR [ebp-0xc]
  103bbd:	2b 45 f0             	sub    eax,DWORD PTR [ebp-0x10]
  103bc0:	89 45 ec             	mov    DWORD PTR [ebp-0x14],eax
  103bc3:	83 ec 0c             	sub    esp,0xc
  103bc6:	8d 83 3b e7 ff ff    	lea    eax,[ebx-0x18c5]
  103bcc:	50                   	push   eax
  103bcd:	e8 86 dd ff ff       	call   101958 <vga_print>
  103bd2:	83 c4 10             	add    esp,0x10
  103bd5:	83 ec 08             	sub    esp,0x8
  103bd8:	6a 00                	push   0x0
  103bda:	6a 0b                	push   0xb
  103bdc:	e8 f8 d6 ff ff       	call   1012d9 <vga_set_color>
  103be1:	83 c4 10             	add    esp,0x10
  103be4:	83 ec 0c             	sub    esp,0xc
  103be7:	8d 83 90 e7 ff ff    	lea    eax,[ebx-0x1870]
  103bed:	50                   	push   eax
  103bee:	e8 65 dd ff ff       	call   101958 <vga_print>
  103bf3:	83 c4 10             	add    esp,0x10
  103bf6:	83 ec 08             	sub    esp,0x8
  103bf9:	6a 00                	push   0x0
  103bfb:	6a 0f                	push   0xf
  103bfd:	e8 d7 d6 ff ff       	call   1012d9 <vga_set_color>
  103c02:	83 c4 10             	add    esp,0x10
  103c05:	83 ec 0c             	sub    esp,0xc
  103c08:	8d 83 9a e7 ff ff    	lea    eax,[ebx-0x1866]
  103c0e:	50                   	push   eax
  103c0f:	e8 44 dd ff ff       	call   101958 <vga_print>
  103c14:	83 c4 10             	add    esp,0x10
  103c17:	83 ec 0c             	sub    esp,0xc
  103c1a:	ff 75 f4             	push   DWORD PTR [ebp-0xc]
  103c1d:	e8 52 fc ff ff       	call   103874 <print_uint>
  103c22:	83 c4 10             	add    esp,0x10
  103c25:	83 ec 0c             	sub    esp,0xc
  103c28:	8d 83 a8 e7 ff ff    	lea    eax,[ebx-0x1858]
  103c2e:	50                   	push   eax
  103c2f:	e8 24 dd ff ff       	call   101958 <vga_print>
  103c34:	83 c4 10             	add    esp,0x10
  103c37:	83 ec 0c             	sub    esp,0xc
  103c3a:	8d 83 ad e7 ff ff    	lea    eax,[ebx-0x1853]
  103c40:	50                   	push   eax
  103c41:	e8 12 dd ff ff       	call   101958 <vga_print>
  103c46:	83 c4 10             	add    esp,0x10
  103c49:	83 ec 0c             	sub    esp,0xc
  103c4c:	ff 75 ec             	push   DWORD PTR [ebp-0x14]
  103c4f:	e8 20 fc ff ff       	call   103874 <print_uint>
  103c54:	83 c4 10             	add    esp,0x10
  103c57:	83 ec 0c             	sub    esp,0xc
  103c5a:	8d 83 a8 e7 ff ff    	lea    eax,[ebx-0x1858]
  103c60:	50                   	push   eax
  103c61:	e8 f2 dc ff ff       	call   101958 <vga_print>
  103c66:	83 c4 10             	add    esp,0x10
  103c69:	83 ec 08             	sub    esp,0x8
  103c6c:	6a 00                	push   0x0
  103c6e:	6a 0a                	push   0xa
  103c70:	e8 64 d6 ff ff       	call   1012d9 <vga_set_color>
  103c75:	83 c4 10             	add    esp,0x10
  103c78:	83 ec 0c             	sub    esp,0xc
  103c7b:	8d 83 bb e7 ff ff    	lea    eax,[ebx-0x1845]
  103c81:	50                   	push   eax
  103c82:	e8 d1 dc ff ff       	call   101958 <vga_print>
  103c87:	83 c4 10             	add    esp,0x10
  103c8a:	83 ec 0c             	sub    esp,0xc
  103c8d:	ff 75 f0             	push   DWORD PTR [ebp-0x10]
  103c90:	e8 df fb ff ff       	call   103874 <print_uint>
  103c95:	83 c4 10             	add    esp,0x10
  103c98:	83 ec 0c             	sub    esp,0xc
  103c9b:	8d 83 a8 e7 ff ff    	lea    eax,[ebx-0x1858]
  103ca1:	50                   	push   eax
  103ca2:	e8 b1 dc ff ff       	call   101958 <vga_print>
  103ca7:	83 c4 10             	add    esp,0x10
  103caa:	83 ec 08             	sub    esp,0x8
  103cad:	6a 00                	push   0x0
  103caf:	6a 0f                	push   0xf
  103cb1:	e8 23 d6 ff ff       	call   1012d9 <vga_set_color>
  103cb6:	83 c4 10             	add    esp,0x10
  103cb9:	90                   	nop
  103cba:	8b 5d fc             	mov    ebx,DWORD PTR [ebp-0x4]
  103cbd:	c9                   	leave
  103cbe:	c3                   	ret

00103cbf <cmd_help>:
  103cbf:	55                   	push   ebp
  103cc0:	89 e5                	mov    ebp,esp
  103cc2:	53                   	push   ebx
  103cc3:	83 ec 04             	sub    esp,0x4
  103cc6:	e8 8b 2b 00 00       	call   106856 <__x86.get_pc_thunk.bx>
  103ccb:	81 c3 3d 53 00 00    	add    ebx,0x533d
  103cd1:	83 ec 0c             	sub    esp,0xc
  103cd4:	8d 83 3b e7 ff ff    	lea    eax,[ebx-0x18c5]
  103cda:	50                   	push   eax
  103cdb:	e8 78 dc ff ff       	call   101958 <vga_print>
  103ce0:	83 c4 10             	add    esp,0x10
  103ce3:	83 ec 08             	sub    esp,0x8
  103ce6:	6a 00                	push   0x0
  103ce8:	6a 0b                	push   0xb
  103cea:	e8 ea d5 ff ff       	call   1012d9 <vga_set_color>
  103cef:	83 c4 10             	add    esp,0x10
  103cf2:	83 ec 0c             	sub    esp,0xc
  103cf5:	8d 83 cc e7 ff ff    	lea    eax,[ebx-0x1834]
  103cfb:	50                   	push   eax
  103cfc:	e8 57 dc ff ff       	call   101958 <vga_print>
  103d01:	83 c4 10             	add    esp,0x10
  103d04:	83 ec 08             	sub    esp,0x8
  103d07:	6a 00                	push   0x0
  103d09:	6a 0a                	push   0xa
  103d0b:	e8 c9 d5 ff ff       	call   1012d9 <vga_set_color>
  103d10:	83 c4 10             	add    esp,0x10
  103d13:	83 ec 0c             	sub    esp,0xc
  103d16:	8d 83 f5 e7 ff ff    	lea    eax,[ebx-0x180b]
  103d1c:	50                   	push   eax
  103d1d:	e8 36 dc ff ff       	call   101958 <vga_print>
  103d22:	83 c4 10             	add    esp,0x10
  103d25:	83 ec 08             	sub    esp,0x8
  103d28:	6a 00                	push   0x0
  103d2a:	6a 0f                	push   0xf
  103d2c:	e8 a8 d5 ff ff       	call   1012d9 <vga_set_color>
  103d31:	83 c4 10             	add    esp,0x10
  103d34:	83 ec 0c             	sub    esp,0xc
  103d37:	8d 83 01 e8 ff ff    	lea    eax,[ebx-0x17ff]
  103d3d:	50                   	push   eax
  103d3e:	e8 15 dc ff ff       	call   101958 <vga_print>
  103d43:	83 c4 10             	add    esp,0x10
  103d46:	83 ec 08             	sub    esp,0x8
  103d49:	6a 00                	push   0x0
  103d4b:	6a 0a                	push   0xa
  103d4d:	e8 87 d5 ff ff       	call   1012d9 <vga_set_color>
  103d52:	83 c4 10             	add    esp,0x10
  103d55:	83 ec 0c             	sub    esp,0xc
  103d58:	8d 83 15 e8 ff ff    	lea    eax,[ebx-0x17eb]
  103d5e:	50                   	push   eax
  103d5f:	e8 f4 db ff ff       	call   101958 <vga_print>
  103d64:	83 c4 10             	add    esp,0x10
  103d67:	83 ec 08             	sub    esp,0x8
  103d6a:	6a 00                	push   0x0
  103d6c:	6a 0f                	push   0xf
  103d6e:	e8 66 d5 ff ff       	call   1012d9 <vga_set_color>
  103d73:	83 c4 10             	add    esp,0x10
  103d76:	83 ec 0c             	sub    esp,0xc
  103d79:	8d 83 21 e8 ff ff    	lea    eax,[ebx-0x17df]
  103d7f:	50                   	push   eax
  103d80:	e8 d3 db ff ff       	call   101958 <vga_print>
  103d85:	83 c4 10             	add    esp,0x10
  103d88:	83 ec 08             	sub    esp,0x8
  103d8b:	6a 00                	push   0x0
  103d8d:	6a 0a                	push   0xa
  103d8f:	e8 45 d5 ff ff       	call   1012d9 <vga_set_color>
  103d94:	83 c4 10             	add    esp,0x10
  103d97:	83 ec 0c             	sub    esp,0xc
  103d9a:	8d 83 2f e8 ff ff    	lea    eax,[ebx-0x17d1]
  103da0:	50                   	push   eax
  103da1:	e8 b2 db ff ff       	call   101958 <vga_print>
  103da6:	83 c4 10             	add    esp,0x10
  103da9:	83 ec 08             	sub    esp,0x8
  103dac:	6a 00                	push   0x0
  103dae:	6a 0f                	push   0xf
  103db0:	e8 24 d5 ff ff       	call   1012d9 <vga_set_color>
  103db5:	83 c4 10             	add    esp,0x10
  103db8:	83 ec 0c             	sub    esp,0xc
  103dbb:	8d 83 3b e8 ff ff    	lea    eax,[ebx-0x17c5]
  103dc1:	50                   	push   eax
  103dc2:	e8 91 db ff ff       	call   101958 <vga_print>
  103dc7:	83 c4 10             	add    esp,0x10
  103dca:	83 ec 08             	sub    esp,0x8
  103dcd:	6a 00                	push   0x0
  103dcf:	6a 0a                	push   0xa
  103dd1:	e8 03 d5 ff ff       	call   1012d9 <vga_set_color>
  103dd6:	83 c4 10             	add    esp,0x10
  103dd9:	83 ec 0c             	sub    esp,0xc
  103ddc:	8d 83 4c e8 ff ff    	lea    eax,[ebx-0x17b4]
  103de2:	50                   	push   eax
  103de3:	e8 70 db ff ff       	call   101958 <vga_print>
  103de8:	83 c4 10             	add    esp,0x10
  103deb:	83 ec 08             	sub    esp,0x8
  103dee:	6a 00                	push   0x0
  103df0:	6a 0f                	push   0xf
  103df2:	e8 e2 d4 ff ff       	call   1012d9 <vga_set_color>
  103df7:	83 c4 10             	add    esp,0x10
  103dfa:	83 ec 0c             	sub    esp,0xc
  103dfd:	8d 83 58 e8 ff ff    	lea    eax,[ebx-0x17a8]
  103e03:	50                   	push   eax
  103e04:	e8 4f db ff ff       	call   101958 <vga_print>
  103e09:	83 c4 10             	add    esp,0x10
  103e0c:	83 ec 08             	sub    esp,0x8
  103e0f:	6a 00                	push   0x0
  103e11:	6a 0a                	push   0xa
  103e13:	e8 c1 d4 ff ff       	call   1012d9 <vga_set_color>
  103e18:	83 c4 10             	add    esp,0x10
  103e1b:	83 ec 0c             	sub    esp,0xc
  103e1e:	8d 83 6f e8 ff ff    	lea    eax,[ebx-0x1791]
  103e24:	50                   	push   eax
  103e25:	e8 2e db ff ff       	call   101958 <vga_print>
  103e2a:	83 c4 10             	add    esp,0x10
  103e2d:	83 ec 08             	sub    esp,0x8
  103e30:	6a 00                	push   0x0
  103e32:	6a 0f                	push   0xf
  103e34:	e8 a0 d4 ff ff       	call   1012d9 <vga_set_color>
  103e39:	83 c4 10             	add    esp,0x10
  103e3c:	83 ec 0c             	sub    esp,0xc
  103e3f:	8d 83 7b e8 ff ff    	lea    eax,[ebx-0x1785]
  103e45:	50                   	push   eax
  103e46:	e8 0d db ff ff       	call   101958 <vga_print>
  103e4b:	83 c4 10             	add    esp,0x10
  103e4e:	83 ec 08             	sub    esp,0x8
  103e51:	6a 00                	push   0x0
  103e53:	6a 0a                	push   0xa
  103e55:	e8 7f d4 ff ff       	call   1012d9 <vga_set_color>
  103e5a:	83 c4 10             	add    esp,0x10
  103e5d:	83 ec 0c             	sub    esp,0xc
  103e60:	8d 83 91 e8 ff ff    	lea    eax,[ebx-0x176f]
  103e66:	50                   	push   eax
  103e67:	e8 ec da ff ff       	call   101958 <vga_print>
  103e6c:	83 c4 10             	add    esp,0x10
  103e6f:	83 ec 08             	sub    esp,0x8
  103e72:	6a 00                	push   0x0
  103e74:	6a 0f                	push   0xf
  103e76:	e8 5e d4 ff ff       	call   1012d9 <vga_set_color>
  103e7b:	83 c4 10             	add    esp,0x10
  103e7e:	83 ec 0c             	sub    esp,0xc
  103e81:	8d 83 9d e8 ff ff    	lea    eax,[ebx-0x1763]
  103e87:	50                   	push   eax
  103e88:	e8 cb da ff ff       	call   101958 <vga_print>
  103e8d:	83 c4 10             	add    esp,0x10
  103e90:	83 ec 08             	sub    esp,0x8
  103e93:	6a 00                	push   0x0
  103e95:	6a 0a                	push   0xa
  103e97:	e8 3d d4 ff ff       	call   1012d9 <vga_set_color>
  103e9c:	83 c4 10             	add    esp,0x10
  103e9f:	83 ec 0c             	sub    esp,0xc
  103ea2:	8d 83 b6 e8 ff ff    	lea    eax,[ebx-0x174a]
  103ea8:	50                   	push   eax
  103ea9:	e8 aa da ff ff       	call   101958 <vga_print>
  103eae:	83 c4 10             	add    esp,0x10
  103eb1:	83 ec 08             	sub    esp,0x8
  103eb4:	6a 00                	push   0x0
  103eb6:	6a 0f                	push   0xf
  103eb8:	e8 1c d4 ff ff       	call   1012d9 <vga_set_color>
  103ebd:	83 c4 10             	add    esp,0x10
  103ec0:	83 ec 0c             	sub    esp,0xc
  103ec3:	8d 83 c2 e8 ff ff    	lea    eax,[ebx-0x173e]
  103ec9:	50                   	push   eax
  103eca:	e8 89 da ff ff       	call   101958 <vga_print>
  103ecf:	83 c4 10             	add    esp,0x10
  103ed2:	83 ec 08             	sub    esp,0x8
  103ed5:	6a 00                	push   0x0
  103ed7:	6a 0a                	push   0xa
  103ed9:	e8 fb d3 ff ff       	call   1012d9 <vga_set_color>
  103ede:	83 c4 10             	add    esp,0x10
  103ee1:	83 ec 0c             	sub    esp,0xc
  103ee4:	8d 83 d7 e8 ff ff    	lea    eax,[ebx-0x1729]
  103eea:	50                   	push   eax
  103eeb:	e8 68 da ff ff       	call   101958 <vga_print>
  103ef0:	83 c4 10             	add    esp,0x10
  103ef3:	83 ec 08             	sub    esp,0x8
  103ef6:	6a 00                	push   0x0
  103ef8:	6a 0f                	push   0xf
  103efa:	e8 da d3 ff ff       	call   1012d9 <vga_set_color>
  103eff:	83 c4 10             	add    esp,0x10
  103f02:	83 ec 0c             	sub    esp,0xc
  103f05:	8d 83 e3 e8 ff ff    	lea    eax,[ebx-0x171d]
  103f0b:	50                   	push   eax
  103f0c:	e8 47 da ff ff       	call   101958 <vga_print>
  103f11:	83 c4 10             	add    esp,0x10
  103f14:	83 ec 08             	sub    esp,0x8
  103f17:	6a 00                	push   0x0
  103f19:	6a 0a                	push   0xa
  103f1b:	e8 b9 d3 ff ff       	call   1012d9 <vga_set_color>
  103f20:	83 c4 10             	add    esp,0x10
  103f23:	83 ec 0c             	sub    esp,0xc
  103f26:	8d 83 f8 e8 ff ff    	lea    eax,[ebx-0x1708]
  103f2c:	50                   	push   eax
  103f2d:	e8 26 da ff ff       	call   101958 <vga_print>
  103f32:	83 c4 10             	add    esp,0x10
  103f35:	83 ec 08             	sub    esp,0x8
  103f38:	6a 00                	push   0x0
  103f3a:	6a 0f                	push   0xf
  103f3c:	e8 98 d3 ff ff       	call   1012d9 <vga_set_color>
  103f41:	83 c4 10             	add    esp,0x10
  103f44:	83 ec 0c             	sub    esp,0xc
  103f47:	8d 83 04 e9 ff ff    	lea    eax,[ebx-0x16fc]
  103f4d:	50                   	push   eax
  103f4e:	e8 05 da ff ff       	call   101958 <vga_print>
  103f53:	83 c4 10             	add    esp,0x10
  103f56:	83 ec 08             	sub    esp,0x8
  103f59:	6a 00                	push   0x0
  103f5b:	6a 0a                	push   0xa
  103f5d:	e8 77 d3 ff ff       	call   1012d9 <vga_set_color>
  103f62:	83 c4 10             	add    esp,0x10
  103f65:	83 ec 0c             	sub    esp,0xc
  103f68:	8d 83 19 e9 ff ff    	lea    eax,[ebx-0x16e7]
  103f6e:	50                   	push   eax
  103f6f:	e8 e4 d9 ff ff       	call   101958 <vga_print>
  103f74:	83 c4 10             	add    esp,0x10
  103f77:	83 ec 08             	sub    esp,0x8
  103f7a:	6a 00                	push   0x0
  103f7c:	6a 0f                	push   0xf
  103f7e:	e8 56 d3 ff ff       	call   1012d9 <vga_set_color>
  103f83:	83 c4 10             	add    esp,0x10
  103f86:	83 ec 0c             	sub    esp,0xc
  103f89:	8d 83 28 e9 ff ff    	lea    eax,[ebx-0x16d8]
  103f8f:	50                   	push   eax
  103f90:	e8 c3 d9 ff ff       	call   101958 <vga_print>
  103f95:	83 c4 10             	add    esp,0x10
  103f98:	83 ec 08             	sub    esp,0x8
  103f9b:	6a 00                	push   0x0
  103f9d:	6a 0a                	push   0xa
  103f9f:	e8 35 d3 ff ff       	call   1012d9 <vga_set_color>
  103fa4:	83 c4 10             	add    esp,0x10
  103fa7:	83 ec 0c             	sub    esp,0xc
  103faa:	8d 83 48 e9 ff ff    	lea    eax,[ebx-0x16b8]
  103fb0:	50                   	push   eax
  103fb1:	e8 a2 d9 ff ff       	call   101958 <vga_print>
  103fb6:	83 c4 10             	add    esp,0x10
  103fb9:	83 ec 08             	sub    esp,0x8
  103fbc:	6a 00                	push   0x0
  103fbe:	6a 0f                	push   0xf
  103fc0:	e8 14 d3 ff ff       	call   1012d9 <vga_set_color>
  103fc5:	83 c4 10             	add    esp,0x10
  103fc8:	83 ec 0c             	sub    esp,0xc
  103fcb:	8d 83 54 e9 ff ff    	lea    eax,[ebx-0x16ac]
  103fd1:	50                   	push   eax
  103fd2:	e8 81 d9 ff ff       	call   101958 <vga_print>
  103fd7:	83 c4 10             	add    esp,0x10
  103fda:	83 ec 08             	sub    esp,0x8
  103fdd:	6a 00                	push   0x0
  103fdf:	6a 0a                	push   0xa
  103fe1:	e8 f3 d2 ff ff       	call   1012d9 <vga_set_color>
  103fe6:	83 c4 10             	add    esp,0x10
  103fe9:	83 ec 0c             	sub    esp,0xc
  103fec:	8d 83 66 e9 ff ff    	lea    eax,[ebx-0x169a]
  103ff2:	50                   	push   eax
  103ff3:	e8 60 d9 ff ff       	call   101958 <vga_print>
  103ff8:	83 c4 10             	add    esp,0x10
  103ffb:	83 ec 08             	sub    esp,0x8
  103ffe:	6a 00                	push   0x0
  104000:	6a 0f                	push   0xf
  104002:	e8 d2 d2 ff ff       	call   1012d9 <vga_set_color>
  104007:	83 c4 10             	add    esp,0x10
  10400a:	83 ec 0c             	sub    esp,0xc
  10400d:	8d 83 72 e9 ff ff    	lea    eax,[ebx-0x168e]
  104013:	50                   	push   eax
  104014:	e8 3f d9 ff ff       	call   101958 <vga_print>
  104019:	83 c4 10             	add    esp,0x10
  10401c:	90                   	nop
  10401d:	8b 5d fc             	mov    ebx,DWORD PTR [ebp-0x4]
  104020:	c9                   	leave
  104021:	c3                   	ret

00104022 <cmd_echo>:
  104022:	55                   	push   ebp
  104023:	89 e5                	mov    ebp,esp
  104025:	53                   	push   ebx
  104026:	83 ec 04             	sub    esp,0x4
  104029:	e8 28 28 00 00       	call   106856 <__x86.get_pc_thunk.bx>
  10402e:	81 c3 da 4f 00 00    	add    ebx,0x4fda
  104034:	83 ec 0c             	sub    esp,0xc
  104037:	8d 83 7d e9 ff ff    	lea    eax,[ebx-0x1683]
  10403d:	50                   	push   eax
  10403e:	e8 15 d9 ff ff       	call   101958 <vga_print>
  104043:	83 c4 10             	add    esp,0x10
  104046:	8b 45 08             	mov    eax,DWORD PTR [ebp+0x8]
  104049:	0f b6 00             	movzx  eax,BYTE PTR [eax]
  10404c:	84 c0                	test   al,al
  10404e:	74 0e                	je     10405e <cmd_echo+0x3c>
  104050:	83 ec 0c             	sub    esp,0xc
  104053:	ff 75 08             	push   DWORD PTR [ebp+0x8]
  104056:	e8 fd d8 ff ff       	call   101958 <vga_print>
  10405b:	83 c4 10             	add    esp,0x10
  10405e:	83 ec 0c             	sub    esp,0xc
  104061:	8d 83 3b e7 ff ff    	lea    eax,[ebx-0x18c5]
  104067:	50                   	push   eax
  104068:	e8 eb d8 ff ff       	call   101958 <vga_print>
  10406d:	83 c4 10             	add    esp,0x10
  104070:	90                   	nop
  104071:	8b 5d fc             	mov    ebx,DWORD PTR [ebp-0x4]
  104074:	c9                   	leave
  104075:	c3                   	ret

00104076 <cmd_disk>:
  104076:	55                   	push   ebp
  104077:	89 e5                	mov    ebp,esp
  104079:	53                   	push   ebx
  10407a:	83 ec 24             	sub    esp,0x24
  10407d:	e8 d4 27 00 00       	call   106856 <__x86.get_pc_thunk.bx>
  104082:	81 c3 86 4f 00 00    	add    ebx,0x4f86
  104088:	c7 c0 60 6f 12 00    	mov    eax,0x126f60
  10408e:	0f b6 00             	movzx  eax,BYTE PTR [eax]
  104091:	84 c0                	test   al,al
  104093:	75 35                	jne    1040ca <cmd_disk+0x54>
  104095:	83 ec 08             	sub    esp,0x8
  104098:	6a 00                	push   0x0
  10409a:	6a 0c                	push   0xc
  10409c:	e8 38 d2 ff ff       	call   1012d9 <vga_set_color>
  1040a1:	83 c4 10             	add    esp,0x10
  1040a4:	83 ec 0c             	sub    esp,0xc
  1040a7:	8d 83 81 e9 ff ff    	lea    eax,[ebx-0x167f]
  1040ad:	50                   	push   eax
  1040ae:	e8 a5 d8 ff ff       	call   101958 <vga_print>
  1040b3:	83 c4 10             	add    esp,0x10
  1040b6:	83 ec 08             	sub    esp,0x8
  1040b9:	6a 00                	push   0x0
  1040bb:	6a 0f                	push   0xf
  1040bd:	e8 17 d2 ff ff       	call   1012d9 <vga_set_color>
  1040c2:	83 c4 10             	add    esp,0x10
  1040c5:	e9 39 01 00 00       	jmp    104203 <cmd_disk+0x18d>
  1040ca:	83 ec 0c             	sub    esp,0xc
  1040cd:	8d 83 3b e7 ff ff    	lea    eax,[ebx-0x18c5]
  1040d3:	50                   	push   eax
  1040d4:	e8 7f d8 ff ff       	call   101958 <vga_print>
  1040d9:	83 c4 10             	add    esp,0x10
  1040dc:	83 ec 08             	sub    esp,0x8
  1040df:	6a 00                	push   0x0
  1040e1:	6a 0b                	push   0xb
  1040e3:	e8 f1 d1 ff ff       	call   1012d9 <vga_set_color>
  1040e8:	83 c4 10             	add    esp,0x10
  1040eb:	83 ec 0c             	sub    esp,0xc
  1040ee:	8d 83 97 e9 ff ff    	lea    eax,[ebx-0x1669]
  1040f4:	50                   	push   eax
  1040f5:	e8 5e d8 ff ff       	call   101958 <vga_print>
  1040fa:	83 c4 10             	add    esp,0x10
  1040fd:	83 ec 08             	sub    esp,0x8
  104100:	6a 00                	push   0x0
  104102:	6a 0f                	push   0xf
  104104:	e8 d0 d1 ff ff       	call   1012d9 <vga_set_color>
  104109:	83 c4 10             	add    esp,0x10
  10410c:	83 ec 0c             	sub    esp,0xc
  10410f:	8d 83 9f e9 ff ff    	lea    eax,[ebx-0x1661]
  104115:	50                   	push   eax
  104116:	e8 3d d8 ff ff       	call   101958 <vga_print>
  10411b:	83 c4 10             	add    esp,0x10
  10411e:	c7 c0 60 6f 12 00    	mov    eax,0x126f60
  104124:	0f b6 40 08          	movzx  eax,BYTE PTR [eax+0x8]
  104128:	84 c0                	test   al,al
  10412a:	74 0b                	je     104137 <cmd_disk+0xc1>
  10412c:	c7 c0 60 6f 12 00    	mov    eax,0x126f60
  104132:	8d 40 08             	lea    eax,[eax+0x8]
  104135:	eb 06                	jmp    10413d <cmd_disk+0xc7>
  104137:	8d 83 ae e9 ff ff    	lea    eax,[ebx-0x1652]
  10413d:	83 ec 0c             	sub    esp,0xc
  104140:	50                   	push   eax
  104141:	e8 12 d8 ff ff       	call   101958 <vga_print>
  104146:	83 c4 10             	add    esp,0x10
  104149:	83 ec 0c             	sub    esp,0xc
  10414c:	8d 83 b8 e9 ff ff    	lea    eax,[ebx-0x1648]
  104152:	50                   	push   eax
  104153:	e8 00 d8 ff ff       	call   101958 <vga_print>
  104158:	83 c4 10             	add    esp,0x10
  10415b:	c6 45 ef 00          	mov    BYTE PTR [ebp-0x11],0x0
  10415f:	c7 45 f4 0a 00 00 00 	mov    DWORD PTR [ebp-0xc],0xa
  104166:	c7 c0 60 6f 12 00    	mov    eax,0x126f60
  10416c:	8b 40 04             	mov    eax,DWORD PTR [eax+0x4]
  10416f:	89 45 f0             	mov    DWORD PTR [ebp-0x10],eax
  104172:	83 7d f0 00          	cmp    DWORD PTR [ebp-0x10],0x0
  104176:	75 56                	jne    1041ce <cmd_disk+0x158>
  104178:	83 ec 0c             	sub    esp,0xc
  10417b:	8d 83 24 e7 ff ff    	lea    eax,[ebx-0x18dc]
  104181:	50                   	push   eax
  104182:	e8 d1 d7 ff ff       	call   101958 <vga_print>
  104187:	83 c4 10             	add    esp,0x10
  10418a:	eb 65                	jmp    1041f1 <cmd_disk+0x17b>
  10418c:	8b 4d f0             	mov    ecx,DWORD PTR [ebp-0x10]
  10418f:	ba cd cc cc cc       	mov    edx,0xcccccccd
  104194:	89 c8                	mov    eax,ecx
  104196:	f7 e2                	mul    edx
  104198:	c1 ea 03             	shr    edx,0x3
  10419b:	89 d0                	mov    eax,edx
  10419d:	c1 e0 02             	shl    eax,0x2
  1041a0:	01 d0                	add    eax,edx
  1041a2:	01 c0                	add    eax,eax
  1041a4:	29 c1                	sub    ecx,eax
  1041a6:	89 ca                	mov    edx,ecx
  1041a8:	89 d0                	mov    eax,edx
  1041aa:	8d 48 30             	lea    ecx,[eax+0x30]
  1041ad:	8b 45 f4             	mov    eax,DWORD PTR [ebp-0xc]
  1041b0:	8d 50 ff             	lea    edx,[eax-0x1]
  1041b3:	89 55 f4             	mov    DWORD PTR [ebp-0xc],edx
  1041b6:	89 ca                	mov    edx,ecx
  1041b8:	88 54 05 e4          	mov    BYTE PTR [ebp+eax*1-0x1c],dl
  1041bc:	8b 45 f0             	mov    eax,DWORD PTR [ebp-0x10]
  1041bf:	ba cd cc cc cc       	mov    edx,0xcccccccd
  1041c4:	f7 e2                	mul    edx
  1041c6:	89 d0                	mov    eax,edx
  1041c8:	c1 e8 03             	shr    eax,0x3
  1041cb:	89 45 f0             	mov    DWORD PTR [ebp-0x10],eax
  1041ce:	83 7d f0 00          	cmp    DWORD PTR [ebp-0x10],0x0
  1041d2:	74 06                	je     1041da <cmd_disk+0x164>
  1041d4:	83 7d f4 00          	cmp    DWORD PTR [ebp-0xc],0x0
  1041d8:	79 b2                	jns    10418c <cmd_disk+0x116>
  1041da:	8b 45 f4             	mov    eax,DWORD PTR [ebp-0xc]
  1041dd:	8d 50 01             	lea    edx,[eax+0x1]
  1041e0:	8d 45 e4             	lea    eax,[ebp-0x1c]
  1041e3:	01 d0                	add    eax,edx
  1041e5:	83 ec 0c             	sub    esp,0xc
  1041e8:	50                   	push   eax
  1041e9:	e8 6a d7 ff ff       	call   101958 <vga_print>
  1041ee:	83 c4 10             	add    esp,0x10
  1041f1:	83 ec 0c             	sub    esp,0xc
  1041f4:	8d 83 3b e7 ff ff    	lea    eax,[ebx-0x18c5]
  1041fa:	50                   	push   eax
  1041fb:	e8 58 d7 ff ff       	call   101958 <vga_print>
  104200:	83 c4 10             	add    esp,0x10
  104203:	8b 5d fc             	mov    ebx,DWORD PTR [ebp-0x4]
  104206:	c9                   	leave
  104207:	c3                   	ret

00104208 <cmd_diskread>:
  104208:	55                   	push   ebp
  104209:	89 e5                	mov    ebp,esp
  10420b:	53                   	push   ebx
  10420c:	81 ec 44 02 00 00    	sub    esp,0x244
  104212:	e8 3f 26 00 00       	call   106856 <__x86.get_pc_thunk.bx>
  104217:	81 c3 f1 4d 00 00    	add    ebx,0x4df1
  10421d:	c7 45 f4 00 00 00 00 	mov    DWORD PTR [ebp-0xc],0x0
  104224:	eb 23                	jmp    104249 <cmd_diskread+0x41>
  104226:	8b 55 f4             	mov    edx,DWORD PTR [ebp-0xc]
  104229:	89 d0                	mov    eax,edx
  10422b:	c1 e0 02             	shl    eax,0x2
  10422e:	01 d0                	add    eax,edx
  104230:	01 c0                	add    eax,eax
  104232:	89 c2                	mov    edx,eax
  104234:	8b 45 08             	mov    eax,DWORD PTR [ebp+0x8]
  104237:	0f b6 00             	movzx  eax,BYTE PTR [eax]
  10423a:	0f be c0             	movsx  eax,al
  10423d:	01 d0                	add    eax,edx
  10423f:	83 e8 30             	sub    eax,0x30
  104242:	89 45 f4             	mov    DWORD PTR [ebp-0xc],eax
  104245:	83 45 08 01          	add    DWORD PTR [ebp+0x8],0x1
  104249:	8b 45 08             	mov    eax,DWORD PTR [ebp+0x8]
  10424c:	0f b6 00             	movzx  eax,BYTE PTR [eax]
  10424f:	3c 2f                	cmp    al,0x2f
  104251:	7e 0a                	jle    10425d <cmd_diskread+0x55>
  104253:	8b 45 08             	mov    eax,DWORD PTR [ebp+0x8]
  104256:	0f b6 00             	movzx  eax,BYTE PTR [eax]
  104259:	3c 39                	cmp    al,0x39
  10425b:	7e c9                	jle    104226 <cmd_diskread+0x1e>
  10425d:	c7 c0 60 6f 12 00    	mov    eax,0x126f60
  104263:	0f b6 00             	movzx  eax,BYTE PTR [eax]
  104266:	84 c0                	test   al,al
  104268:	0f 84 fb 00 00 00    	je     104369 <cmd_diskread+0x161>
  10426e:	c7 c0 60 6f 12 00    	mov    eax,0x126f60
  104274:	8b 40 04             	mov    eax,DWORD PTR [eax+0x4]
  104277:	39 45 f4             	cmp    DWORD PTR [ebp-0xc],eax
  10427a:	0f 82 e9 00 00 00    	jb     104369 <cmd_diskread+0x161>
  104280:	83 ec 08             	sub    esp,0x8
  104283:	6a 00                	push   0x0
  104285:	6a 0c                	push   0xc
  104287:	e8 4d d0 ff ff       	call   1012d9 <vga_set_color>
  10428c:	83 c4 10             	add    esp,0x10
  10428f:	83 ec 0c             	sub    esp,0xc
  104292:	8d 83 c8 e9 ff ff    	lea    eax,[ebx-0x1638]
  104298:	50                   	push   eax
  104299:	e8 ba d6 ff ff       	call   101958 <vga_print>
  10429e:	83 c4 10             	add    esp,0x10
  1042a1:	c6 85 d2 fd ff ff 00 	mov    BYTE PTR [ebp-0x22e],0x0
  1042a8:	c7 45 f0 0a 00 00 00 	mov    DWORD PTR [ebp-0x10],0xa
  1042af:	c7 c0 60 6f 12 00    	mov    eax,0x126f60
  1042b5:	8b 40 04             	mov    eax,DWORD PTR [eax+0x4]
  1042b8:	83 e8 01             	sub    eax,0x1
  1042bb:	89 45 ec             	mov    DWORD PTR [ebp-0x14],eax
  1042be:	83 7d ec 00          	cmp    DWORD PTR [ebp-0x14],0x0
  1042c2:	75 59                	jne    10431d <cmd_diskread+0x115>
  1042c4:	83 ec 0c             	sub    esp,0xc
  1042c7:	8d 83 24 e7 ff ff    	lea    eax,[ebx-0x18dc]
  1042cd:	50                   	push   eax
  1042ce:	e8 85 d6 ff ff       	call   101958 <vga_print>
  1042d3:	83 c4 10             	add    esp,0x10
  1042d6:	eb 6b                	jmp    104343 <cmd_diskread+0x13b>
  1042d8:	8b 4d ec             	mov    ecx,DWORD PTR [ebp-0x14]
  1042db:	ba cd cc cc cc       	mov    edx,0xcccccccd
  1042e0:	89 c8                	mov    eax,ecx
  1042e2:	f7 e2                	mul    edx
  1042e4:	c1 ea 03             	shr    edx,0x3
  1042e7:	89 d0                	mov    eax,edx
  1042e9:	c1 e0 02             	shl    eax,0x2
  1042ec:	01 d0                	add    eax,edx
  1042ee:	01 c0                	add    eax,eax
  1042f0:	29 c1                	sub    ecx,eax
  1042f2:	89 ca                	mov    edx,ecx
  1042f4:	89 d0                	mov    eax,edx
  1042f6:	8d 48 30             	lea    ecx,[eax+0x30]
  1042f9:	8b 45 f0             	mov    eax,DWORD PTR [ebp-0x10]
  1042fc:	8d 50 ff             	lea    edx,[eax-0x1]
  1042ff:	89 55 f0             	mov    DWORD PTR [ebp-0x10],edx
  104302:	89 ca                	mov    edx,ecx
  104304:	88 94 05 c7 fd ff ff 	mov    BYTE PTR [ebp+eax*1-0x239],dl
  10430b:	8b 45 ec             	mov    eax,DWORD PTR [ebp-0x14]
  10430e:	ba cd cc cc cc       	mov    edx,0xcccccccd
  104313:	f7 e2                	mul    edx
  104315:	89 d0                	mov    eax,edx
  104317:	c1 e8 03             	shr    eax,0x3
  10431a:	89 45 ec             	mov    DWORD PTR [ebp-0x14],eax
  10431d:	83 7d ec 00          	cmp    DWORD PTR [ebp-0x14],0x0
  104321:	74 06                	je     104329 <cmd_diskread+0x121>
  104323:	83 7d f0 00          	cmp    DWORD PTR [ebp-0x10],0x0
  104327:	79 af                	jns    1042d8 <cmd_diskread+0xd0>
  104329:	8b 45 f0             	mov    eax,DWORD PTR [ebp-0x10]
  10432c:	8d 50 01             	lea    edx,[eax+0x1]
  10432f:	8d 85 c7 fd ff ff    	lea    eax,[ebp-0x239]
  104335:	01 d0                	add    eax,edx
  104337:	83 ec 0c             	sub    esp,0xc
  10433a:	50                   	push   eax
  10433b:	e8 18 d6 ff ff       	call   101958 <vga_print>
  104340:	83 c4 10             	add    esp,0x10
  104343:	83 ec 0c             	sub    esp,0xc
  104346:	8d 83 3b e7 ff ff    	lea    eax,[ebx-0x18c5]
  10434c:	50                   	push   eax
  10434d:	e8 06 d6 ff ff       	call   101958 <vga_print>
  104352:	83 c4 10             	add    esp,0x10
  104355:	83 ec 08             	sub    esp,0x8
  104358:	6a 00                	push   0x0
  10435a:	6a 0f                	push   0xf
  10435c:	e8 78 cf ff ff       	call   1012d9 <vga_set_color>
  104361:	83 c4 10             	add    esp,0x10
  104364:	e9 bf 01 00 00       	jmp    104528 <cmd_diskread+0x320>
  104369:	83 ec 08             	sub    esp,0x8
  10436c:	8d 85 df fd ff ff    	lea    eax,[ebp-0x221]
  104372:	50                   	push   eax
  104373:	ff 75 f4             	push   DWORD PTR [ebp-0xc]
  104376:	e8 c6 16 00 00       	call   105a41 <ata_read_sector>
  10437b:	83 c4 10             	add    esp,0x10
  10437e:	85 c0                	test   eax,eax
  104380:	74 35                	je     1043b7 <cmd_diskread+0x1af>
  104382:	83 ec 08             	sub    esp,0x8
  104385:	6a 00                	push   0x0
  104387:	6a 0c                	push   0xc
  104389:	e8 4b cf ff ff       	call   1012d9 <vga_set_color>
  10438e:	83 c4 10             	add    esp,0x10
  104391:	83 ec 0c             	sub    esp,0xc
  104394:	8d 83 e6 e9 ff ff    	lea    eax,[ebx-0x161a]
  10439a:	50                   	push   eax
  10439b:	e8 b8 d5 ff ff       	call   101958 <vga_print>
  1043a0:	83 c4 10             	add    esp,0x10
  1043a3:	83 ec 08             	sub    esp,0x8
  1043a6:	6a 00                	push   0x0
  1043a8:	6a 0f                	push   0xf
  1043aa:	e8 2a cf ff ff       	call   1012d9 <vga_set_color>
  1043af:	83 c4 10             	add    esp,0x10
  1043b2:	e9 71 01 00 00       	jmp    104528 <cmd_diskread+0x320>
  1043b7:	83 ec 0c             	sub    esp,0xc
  1043ba:	8d 83 f7 e9 ff ff    	lea    eax,[ebx-0x1609]
  1043c0:	50                   	push   eax
  1043c1:	e8 92 d5 ff ff       	call   101958 <vga_print>
  1043c6:	83 c4 10             	add    esp,0x10
  1043c9:	c6 85 de fd ff ff 00 	mov    BYTE PTR [ebp-0x222],0x0
  1043d0:	c7 45 e8 0a 00 00 00 	mov    DWORD PTR [ebp-0x18],0xa
  1043d7:	8b 45 f4             	mov    eax,DWORD PTR [ebp-0xc]
  1043da:	89 45 e4             	mov    DWORD PTR [ebp-0x1c],eax
  1043dd:	83 7d e4 00          	cmp    DWORD PTR [ebp-0x1c],0x0
  1043e1:	75 59                	jne    10443c <cmd_diskread+0x234>
  1043e3:	83 ec 0c             	sub    esp,0xc
  1043e6:	8d 83 24 e7 ff ff    	lea    eax,[ebx-0x18dc]
  1043ec:	50                   	push   eax
  1043ed:	e8 66 d5 ff ff       	call   101958 <vga_print>
  1043f2:	83 c4 10             	add    esp,0x10
  1043f5:	eb 6b                	jmp    104462 <cmd_diskread+0x25a>
  1043f7:	8b 4d e4             	mov    ecx,DWORD PTR [ebp-0x1c]
  1043fa:	ba cd cc cc cc       	mov    edx,0xcccccccd
  1043ff:	89 c8                	mov    eax,ecx
  104401:	f7 e2                	mul    edx
  104403:	c1 ea 03             	shr    edx,0x3
  104406:	89 d0                	mov    eax,edx
  104408:	c1 e0 02             	shl    eax,0x2
  10440b:	01 d0                	add    eax,edx
  10440d:	01 c0                	add    eax,eax
  10440f:	29 c1                	sub    ecx,eax
  104411:	89 ca                	mov    edx,ecx
  104413:	89 d0                	mov    eax,edx
  104415:	8d 48 30             	lea    ecx,[eax+0x30]
  104418:	8b 45 e8             	mov    eax,DWORD PTR [ebp-0x18]
  10441b:	8d 50 ff             	lea    edx,[eax-0x1]
  10441e:	89 55 e8             	mov    DWORD PTR [ebp-0x18],edx
  104421:	89 ca                	mov    edx,ecx
  104423:	88 94 05 d3 fd ff ff 	mov    BYTE PTR [ebp+eax*1-0x22d],dl
  10442a:	8b 45 e4             	mov    eax,DWORD PTR [ebp-0x1c]
  10442d:	ba cd cc cc cc       	mov    edx,0xcccccccd
  104432:	f7 e2                	mul    edx
  104434:	89 d0                	mov    eax,edx
  104436:	c1 e8 03             	shr    eax,0x3
  104439:	89 45 e4             	mov    DWORD PTR [ebp-0x1c],eax
  10443c:	83 7d e4 00          	cmp    DWORD PTR [ebp-0x1c],0x0
  104440:	74 06                	je     104448 <cmd_diskread+0x240>
  104442:	83 7d e8 00          	cmp    DWORD PTR [ebp-0x18],0x0
  104446:	79 af                	jns    1043f7 <cmd_diskread+0x1ef>
  104448:	8b 45 e8             	mov    eax,DWORD PTR [ebp-0x18]
  10444b:	8d 50 01             	lea    edx,[eax+0x1]
  10444e:	8d 85 d3 fd ff ff    	lea    eax,[ebp-0x22d]
  104454:	01 d0                	add    eax,edx
  104456:	83 ec 0c             	sub    esp,0xc
  104459:	50                   	push   eax
  10445a:	e8 f9 d4 ff ff       	call   101958 <vga_print>
  10445f:	83 c4 10             	add    esp,0x10
  104462:	83 ec 0c             	sub    esp,0xc
  104465:	8d 83 02 ea ff ff    	lea    eax,[ebx-0x15fe]
  10446b:	50                   	push   eax
  10446c:	e8 e7 d4 ff ff       	call   101958 <vga_print>
  104471:	83 c4 10             	add    esp,0x10
  104474:	c7 45 e0 00 00 00 00 	mov    DWORD PTR [ebp-0x20],0x0
  10447b:	e9 8c 00 00 00       	jmp    10450c <cmd_diskread+0x304>
  104480:	8d 95 df fd ff ff    	lea    edx,[ebp-0x221]
  104486:	8b 45 e0             	mov    eax,DWORD PTR [ebp-0x20]
  104489:	01 d0                	add    eax,edx
  10448b:	0f b6 00             	movzx  eax,BYTE PTR [eax]
  10448e:	88 45 df             	mov    BYTE PTR [ebp-0x21],al
  104491:	c6 85 c6 fd ff ff 00 	mov    BYTE PTR [ebp-0x23a],0x0
  104498:	0f b6 45 df          	movzx  eax,BYTE PTR [ebp-0x21]
  10449c:	c0 e8 04             	shr    al,0x4
  10449f:	0f b6 c0             	movzx  eax,al
  1044a2:	0f b6 84 03 1a ea ff 	movzx  eax,BYTE PTR [ebx+eax*1-0x15e6]
  1044a9:	ff 
  1044aa:	88 85 c4 fd ff ff    	mov    BYTE PTR [ebp-0x23c],al
  1044b0:	0f b6 45 df          	movzx  eax,BYTE PTR [ebp-0x21]
  1044b4:	83 e0 0f             	and    eax,0xf
  1044b7:	0f b6 84 03 1a ea ff 	movzx  eax,BYTE PTR [ebx+eax*1-0x15e6]
  1044be:	ff 
  1044bf:	88 85 c5 fd ff ff    	mov    BYTE PTR [ebp-0x23b],al
  1044c5:	83 ec 0c             	sub    esp,0xc
  1044c8:	8d 85 c4 fd ff ff    	lea    eax,[ebp-0x23c]
  1044ce:	50                   	push   eax
  1044cf:	e8 84 d4 ff ff       	call   101958 <vga_print>
  1044d4:	83 c4 10             	add    esp,0x10
  1044d7:	83 ec 0c             	sub    esp,0xc
  1044da:	8d 83 18 ea ff ff    	lea    eax,[ebx-0x15e8]
  1044e0:	50                   	push   eax
  1044e1:	e8 72 d4 ff ff       	call   101958 <vga_print>
  1044e6:	83 c4 10             	add    esp,0x10
  1044e9:	8b 45 e0             	mov    eax,DWORD PTR [ebp-0x20]
  1044ec:	83 c0 01             	add    eax,0x1
  1044ef:	83 e0 0f             	and    eax,0xf
  1044f2:	85 c0                	test   eax,eax
  1044f4:	75 12                	jne    104508 <cmd_diskread+0x300>
  1044f6:	83 ec 0c             	sub    esp,0xc
  1044f9:	8d 83 7d e9 ff ff    	lea    eax,[ebx-0x1683]
  1044ff:	50                   	push   eax
  104500:	e8 53 d4 ff ff       	call   101958 <vga_print>
  104505:	83 c4 10             	add    esp,0x10
  104508:	83 45 e0 01          	add    DWORD PTR [ebp-0x20],0x1
  10450c:	83 7d e0 3f          	cmp    DWORD PTR [ebp-0x20],0x3f
  104510:	0f 8e 6a ff ff ff    	jle    104480 <cmd_diskread+0x278>
  104516:	83 ec 0c             	sub    esp,0xc
  104519:	8d 83 3b e7 ff ff    	lea    eax,[ebx-0x18c5]
  10451f:	50                   	push   eax
  104520:	e8 33 d4 ff ff       	call   101958 <vga_print>
  104525:	83 c4 10             	add    esp,0x10
  104528:	8b 5d fc             	mov    ebx,DWORD PTR [ebp-0x4]
  10452b:	c9                   	leave
  10452c:	c3                   	ret

0010452d <cmd_fetch>:
  10452d:	55                   	push   ebp
  10452e:	89 e5                	mov    ebp,esp
  104530:	53                   	push   ebx
  104531:	83 ec 64             	sub    esp,0x64
  104534:	e8 1d 23 00 00       	call   106856 <__x86.get_pc_thunk.bx>
  104539:	81 c3 cf 4a 00 00    	add    ebx,0x4acf
  10453f:	e8 70 e4 ff ff       	call   1029b4 <pmm_get_total_frames>
  104544:	c1 e0 02             	shl    eax,0x2
  104547:	89 45 f0             	mov    DWORD PTR [ebp-0x10],eax
  10454a:	e8 7a e4 ff ff       	call   1029c9 <pmm_get_free_frames>
  10454f:	c1 e0 02             	shl    eax,0x2
  104552:	89 45 ec             	mov    DWORD PTR [ebp-0x14],eax
  104555:	e8 9d ee ff ff       	call   1033f7 <pit_get_ticks>
  10455a:	89 45 e8             	mov    DWORD PTR [ebp-0x18],eax
  10455d:	8b 45 e8             	mov    eax,DWORD PTR [ebp-0x18]
  104560:	ba 1f 85 eb 51       	mov    edx,0x51eb851f
  104565:	f7 e2                	mul    edx
  104567:	89 d0                	mov    eax,edx
  104569:	c1 e8 05             	shr    eax,0x5
  10456c:	89 45 e4             	mov    DWORD PTR [ebp-0x1c],eax
  10456f:	83 ec 0c             	sub    esp,0xc
  104572:	8d 83 3b e7 ff ff    	lea    eax,[ebx-0x18c5]
  104578:	50                   	push   eax
  104579:	e8 da d3 ff ff       	call   101958 <vga_print>
  10457e:	83 c4 10             	add    esp,0x10
  104581:	83 ec 08             	sub    esp,0x8
  104584:	6a 00                	push   0x0
  104586:	6a 0b                	push   0xb
  104588:	e8 4c cd ff ff       	call   1012d9 <vga_set_color>
  10458d:	83 c4 10             	add    esp,0x10
  104590:	83 ec 0c             	sub    esp,0xc
  104593:	8d 83 2c ea ff ff    	lea    eax,[ebx-0x15d4]
  104599:	50                   	push   eax
  10459a:	e8 b9 d3 ff ff       	call   101958 <vga_print>
  10459f:	83 c4 10             	add    esp,0x10
  1045a2:	83 ec 08             	sub    esp,0x8
  1045a5:	6a 00                	push   0x0
  1045a7:	6a 03                	push   0x3
  1045a9:	e8 2b cd ff ff       	call   1012d9 <vga_set_color>
  1045ae:	83 c4 10             	add    esp,0x10
  1045b1:	83 ec 0c             	sub    esp,0xc
  1045b4:	8d 83 60 ea ff ff    	lea    eax,[ebx-0x15a0]
  1045ba:	50                   	push   eax
  1045bb:	e8 98 d3 ff ff       	call   101958 <vga_print>
  1045c0:	83 c4 10             	add    esp,0x10
  1045c3:	83 ec 0c             	sub    esp,0xc
  1045c6:	8d 83 98 ea ff ff    	lea    eax,[ebx-0x1568]
  1045cc:	50                   	push   eax
  1045cd:	e8 86 d3 ff ff       	call   101958 <vga_print>
  1045d2:	83 c4 10             	add    esp,0x10
  1045d5:	83 ec 08             	sub    esp,0x8
  1045d8:	6a 00                	push   0x0
  1045da:	6a 08                	push   0x8
  1045dc:	e8 f8 cc ff ff       	call   1012d9 <vga_set_color>
  1045e1:	83 c4 10             	add    esp,0x10
  1045e4:	83 ec 0c             	sub    esp,0xc
  1045e7:	8d 83 cc ea ff ff    	lea    eax,[ebx-0x1534]
  1045ed:	50                   	push   eax
  1045ee:	e8 65 d3 ff ff       	call   101958 <vga_print>
  1045f3:	83 c4 10             	add    esp,0x10
  1045f6:	83 ec 0c             	sub    esp,0xc
  1045f9:	8d 83 3b e7 ff ff    	lea    eax,[ebx-0x18c5]
  1045ff:	50                   	push   eax
  104600:	e8 53 d3 ff ff       	call   101958 <vga_print>
  104605:	83 c4 10             	add    esp,0x10
  104608:	83 ec 08             	sub    esp,0x8
  10460b:	6a 00                	push   0x0
  10460d:	6a 0b                	push   0xb
  10460f:	e8 c5 cc ff ff       	call   1012d9 <vga_set_color>
  104614:	83 c4 10             	add    esp,0x10
  104617:	83 ec 0c             	sub    esp,0xc
  10461a:	8d 83 03 eb ff ff    	lea    eax,[ebx-0x14fd]
  104620:	50                   	push   eax
  104621:	e8 32 d3 ff ff       	call   101958 <vga_print>
  104626:	83 c4 10             	add    esp,0x10
  104629:	83 ec 08             	sub    esp,0x8
  10462c:	6a 00                	push   0x0
  10462e:	6a 0f                	push   0xf
  104630:	e8 a4 cc ff ff       	call   1012d9 <vga_set_color>
  104635:	83 c4 10             	add    esp,0x10
  104638:	83 ec 0c             	sub    esp,0xc
  10463b:	8d 83 0f eb ff ff    	lea    eax,[ebx-0x14f1]
  104641:	50                   	push   eax
  104642:	e8 11 d3 ff ff       	call   101958 <vga_print>
  104647:	83 c4 10             	add    esp,0x10
  10464a:	83 ec 08             	sub    esp,0x8
  10464d:	6a 00                	push   0x0
  10464f:	6a 0b                	push   0xb
  104651:	e8 83 cc ff ff       	call   1012d9 <vga_set_color>
  104656:	83 c4 10             	add    esp,0x10
  104659:	83 ec 0c             	sub    esp,0xc
  10465c:	8d 83 20 eb ff ff    	lea    eax,[ebx-0x14e0]
  104662:	50                   	push   eax
  104663:	e8 f0 d2 ff ff       	call   101958 <vga_print>
  104668:	83 c4 10             	add    esp,0x10
  10466b:	83 ec 08             	sub    esp,0x8
  10466e:	6a 00                	push   0x0
  104670:	6a 0f                	push   0xf
  104672:	e8 62 cc ff ff       	call   1012d9 <vga_set_color>
  104677:	83 c4 10             	add    esp,0x10
  10467a:	83 ec 0c             	sub    esp,0xc
  10467d:	8d 83 2c eb ff ff    	lea    eax,[ebx-0x14d4]
  104683:	50                   	push   eax
  104684:	e8 cf d2 ff ff       	call   101958 <vga_print>
  104689:	83 c4 10             	add    esp,0x10
  10468c:	83 ec 08             	sub    esp,0x8
  10468f:	6a 00                	push   0x0
  104691:	6a 0b                	push   0xb
  104693:	e8 41 cc ff ff       	call   1012d9 <vga_set_color>
  104698:	83 c4 10             	add    esp,0x10
  10469b:	83 ec 0c             	sub    esp,0xc
  10469e:	8d 83 34 eb ff ff    	lea    eax,[ebx-0x14cc]
  1046a4:	50                   	push   eax
  1046a5:	e8 ae d2 ff ff       	call   101958 <vga_print>
  1046aa:	83 c4 10             	add    esp,0x10
  1046ad:	83 ec 08             	sub    esp,0x8
  1046b0:	6a 00                	push   0x0
  1046b2:	6a 0f                	push   0xf
  1046b4:	e8 20 cc ff ff       	call   1012d9 <vga_set_color>
  1046b9:	83 c4 10             	add    esp,0x10
  1046bc:	83 ec 0c             	sub    esp,0xc
  1046bf:	8d 83 40 eb ff ff    	lea    eax,[ebx-0x14c0]
  1046c5:	50                   	push   eax
  1046c6:	e8 8d d2 ff ff       	call   101958 <vga_print>
  1046cb:	83 c4 10             	add    esp,0x10
  1046ce:	83 ec 08             	sub    esp,0x8
  1046d1:	6a 00                	push   0x0
  1046d3:	6a 0b                	push   0xb
  1046d5:	e8 ff cb ff ff       	call   1012d9 <vga_set_color>
  1046da:	83 c4 10             	add    esp,0x10
  1046dd:	83 ec 0c             	sub    esp,0xc
  1046e0:	8d 83 46 eb ff ff    	lea    eax,[ebx-0x14ba]
  1046e6:	50                   	push   eax
  1046e7:	e8 6c d2 ff ff       	call   101958 <vga_print>
  1046ec:	83 c4 10             	add    esp,0x10
  1046ef:	83 ec 08             	sub    esp,0x8
  1046f2:	6a 00                	push   0x0
  1046f4:	6a 0f                	push   0xf
  1046f6:	e8 de cb ff ff       	call   1012d9 <vga_set_color>
  1046fb:	83 c4 10             	add    esp,0x10
  1046fe:	83 ec 0c             	sub    esp,0xc
  104701:	8d 83 52 eb ff ff    	lea    eax,[ebx-0x14ae]
  104707:	50                   	push   eax
  104708:	e8 4b d2 ff ff       	call   101958 <vga_print>
  10470d:	83 c4 10             	add    esp,0x10
  104710:	83 ec 08             	sub    esp,0x8
  104713:	6a 00                	push   0x0
  104715:	6a 0b                	push   0xb
  104717:	e8 bd cb ff ff       	call   1012d9 <vga_set_color>
  10471c:	83 c4 10             	add    esp,0x10
  10471f:	83 ec 0c             	sub    esp,0xc
  104722:	8d 83 58 eb ff ff    	lea    eax,[ebx-0x14a8]
  104728:	50                   	push   eax
  104729:	e8 2a d2 ff ff       	call   101958 <vga_print>
  10472e:	83 c4 10             	add    esp,0x10
  104731:	83 ec 08             	sub    esp,0x8
  104734:	6a 00                	push   0x0
  104736:	6a 0f                	push   0xf
  104738:	e8 9c cb ff ff       	call   1012d9 <vga_set_color>
  10473d:	83 c4 10             	add    esp,0x10
  104740:	83 ec 0c             	sub    esp,0xc
  104743:	8d 83 64 eb ff ff    	lea    eax,[ebx-0x149c]
  104749:	50                   	push   eax
  10474a:	e8 09 d2 ff ff       	call   101958 <vga_print>
  10474f:	83 c4 10             	add    esp,0x10
  104752:	83 ec 08             	sub    esp,0x8
  104755:	6a 00                	push   0x0
  104757:	6a 0b                	push   0xb
  104759:	e8 7b cb ff ff       	call   1012d9 <vga_set_color>
  10475e:	83 c4 10             	add    esp,0x10
  104761:	83 ec 0c             	sub    esp,0xc
  104764:	8d 83 7f eb ff ff    	lea    eax,[ebx-0x1481]
  10476a:	50                   	push   eax
  10476b:	e8 e8 d1 ff ff       	call   101958 <vga_print>
  104770:	83 c4 10             	add    esp,0x10
  104773:	83 ec 08             	sub    esp,0x8
  104776:	6a 00                	push   0x0
  104778:	6a 0f                	push   0xf
  10477a:	e8 5a cb ff ff       	call   1012d9 <vga_set_color>
  10477f:	83 c4 10             	add    esp,0x10
  104782:	83 ec 0c             	sub    esp,0xc
  104785:	ff 75 ec             	push   DWORD PTR [ebp-0x14]
  104788:	e8 e7 f0 ff ff       	call   103874 <print_uint>
  10478d:	83 c4 10             	add    esp,0x10
  104790:	83 ec 0c             	sub    esp,0xc
  104793:	8d 83 8b eb ff ff    	lea    eax,[ebx-0x1475]
  104799:	50                   	push   eax
  10479a:	e8 b9 d1 ff ff       	call   101958 <vga_print>
  10479f:	83 c4 10             	add    esp,0x10
  1047a2:	83 ec 0c             	sub    esp,0xc
  1047a5:	ff 75 f0             	push   DWORD PTR [ebp-0x10]
  1047a8:	e8 c7 f0 ff ff       	call   103874 <print_uint>
  1047ad:	83 c4 10             	add    esp,0x10
  1047b0:	83 ec 0c             	sub    esp,0xc
  1047b3:	8d 83 97 eb ff ff    	lea    eax,[ebx-0x1469]
  1047b9:	50                   	push   eax
  1047ba:	e8 99 d1 ff ff       	call   101958 <vga_print>
  1047bf:	83 c4 10             	add    esp,0x10
  1047c2:	83 ec 08             	sub    esp,0x8
  1047c5:	6a 00                	push   0x0
  1047c7:	6a 0b                	push   0xb
  1047c9:	e8 0b cb ff ff       	call   1012d9 <vga_set_color>
  1047ce:	83 c4 10             	add    esp,0x10
  1047d1:	83 ec 0c             	sub    esp,0xc
  1047d4:	8d 83 a2 eb ff ff    	lea    eax,[ebx-0x145e]
  1047da:	50                   	push   eax
  1047db:	e8 78 d1 ff ff       	call   101958 <vga_print>
  1047e0:	83 c4 10             	add    esp,0x10
  1047e3:	83 ec 08             	sub    esp,0x8
  1047e6:	6a 00                	push   0x0
  1047e8:	6a 0f                	push   0xf
  1047ea:	e8 ea ca ff ff       	call   1012d9 <vga_set_color>
  1047ef:	83 c4 10             	add    esp,0x10
  1047f2:	8b 45 e4             	mov    eax,DWORD PTR [ebp-0x1c]
  1047f5:	ba 89 88 88 88       	mov    edx,0x88888889
  1047fa:	f7 e2                	mul    edx
  1047fc:	89 d0                	mov    eax,edx
  1047fe:	c1 e8 05             	shr    eax,0x5
  104801:	83 ec 0c             	sub    esp,0xc
  104804:	50                   	push   eax
  104805:	e8 6a f0 ff ff       	call   103874 <print_uint>
  10480a:	83 c4 10             	add    esp,0x10
  10480d:	83 ec 0c             	sub    esp,0xc
  104810:	8d 83 76 e7 ff ff    	lea    eax,[ebx-0x188a]
  104816:	50                   	push   eax
  104817:	e8 3c d1 ff ff       	call   101958 <vga_print>
  10481c:	83 c4 10             	add    esp,0x10
  10481f:	8b 4d e4             	mov    ecx,DWORD PTR [ebp-0x1c]
  104822:	ba 89 88 88 88       	mov    edx,0x88888889
  104827:	89 c8                	mov    eax,ecx
  104829:	f7 e2                	mul    edx
  10482b:	89 d0                	mov    eax,edx
  10482d:	c1 e8 05             	shr    eax,0x5
  104830:	6b d0 3c             	imul   edx,eax,0x3c
  104833:	89 c8                	mov    eax,ecx
  104835:	29 d0                	sub    eax,edx
  104837:	83 ec 0c             	sub    esp,0xc
  10483a:	50                   	push   eax
  10483b:	e8 34 f0 ff ff       	call   103874 <print_uint>
  104840:	83 c4 10             	add    esp,0x10
  104843:	83 ec 0c             	sub    esp,0xc
  104846:	8d 83 ae eb ff ff    	lea    eax,[ebx-0x1452]
  10484c:	50                   	push   eax
  10484d:	e8 06 d1 ff ff       	call   101958 <vga_print>
  104852:	83 c4 10             	add    esp,0x10
  104855:	83 ec 08             	sub    esp,0x8
  104858:	6a 00                	push   0x0
  10485a:	6a 0b                	push   0xb
  10485c:	e8 78 ca ff ff       	call   1012d9 <vga_set_color>
  104861:	83 c4 10             	add    esp,0x10
  104864:	83 ec 0c             	sub    esp,0xc
  104867:	8d 83 b1 eb ff ff    	lea    eax,[ebx-0x144f]
  10486d:	50                   	push   eax
  10486e:	e8 e5 d0 ff ff       	call   101958 <vga_print>
  104873:	83 c4 10             	add    esp,0x10
  104876:	83 ec 08             	sub    esp,0x8
  104879:	6a 00                	push   0x0
  10487b:	6a 0f                	push   0xf
  10487d:	e8 57 ca ff ff       	call   1012d9 <vga_set_color>
  104882:	83 c4 10             	add    esp,0x10
  104885:	83 ec 0c             	sub    esp,0xc
  104888:	ff 75 e8             	push   DWORD PTR [ebp-0x18]
  10488b:	e8 e4 ef ff ff       	call   103874 <print_uint>
  104890:	83 c4 10             	add    esp,0x10
  104893:	83 ec 0c             	sub    esp,0xc
  104896:	8d 83 bd eb ff ff    	lea    eax,[ebx-0x1443]
  10489c:	50                   	push   eax
  10489d:	e8 b6 d0 ff ff       	call   101958 <vga_print>
  1048a2:	83 c4 10             	add    esp,0x10
  1048a5:	83 ec 0c             	sub    esp,0xc
  1048a8:	8d 83 c7 eb ff ff    	lea    eax,[ebx-0x1439]
  1048ae:	50                   	push   eax
  1048af:	e8 a4 d0 ff ff       	call   101958 <vga_print>
  1048b4:	83 c4 10             	add    esp,0x10
  1048b7:	c7 45 a4 00 00 00 00 	mov    DWORD PTR [ebp-0x5c],0x0
  1048be:	c7 45 a8 01 00 00 00 	mov    DWORD PTR [ebp-0x58],0x1
  1048c5:	c7 45 ac 02 00 00 00 	mov    DWORD PTR [ebp-0x54],0x2
  1048cc:	c7 45 b0 03 00 00 00 	mov    DWORD PTR [ebp-0x50],0x3
  1048d3:	c7 45 b4 04 00 00 00 	mov    DWORD PTR [ebp-0x4c],0x4
  1048da:	c7 45 b8 05 00 00 00 	mov    DWORD PTR [ebp-0x48],0x5
  1048e1:	c7 45 bc 06 00 00 00 	mov    DWORD PTR [ebp-0x44],0x6
  1048e8:	c7 45 c0 07 00 00 00 	mov    DWORD PTR [ebp-0x40],0x7
  1048ef:	c7 45 c4 08 00 00 00 	mov    DWORD PTR [ebp-0x3c],0x8
  1048f6:	c7 45 c8 09 00 00 00 	mov    DWORD PTR [ebp-0x38],0x9
  1048fd:	c7 45 cc 0a 00 00 00 	mov    DWORD PTR [ebp-0x34],0xa
  104904:	c7 45 d0 0b 00 00 00 	mov    DWORD PTR [ebp-0x30],0xb
  10490b:	c7 45 d4 0c 00 00 00 	mov    DWORD PTR [ebp-0x2c],0xc
  104912:	c7 45 d8 0d 00 00 00 	mov    DWORD PTR [ebp-0x28],0xd
  104919:	c7 45 dc 0e 00 00 00 	mov    DWORD PTR [ebp-0x24],0xe
  104920:	c7 45 e0 0f 00 00 00 	mov    DWORD PTR [ebp-0x20],0xf
  104927:	c7 45 f4 00 00 00 00 	mov    DWORD PTR [ebp-0xc],0x0
  10492e:	eb 31                	jmp    104961 <cmd_fetch+0x434>
  104930:	8b 45 f4             	mov    eax,DWORD PTR [ebp-0xc]
  104933:	8b 54 85 a4          	mov    edx,DWORD PTR [ebp+eax*4-0x5c]
  104937:	8b 45 f4             	mov    eax,DWORD PTR [ebp-0xc]
  10493a:	8b 44 85 a4          	mov    eax,DWORD PTR [ebp+eax*4-0x5c]
  10493e:	83 ec 08             	sub    esp,0x8
  104941:	52                   	push   edx
  104942:	50                   	push   eax
  104943:	e8 91 c9 ff ff       	call   1012d9 <vga_set_color>
  104948:	83 c4 10             	add    esp,0x10
  10494b:	83 ec 0c             	sub    esp,0xc
  10494e:	8d 83 cc eb ff ff    	lea    eax,[ebx-0x1434]
  104954:	50                   	push   eax
  104955:	e8 fe cf ff ff       	call   101958 <vga_print>
  10495a:	83 c4 10             	add    esp,0x10
  10495d:	83 45 f4 01          	add    DWORD PTR [ebp-0xc],0x1
  104961:	83 7d f4 0f          	cmp    DWORD PTR [ebp-0xc],0xf
  104965:	7e c9                	jle    104930 <cmd_fetch+0x403>
  104967:	83 ec 08             	sub    esp,0x8
  10496a:	6a 00                	push   0x0
  10496c:	6a 0f                	push   0xf
  10496e:	e8 66 c9 ff ff       	call   1012d9 <vga_set_color>
  104973:	83 c4 10             	add    esp,0x10
  104976:	83 ec 0c             	sub    esp,0xc
  104979:	8d 83 3b e7 ff ff    	lea    eax,[ebx-0x18c5]
  10497f:	50                   	push   eax
  104980:	e8 d3 cf ff ff       	call   101958 <vga_print>
  104985:	83 c4 10             	add    esp,0x10
  104988:	90                   	nop
  104989:	8b 5d fc             	mov    ebx,DWORD PTR [ebp-0x4]
  10498c:	c9                   	leave
  10498d:	c3                   	ret

0010498e <cmd_fsinfo>:
  10498e:	55                   	push   ebp
  10498f:	89 e5                	mov    ebp,esp
  104991:	53                   	push   ebx
  104992:	83 ec 04             	sub    esp,0x4
  104995:	e8 c0 1e 00 00       	call   10685a <__x86.get_pc_thunk.ax>
  10499a:	05 6e 46 00 00       	add    eax,0x466e
  10499f:	89 c3                	mov    ebx,eax
  1049a1:	e8 84 1c 00 00       	call   10662a <fat12_print_info>
  1049a6:	90                   	nop
  1049a7:	8b 5d fc             	mov    ebx,DWORD PTR [ebp-0x4]
  1049aa:	c9                   	leave
  1049ab:	c3                   	ret

001049ac <cmd_ls>:
  1049ac:	55                   	push   ebp
  1049ad:	89 e5                	mov    ebp,esp
  1049af:	53                   	push   ebx
  1049b0:	83 ec 04             	sub    esp,0x4
  1049b3:	e8 9e 1e 00 00       	call   106856 <__x86.get_pc_thunk.bx>
  1049b8:	81 c3 50 46 00 00    	add    ebx,0x4650
  1049be:	83 ec 0c             	sub    esp,0xc
  1049c1:	8d 83 3b e7 ff ff    	lea    eax,[ebx-0x18c5]
  1049c7:	50                   	push   eax
  1049c8:	e8 8b cf ff ff       	call   101958 <vga_print>
  1049cd:	83 c4 10             	add    esp,0x10
  1049d0:	e8 b7 14 00 00       	call   105e8c <fat12_list_root>
  1049d5:	90                   	nop
  1049d6:	8b 5d fc             	mov    ebx,DWORD PTR [ebp-0x4]
  1049d9:	c9                   	leave
  1049da:	c3                   	ret

001049db <cmd_cat>:
  1049db:	55                   	push   ebp
  1049dc:	89 e5                	mov    ebp,esp
  1049de:	53                   	push   ebx
  1049df:	83 ec 34             	sub    esp,0x34
  1049e2:	e8 6f 1e 00 00       	call   106856 <__x86.get_pc_thunk.bx>
  1049e7:	81 c3 21 46 00 00    	add    ebx,0x4621
  1049ed:	eb 04                	jmp    1049f3 <cmd_cat+0x18>
  1049ef:	83 45 08 01          	add    DWORD PTR [ebp+0x8],0x1
  1049f3:	8b 45 08             	mov    eax,DWORD PTR [ebp+0x8]
  1049f6:	0f b6 00             	movzx  eax,BYTE PTR [eax]
  1049f9:	3c 20                	cmp    al,0x20
  1049fb:	74 f2                	je     1049ef <cmd_cat+0x14>
  1049fd:	8b 45 08             	mov    eax,DWORD PTR [ebp+0x8]
  104a00:	0f b6 00             	movzx  eax,BYTE PTR [eax]
  104a03:	84 c0                	test   al,al
  104a05:	75 17                	jne    104a1e <cmd_cat+0x43>
  104a07:	83 ec 0c             	sub    esp,0xc
  104a0a:	8d 83 cf eb ff ff    	lea    eax,[ebx-0x1431]
  104a10:	50                   	push   eax
  104a11:	e8 42 cf ff ff       	call   101958 <vga_print>
  104a16:	83 c4 10             	add    esp,0x10
  104a19:	e9 fb 01 00 00       	jmp    104c19 <cmd_cat+0x23e>
  104a1e:	c7 45 f4 00 00 00 00 	mov    DWORD PTR [ebp-0xc],0x0
  104a25:	eb 12                	jmp    104a39 <cmd_cat+0x5e>
  104a27:	8d 93 78 51 01 00    	lea    edx,[ebx+0x15178]
  104a2d:	8b 45 f4             	mov    eax,DWORD PTR [ebp-0xc]
  104a30:	01 d0                	add    eax,edx
  104a32:	c6 00 20             	mov    BYTE PTR [eax],0x20
  104a35:	83 45 f4 01          	add    DWORD PTR [ebp-0xc],0x1
  104a39:	83 7d f4 07          	cmp    DWORD PTR [ebp-0xc],0x7
  104a3d:	7e e8                	jle    104a27 <cmd_cat+0x4c>
  104a3f:	c7 45 f0 00 00 00 00 	mov    DWORD PTR [ebp-0x10],0x0
  104a46:	eb 12                	jmp    104a5a <cmd_cat+0x7f>
  104a48:	8d 93 84 51 01 00    	lea    edx,[ebx+0x15184]
  104a4e:	8b 45 f0             	mov    eax,DWORD PTR [ebp-0x10]
  104a51:	01 d0                	add    eax,edx
  104a53:	c6 00 20             	mov    BYTE PTR [eax],0x20
  104a56:	83 45 f0 01          	add    DWORD PTR [ebp-0x10],0x1
  104a5a:	83 7d f0 02          	cmp    DWORD PTR [ebp-0x10],0x2
  104a5e:	7e e8                	jle    104a48 <cmd_cat+0x6d>
  104a60:	c6 83 80 51 01 00 00 	mov    BYTE PTR [ebx+0x15180],0x0
  104a67:	c6 83 87 51 01 00 00 	mov    BYTE PTR [ebx+0x15187],0x0
  104a6e:	c7 45 ec 00 00 00 00 	mov    DWORD PTR [ebp-0x14],0x0
  104a75:	eb 3a                	jmp    104ab1 <cmd_cat+0xd6>
  104a77:	8b 45 08             	mov    eax,DWORD PTR [ebp+0x8]
  104a7a:	8d 50 01             	lea    edx,[eax+0x1]
  104a7d:	89 55 08             	mov    DWORD PTR [ebp+0x8],edx
  104a80:	0f b6 00             	movzx  eax,BYTE PTR [eax]
  104a83:	88 45 e7             	mov    BYTE PTR [ebp-0x19],al
  104a86:	80 7d e7 60          	cmp    BYTE PTR [ebp-0x19],0x60
  104a8a:	7e 11                	jle    104a9d <cmd_cat+0xc2>
  104a8c:	80 7d e7 7a          	cmp    BYTE PTR [ebp-0x19],0x7a
  104a90:	7f 0b                	jg     104a9d <cmd_cat+0xc2>
  104a92:	0f b6 45 e7          	movzx  eax,BYTE PTR [ebp-0x19]
  104a96:	83 e8 20             	sub    eax,0x20
  104a99:	89 c2                	mov    edx,eax
  104a9b:	eb 04                	jmp    104aa1 <cmd_cat+0xc6>
  104a9d:	0f b6 55 e7          	movzx  edx,BYTE PTR [ebp-0x19]
  104aa1:	8b 45 ec             	mov    eax,DWORD PTR [ebp-0x14]
  104aa4:	8d 48 01             	lea    ecx,[eax+0x1]
  104aa7:	89 4d ec             	mov    DWORD PTR [ebp-0x14],ecx
  104aaa:	88 94 03 78 51 01 00 	mov    BYTE PTR [ebx+eax*1+0x15178],dl
  104ab1:	8b 45 08             	mov    eax,DWORD PTR [ebp+0x8]
  104ab4:	0f b6 00             	movzx  eax,BYTE PTR [eax]
  104ab7:	84 c0                	test   al,al
  104ab9:	74 10                	je     104acb <cmd_cat+0xf0>
  104abb:	8b 45 08             	mov    eax,DWORD PTR [ebp+0x8]
  104abe:	0f b6 00             	movzx  eax,BYTE PTR [eax]
  104ac1:	3c 2e                	cmp    al,0x2e
  104ac3:	74 06                	je     104acb <cmd_cat+0xf0>
  104ac5:	83 7d ec 07          	cmp    DWORD PTR [ebp-0x14],0x7
  104ac9:	7e ac                	jle    104a77 <cmd_cat+0x9c>
  104acb:	8b 45 08             	mov    eax,DWORD PTR [ebp+0x8]
  104ace:	0f b6 00             	movzx  eax,BYTE PTR [eax]
  104ad1:	3c 2e                	cmp    al,0x2e
  104ad3:	75 04                	jne    104ad9 <cmd_cat+0xfe>
  104ad5:	83 45 08 01          	add    DWORD PTR [ebp+0x8],0x1
  104ad9:	c7 45 ec 00 00 00 00 	mov    DWORD PTR [ebp-0x14],0x0
  104ae0:	eb 3a                	jmp    104b1c <cmd_cat+0x141>
  104ae2:	8b 45 08             	mov    eax,DWORD PTR [ebp+0x8]
  104ae5:	8d 50 01             	lea    edx,[eax+0x1]
  104ae8:	89 55 08             	mov    DWORD PTR [ebp+0x8],edx
  104aeb:	0f b6 00             	movzx  eax,BYTE PTR [eax]
  104aee:	88 45 e6             	mov    BYTE PTR [ebp-0x1a],al
  104af1:	80 7d e6 60          	cmp    BYTE PTR [ebp-0x1a],0x60
  104af5:	7e 11                	jle    104b08 <cmd_cat+0x12d>
  104af7:	80 7d e6 7a          	cmp    BYTE PTR [ebp-0x1a],0x7a
  104afb:	7f 0b                	jg     104b08 <cmd_cat+0x12d>
  104afd:	0f b6 45 e6          	movzx  eax,BYTE PTR [ebp-0x1a]
  104b01:	83 e8 20             	sub    eax,0x20
  104b04:	89 c2                	mov    edx,eax
  104b06:	eb 04                	jmp    104b0c <cmd_cat+0x131>
  104b08:	0f b6 55 e6          	movzx  edx,BYTE PTR [ebp-0x1a]
  104b0c:	8b 45 ec             	mov    eax,DWORD PTR [ebp-0x14]
  104b0f:	8d 48 01             	lea    ecx,[eax+0x1]
  104b12:	89 4d ec             	mov    DWORD PTR [ebp-0x14],ecx
  104b15:	88 94 03 84 51 01 00 	mov    BYTE PTR [ebx+eax*1+0x15184],dl
  104b1c:	8b 45 08             	mov    eax,DWORD PTR [ebp+0x8]
  104b1f:	0f b6 00             	movzx  eax,BYTE PTR [eax]
  104b22:	84 c0                	test   al,al
  104b24:	74 10                	je     104b36 <cmd_cat+0x15b>
  104b26:	8b 45 08             	mov    eax,DWORD PTR [ebp+0x8]
  104b29:	0f b6 00             	movzx  eax,BYTE PTR [eax]
  104b2c:	3c 20                	cmp    al,0x20
  104b2e:	74 06                	je     104b36 <cmd_cat+0x15b>
  104b30:	83 7d ec 02          	cmp    DWORD PTR [ebp-0x14],0x2
  104b34:	7e ac                	jle    104ae2 <cmd_cat+0x107>
  104b36:	c7 45 d8 00 00 00 00 	mov    DWORD PTR [ebp-0x28],0x0
  104b3d:	83 ec 0c             	sub    esp,0xc
  104b40:	8d 45 d8             	lea    eax,[ebp-0x28]
  104b43:	50                   	push   eax
  104b44:	68 ff 0f 00 00       	push   0xfff
  104b49:	8d 83 78 41 01 00    	lea    eax,[ebx+0x14178]
  104b4f:	50                   	push   eax
  104b50:	8d 83 84 51 01 00    	lea    eax,[ebx+0x15184]
  104b56:	50                   	push   eax
  104b57:	8d 83 78 51 01 00    	lea    eax,[ebx+0x15178]
  104b5d:	50                   	push   eax
  104b5e:	e8 26 17 00 00       	call   106289 <fat12_read_file>
  104b63:	83 c4 20             	add    esp,0x20
  104b66:	89 45 e0             	mov    DWORD PTR [ebp-0x20],eax
  104b69:	83 7d e0 00          	cmp    DWORD PTR [ebp-0x20],0x0
  104b6d:	74 32                	je     104ba1 <cmd_cat+0x1c6>
  104b6f:	83 ec 08             	sub    esp,0x8
  104b72:	6a 00                	push   0x0
  104b74:	6a 0c                	push   0xc
  104b76:	e8 5e c7 ff ff       	call   1012d9 <vga_set_color>
  104b7b:	83 c4 10             	add    esp,0x10
  104b7e:	83 ec 0c             	sub    esp,0xc
  104b81:	8d 83 eb eb ff ff    	lea    eax,[ebx-0x1415]
  104b87:	50                   	push   eax
  104b88:	e8 cb cd ff ff       	call   101958 <vga_print>
  104b8d:	83 c4 10             	add    esp,0x10
  104b90:	83 ec 08             	sub    esp,0x8
  104b93:	6a 00                	push   0x0
  104b95:	6a 0f                	push   0xf
  104b97:	e8 3d c7 ff ff       	call   1012d9 <vga_set_color>
  104b9c:	83 c4 10             	add    esp,0x10
  104b9f:	eb 78                	jmp    104c19 <cmd_cat+0x23e>
  104ba1:	8b 45 d8             	mov    eax,DWORD PTR [ebp-0x28]
  104ba4:	c6 84 03 78 41 01 00 	mov    BYTE PTR [ebx+eax*1+0x14178],0x0
  104bab:	00 
  104bac:	83 ec 0c             	sub    esp,0xc
  104baf:	8d 83 3b e7 ff ff    	lea    eax,[ebx-0x18c5]
  104bb5:	50                   	push   eax
  104bb6:	e8 9d cd ff ff       	call   101958 <vga_print>
  104bbb:	83 c4 10             	add    esp,0x10
  104bbe:	c7 45 e8 00 00 00 00 	mov    DWORD PTR [ebp-0x18],0x0
  104bc5:	eb 38                	jmp    104bff <cmd_cat+0x224>
  104bc7:	8d 93 78 41 01 00    	lea    edx,[ebx+0x14178]
  104bcd:	8b 45 e8             	mov    eax,DWORD PTR [ebp-0x18]
  104bd0:	01 d0                	add    eax,edx
  104bd2:	0f b6 00             	movzx  eax,BYTE PTR [eax]
  104bd5:	88 45 df             	mov    BYTE PTR [ebp-0x21],al
  104bd8:	80 7d df 0d          	cmp    BYTE PTR [ebp-0x21],0xd
  104bdc:	74 1c                	je     104bfa <cmd_cat+0x21f>
  104bde:	0f b6 45 df          	movzx  eax,BYTE PTR [ebp-0x21]
  104be2:	88 45 d6             	mov    BYTE PTR [ebp-0x2a],al
  104be5:	c6 45 d7 00          	mov    BYTE PTR [ebp-0x29],0x0
  104be9:	83 ec 0c             	sub    esp,0xc
  104bec:	8d 45 d6             	lea    eax,[ebp-0x2a]
  104bef:	50                   	push   eax
  104bf0:	e8 63 cd ff ff       	call   101958 <vga_print>
  104bf5:	83 c4 10             	add    esp,0x10
  104bf8:	eb 01                	jmp    104bfb <cmd_cat+0x220>
  104bfa:	90                   	nop
  104bfb:	83 45 e8 01          	add    DWORD PTR [ebp-0x18],0x1
  104bff:	8b 45 d8             	mov    eax,DWORD PTR [ebp-0x28]
  104c02:	39 45 e8             	cmp    DWORD PTR [ebp-0x18],eax
  104c05:	72 c0                	jb     104bc7 <cmd_cat+0x1ec>
  104c07:	83 ec 0c             	sub    esp,0xc
  104c0a:	8d 83 3b e7 ff ff    	lea    eax,[ebx-0x18c5]
  104c10:	50                   	push   eax
  104c11:	e8 42 cd ff ff       	call   101958 <vga_print>
  104c16:	83 c4 10             	add    esp,0x10
  104c19:	8b 5d fc             	mov    ebx,DWORD PTR [ebp-0x4]
  104c1c:	c9                   	leave
  104c1d:	c3                   	ret

00104c1e <shell_dispatch>:
  104c1e:	55                   	push   ebp
  104c1f:	89 e5                	mov    ebp,esp
  104c21:	53                   	push   ebx
  104c22:	83 ec 14             	sub    esp,0x14
  104c25:	e8 2c 1c 00 00       	call   106856 <__x86.get_pc_thunk.bx>
  104c2a:	81 c3 de 43 00 00    	add    ebx,0x43de
  104c30:	eb 04                	jmp    104c36 <shell_dispatch+0x18>
  104c32:	83 45 08 01          	add    DWORD PTR [ebp+0x8],0x1
  104c36:	8b 45 08             	mov    eax,DWORD PTR [ebp+0x8]
  104c39:	0f b6 00             	movzx  eax,BYTE PTR [eax]
  104c3c:	3c 20                	cmp    al,0x20
  104c3e:	74 f2                	je     104c32 <shell_dispatch+0x14>
  104c40:	8b 45 08             	mov    eax,DWORD PTR [ebp+0x8]
  104c43:	0f b6 00             	movzx  eax,BYTE PTR [eax]
  104c46:	84 c0                	test   al,al
  104c48:	0f 84 42 02 00 00    	je     104e90 <shell_dispatch+0x272>
  104c4e:	8b 45 08             	mov    eax,DWORD PTR [ebp+0x8]
  104c51:	89 45 f0             	mov    DWORD PTR [ebp-0x10],eax
  104c54:	8b 45 08             	mov    eax,DWORD PTR [ebp+0x8]
  104c57:	89 45 f4             	mov    DWORD PTR [ebp-0xc],eax
  104c5a:	eb 04                	jmp    104c60 <shell_dispatch+0x42>
  104c5c:	83 45 f4 01          	add    DWORD PTR [ebp-0xc],0x1
  104c60:	8b 45 f4             	mov    eax,DWORD PTR [ebp-0xc]
  104c63:	0f b6 00             	movzx  eax,BYTE PTR [eax]
  104c66:	84 c0                	test   al,al
  104c68:	74 0a                	je     104c74 <shell_dispatch+0x56>
  104c6a:	8b 45 f4             	mov    eax,DWORD PTR [ebp-0xc]
  104c6d:	0f b6 00             	movzx  eax,BYTE PTR [eax]
  104c70:	3c 20                	cmp    al,0x20
  104c72:	75 e8                	jne    104c5c <shell_dispatch+0x3e>
  104c74:	8b 45 f4             	mov    eax,DWORD PTR [ebp-0xc]
  104c77:	0f b6 00             	movzx  eax,BYTE PTR [eax]
  104c7a:	3c 20                	cmp    al,0x20
  104c7c:	75 0a                	jne    104c88 <shell_dispatch+0x6a>
  104c7e:	8b 45 f4             	mov    eax,DWORD PTR [ebp-0xc]
  104c81:	c6 00 00             	mov    BYTE PTR [eax],0x0
  104c84:	83 45 f4 01          	add    DWORD PTR [ebp-0xc],0x1
  104c88:	8d 83 ff eb ff ff    	lea    eax,[ebx-0x1401]
  104c8e:	50                   	push   eax
  104c8f:	ff 75 f0             	push   DWORD PTR [ebp-0x10]
  104c92:	e8 85 eb ff ff       	call   10381c <str_eq>
  104c97:	83 c4 08             	add    esp,0x8
  104c9a:	85 c0                	test   eax,eax
  104c9c:	74 0a                	je     104ca8 <shell_dispatch+0x8a>
  104c9e:	e8 8a f8 ff ff       	call   10452d <cmd_fetch>
  104ca3:	e9 e9 01 00 00       	jmp    104e91 <shell_dispatch+0x273>
  104ca8:	83 ec 08             	sub    esp,0x8
  104cab:	8d 83 05 ec ff ff    	lea    eax,[ebx-0x13fb]
  104cb1:	50                   	push   eax
  104cb2:	ff 75 f0             	push   DWORD PTR [ebp-0x10]
  104cb5:	e8 62 eb ff ff       	call   10381c <str_eq>
  104cba:	83 c4 10             	add    esp,0x10
  104cbd:	85 c0                	test   eax,eax
  104cbf:	74 0a                	je     104ccb <shell_dispatch+0xad>
  104cc1:	e8 f1 ec ff ff       	call   1039b7 <cmd_clear>
  104cc6:	e9 c6 01 00 00       	jmp    104e91 <shell_dispatch+0x273>
  104ccb:	83 ec 08             	sub    esp,0x8
  104cce:	8d 83 0b ec ff ff    	lea    eax,[ebx-0x13f5]
  104cd4:	50                   	push   eax
  104cd5:	ff 75 f0             	push   DWORD PTR [ebp-0x10]
  104cd8:	e8 3f eb ff ff       	call   10381c <str_eq>
  104cdd:	83 c4 10             	add    esp,0x10
  104ce0:	85 c0                	test   eax,eax
  104ce2:	74 0a                	je     104cee <shell_dispatch+0xd0>
  104ce4:	e8 d6 ef ff ff       	call   103cbf <cmd_help>
  104ce9:	e9 a3 01 00 00       	jmp    104e91 <shell_dispatch+0x273>
  104cee:	83 ec 08             	sub    esp,0x8
  104cf1:	8d 83 10 ec ff ff    	lea    eax,[ebx-0x13f0]
  104cf7:	50                   	push   eax
  104cf8:	ff 75 f0             	push   DWORD PTR [ebp-0x10]
  104cfb:	e8 1c eb ff ff       	call   10381c <str_eq>
  104d00:	83 c4 10             	add    esp,0x10
  104d03:	85 c0                	test   eax,eax
  104d05:	74 0a                	je     104d11 <shell_dispatch+0xf3>
  104d07:	e8 86 ee ff ff       	call   103b92 <cmd_mem>
  104d0c:	e9 80 01 00 00       	jmp    104e91 <shell_dispatch+0x273>
  104d11:	83 ec 08             	sub    esp,0x8
  104d14:	8d 83 14 ec ff ff    	lea    eax,[ebx-0x13ec]
  104d1a:	50                   	push   eax
  104d1b:	ff 75 f0             	push   DWORD PTR [ebp-0x10]
  104d1e:	e8 f9 ea ff ff       	call   10381c <str_eq>
  104d23:	83 c4 10             	add    esp,0x10
  104d26:	85 c0                	test   eax,eax
  104d28:	74 0a                	je     104d34 <shell_dispatch+0x116>
  104d2a:	e8 33 ed ff ff       	call   103a62 <cmd_uptime>
  104d2f:	e9 5d 01 00 00       	jmp    104e91 <shell_dispatch+0x273>
  104d34:	83 ec 08             	sub    esp,0x8
  104d37:	8d 83 1b ec ff ff    	lea    eax,[ebx-0x13e5]
  104d3d:	50                   	push   eax
  104d3e:	ff 75 f0             	push   DWORD PTR [ebp-0x10]
  104d41:	e8 d6 ea ff ff       	call   10381c <str_eq>
  104d46:	83 c4 10             	add    esp,0x10
  104d49:	85 c0                	test   eax,eax
  104d4b:	74 0a                	je     104d57 <shell_dispatch+0x139>
  104d4d:	e8 83 ec ff ff       	call   1039d5 <cmd_version>
  104d52:	e9 3a 01 00 00       	jmp    104e91 <shell_dispatch+0x273>
  104d57:	83 ec 08             	sub    esp,0x8
  104d5a:	8d 83 23 ec ff ff    	lea    eax,[ebx-0x13dd]
  104d60:	50                   	push   eax
  104d61:	ff 75 f0             	push   DWORD PTR [ebp-0x10]
  104d64:	e8 b3 ea ff ff       	call   10381c <str_eq>
  104d69:	83 c4 10             	add    esp,0x10
  104d6c:	85 c0                	test   eax,eax
  104d6e:	74 13                	je     104d83 <shell_dispatch+0x165>
  104d70:	83 ec 0c             	sub    esp,0xc
  104d73:	ff 75 f4             	push   DWORD PTR [ebp-0xc]
  104d76:	e8 a7 f2 ff ff       	call   104022 <cmd_echo>
  104d7b:	83 c4 10             	add    esp,0x10
  104d7e:	e9 0e 01 00 00       	jmp    104e91 <shell_dispatch+0x273>
  104d83:	83 ec 08             	sub    esp,0x8
  104d86:	8d 83 28 ec ff ff    	lea    eax,[ebx-0x13d8]
  104d8c:	50                   	push   eax
  104d8d:	ff 75 f0             	push   DWORD PTR [ebp-0x10]
  104d90:	e8 87 ea ff ff       	call   10381c <str_eq>
  104d95:	83 c4 10             	add    esp,0x10
  104d98:	85 c0                	test   eax,eax
  104d9a:	74 0a                	je     104da6 <shell_dispatch+0x188>
  104d9c:	e8 d5 f2 ff ff       	call   104076 <cmd_disk>
  104da1:	e9 eb 00 00 00       	jmp    104e91 <shell_dispatch+0x273>
  104da6:	83 ec 08             	sub    esp,0x8
  104da9:	8d 83 2d ec ff ff    	lea    eax,[ebx-0x13d3]
  104daf:	50                   	push   eax
  104db0:	ff 75 f0             	push   DWORD PTR [ebp-0x10]
  104db3:	e8 64 ea ff ff       	call   10381c <str_eq>
  104db8:	83 c4 10             	add    esp,0x10
  104dbb:	85 c0                	test   eax,eax
  104dbd:	74 0a                	je     104dc9 <shell_dispatch+0x1ab>
  104dbf:	e8 ca fb ff ff       	call   10498e <cmd_fsinfo>
  104dc4:	e9 c8 00 00 00       	jmp    104e91 <shell_dispatch+0x273>
  104dc9:	83 ec 08             	sub    esp,0x8
  104dcc:	8d 83 34 ec ff ff    	lea    eax,[ebx-0x13cc]
  104dd2:	50                   	push   eax
  104dd3:	ff 75 f0             	push   DWORD PTR [ebp-0x10]
  104dd6:	e8 41 ea ff ff       	call   10381c <str_eq>
  104ddb:	83 c4 10             	add    esp,0x10
  104dde:	85 c0                	test   eax,eax
  104de0:	74 0a                	je     104dec <shell_dispatch+0x1ce>
  104de2:	e8 c5 fb ff ff       	call   1049ac <cmd_ls>
  104de7:	e9 a5 00 00 00       	jmp    104e91 <shell_dispatch+0x273>
  104dec:	83 ec 08             	sub    esp,0x8
  104def:	8d 83 37 ec ff ff    	lea    eax,[ebx-0x13c9]
  104df5:	50                   	push   eax
  104df6:	ff 75 f0             	push   DWORD PTR [ebp-0x10]
  104df9:	e8 1e ea ff ff       	call   10381c <str_eq>
  104dfe:	83 c4 10             	add    esp,0x10
  104e01:	85 c0                	test   eax,eax
  104e03:	74 10                	je     104e15 <shell_dispatch+0x1f7>
  104e05:	83 ec 0c             	sub    esp,0xc
  104e08:	ff 75 f4             	push   DWORD PTR [ebp-0xc]
  104e0b:	e8 cb fb ff ff       	call   1049db <cmd_cat>
  104e10:	83 c4 10             	add    esp,0x10
  104e13:	eb 7c                	jmp    104e91 <shell_dispatch+0x273>
  104e15:	83 ec 08             	sub    esp,0x8
  104e18:	8d 83 3b ec ff ff    	lea    eax,[ebx-0x13c5]
  104e1e:	50                   	push   eax
  104e1f:	ff 75 f0             	push   DWORD PTR [ebp-0x10]
  104e22:	e8 f5 e9 ff ff       	call   10381c <str_eq>
  104e27:	83 c4 10             	add    esp,0x10
  104e2a:	85 c0                	test   eax,eax
  104e2c:	74 10                	je     104e3e <shell_dispatch+0x220>
  104e2e:	83 ec 0c             	sub    esp,0xc
  104e31:	ff 75 f4             	push   DWORD PTR [ebp-0xc]
  104e34:	e8 cf f3 ff ff       	call   104208 <cmd_diskread>
  104e39:	83 c4 10             	add    esp,0x10
  104e3c:	eb 53                	jmp    104e91 <shell_dispatch+0x273>
  104e3e:	83 ec 08             	sub    esp,0x8
  104e41:	6a 00                	push   0x0
  104e43:	6a 0c                	push   0xc
  104e45:	e8 8f c4 ff ff       	call   1012d9 <vga_set_color>
  104e4a:	83 c4 10             	add    esp,0x10
  104e4d:	83 ec 0c             	sub    esp,0xc
  104e50:	8d 83 44 ec ff ff    	lea    eax,[ebx-0x13bc]
  104e56:	50                   	push   eax
  104e57:	e8 fc ca ff ff       	call   101958 <vga_print>
  104e5c:	83 c4 10             	add    esp,0x10
  104e5f:	83 ec 08             	sub    esp,0x8
  104e62:	6a 00                	push   0x0
  104e64:	6a 0f                	push   0xf
  104e66:	e8 6e c4 ff ff       	call   1012d9 <vga_set_color>
  104e6b:	83 c4 10             	add    esp,0x10
  104e6e:	83 ec 0c             	sub    esp,0xc
  104e71:	ff 75 f0             	push   DWORD PTR [ebp-0x10]
  104e74:	e8 df ca ff ff       	call   101958 <vga_print>
  104e79:	83 c4 10             	add    esp,0x10
  104e7c:	83 ec 0c             	sub    esp,0xc
  104e7f:	8d 83 59 ec ff ff    	lea    eax,[ebx-0x13a7]
  104e85:	50                   	push   eax
  104e86:	e8 cd ca ff ff       	call   101958 <vga_print>
  104e8b:	83 c4 10             	add    esp,0x10
  104e8e:	eb 01                	jmp    104e91 <shell_dispatch+0x273>
  104e90:	90                   	nop
  104e91:	8b 5d fc             	mov    ebx,DWORD PTR [ebp-0x4]
  104e94:	c9                   	leave
  104e95:	c3                   	ret

00104e96 <shell_run>:
  104e96:	55                   	push   ebp
  104e97:	89 e5                	mov    ebp,esp
  104e99:	53                   	push   ebx
  104e9a:	83 ec 14             	sub    esp,0x14
  104e9d:	e8 b4 19 00 00       	call   106856 <__x86.get_pc_thunk.bx>
  104ea2:	81 c3 66 41 00 00    	add    ebx,0x4166
  104ea8:	c7 45 f4 00 00 00 00 	mov    DWORD PTR [ebp-0xc],0x0
  104eaf:	83 ec 08             	sub    esp,0x8
  104eb2:	6a 00                	push   0x0
  104eb4:	6a 0b                	push   0xb
  104eb6:	e8 1e c4 ff ff       	call   1012d9 <vga_set_color>
  104ebb:	83 c4 10             	add    esp,0x10
  104ebe:	83 ec 0c             	sub    esp,0xc
  104ec1:	8d 83 6c ec ff ff    	lea    eax,[ebx-0x1394]
  104ec7:	50                   	push   eax
  104ec8:	e8 8b ca ff ff       	call   101958 <vga_print>
  104ecd:	83 c4 10             	add    esp,0x10
  104ed0:	83 ec 08             	sub    esp,0x8
  104ed3:	6a 00                	push   0x0
  104ed5:	6a 08                	push   0x8
  104ed7:	e8 fd c3 ff ff       	call   1012d9 <vga_set_color>
  104edc:	83 c4 10             	add    esp,0x10
  104edf:	83 ec 0c             	sub    esp,0xc
  104ee2:	8d 83 98 ec ff ff    	lea    eax,[ebx-0x1368]
  104ee8:	50                   	push   eax
  104ee9:	e8 6a ca ff ff       	call   101958 <vga_print>
  104eee:	83 c4 10             	add    esp,0x10
  104ef1:	83 ec 08             	sub    esp,0x8
  104ef4:	6a 00                	push   0x0
  104ef6:	6a 0f                	push   0xf
  104ef8:	e8 dc c3 ff ff       	call   1012d9 <vga_set_color>
  104efd:	83 c4 10             	add    esp,0x10
  104f00:	e8 16 ea ff ff       	call   10391b <shell_prompt>
  104f05:	f4                   	hlt
  104f06:	e9 c7 00 00 00       	jmp    104fd2 <shell_run+0x13c>
  104f0b:	e8 65 e8 ff ff       	call   103775 <keyboard_getchar>
  104f10:	88 45 f3             	mov    BYTE PTR [ebp-0xd],al
  104f13:	80 7d f3 01          	cmp    BYTE PTR [ebp-0xd],0x1
  104f17:	75 0a                	jne    104f23 <shell_run+0x8d>
  104f19:	e8 55 02 00 00       	call   105173 <scroll_pgup>
  104f1e:	e9 af 00 00 00       	jmp    104fd2 <shell_run+0x13c>
  104f23:	80 7d f3 02          	cmp    BYTE PTR [ebp-0xd],0x2
  104f27:	75 0a                	jne    104f33 <shell_run+0x9d>
  104f29:	e8 46 04 00 00       	call   105374 <scroll_pgdn>
  104f2e:	e9 9f 00 00 00       	jmp    104fd2 <shell_run+0x13c>
  104f33:	e8 a5 01 00 00       	call   1050dd <scroll_reset>
  104f38:	80 7d f3 0a          	cmp    BYTE PTR [ebp-0xd],0xa
  104f3c:	75 46                	jne    104f84 <shell_run+0xee>
  104f3e:	8d 93 98 51 01 00    	lea    edx,[ebx+0x15198]
  104f44:	8b 45 f4             	mov    eax,DWORD PTR [ebp-0xc]
  104f47:	01 d0                	add    eax,edx
  104f49:	c6 00 00             	mov    BYTE PTR [eax],0x0
  104f4c:	83 ec 0c             	sub    esp,0xc
  104f4f:	8d 83 3b e7 ff ff    	lea    eax,[ebx-0x18c5]
  104f55:	50                   	push   eax
  104f56:	e8 fd c9 ff ff       	call   101958 <vga_print>
  104f5b:	83 c4 10             	add    esp,0x10
  104f5e:	83 7d f4 00          	cmp    DWORD PTR [ebp-0xc],0x0
  104f62:	74 12                	je     104f76 <shell_run+0xe0>
  104f64:	83 ec 0c             	sub    esp,0xc
  104f67:	8d 83 98 51 01 00    	lea    eax,[ebx+0x15198]
  104f6d:	50                   	push   eax
  104f6e:	e8 ab fc ff ff       	call   104c1e <shell_dispatch>
  104f73:	83 c4 10             	add    esp,0x10
  104f76:	c7 45 f4 00 00 00 00 	mov    DWORD PTR [ebp-0xc],0x0
  104f7d:	e8 99 e9 ff ff       	call   10391b <shell_prompt>
  104f82:	eb 4e                	jmp    104fd2 <shell_run+0x13c>
  104f84:	80 7d f3 08          	cmp    BYTE PTR [ebp-0xd],0x8
  104f88:	75 11                	jne    104f9b <shell_run+0x105>
  104f8a:	83 7d f4 00          	cmp    DWORD PTR [ebp-0xc],0x0
  104f8e:	74 42                	je     104fd2 <shell_run+0x13c>
  104f90:	83 6d f4 01          	sub    DWORD PTR [ebp-0xc],0x1
  104f94:	e8 f8 c9 ff ff       	call   101991 <vga_backspace>
  104f99:	eb 37                	jmp    104fd2 <shell_run+0x13c>
  104f9b:	81 7d f4 fe 00 00 00 	cmp    DWORD PTR [ebp-0xc],0xfe
  104fa2:	77 2e                	ja     104fd2 <shell_run+0x13c>
  104fa4:	8b 45 f4             	mov    eax,DWORD PTR [ebp-0xc]
  104fa7:	8d 50 01             	lea    edx,[eax+0x1]
  104faa:	89 55 f4             	mov    DWORD PTR [ebp-0xc],edx
  104fad:	0f b6 55 f3          	movzx  edx,BYTE PTR [ebp-0xd]
  104fb1:	88 94 03 98 51 01 00 	mov    BYTE PTR [ebx+eax*1+0x15198],dl
  104fb8:	0f b6 45 f3          	movzx  eax,BYTE PTR [ebp-0xd]
  104fbc:	88 45 f1             	mov    BYTE PTR [ebp-0xf],al
  104fbf:	c6 45 f2 00          	mov    BYTE PTR [ebp-0xe],0x0
  104fc3:	83 ec 0c             	sub    esp,0xc
  104fc6:	8d 45 f1             	lea    eax,[ebp-0xf]
  104fc9:	50                   	push   eax
  104fca:	e8 89 c9 ff ff       	call   101958 <vga_print>
  104fcf:	83 c4 10             	add    esp,0x10
  104fd2:	e8 f2 e7 ff ff       	call   1037c9 <keyboard_haschar>
  104fd7:	84 c0                	test   al,al
  104fd9:	0f 85 2c ff ff ff    	jne    104f0b <shell_run+0x75>
  104fdf:	e9 21 ff ff ff       	jmp    104f05 <shell_run+0x6f>

00104fe4 <scroll_init>:
  104fe4:	55                   	push   ebp
  104fe5:	89 e5                	mov    ebp,esp
  104fe7:	e8 6e 18 00 00       	call   10685a <__x86.get_pc_thunk.ax>
  104fec:	05 1c 40 00 00       	add    eax,0x401c
  104ff1:	c7 80 38 df 01 00 00 	mov    DWORD PTR [eax+0x1df38],0x0
  104ff8:	00 00 00 
  104ffb:	c7 80 3c df 01 00 00 	mov    DWORD PTR [eax+0x1df3c],0x0
  105002:	00 00 00 
  105005:	c7 80 40 df 01 00 00 	mov    DWORD PTR [eax+0x1df40],0x0
  10500c:	00 00 00 
  10500f:	90                   	nop
  105010:	5d                   	pop    ebp
  105011:	c3                   	ret

00105012 <scroll_on_newline>:
  105012:	55                   	push   ebp
  105013:	89 e5                	mov    ebp,esp
  105015:	53                   	push   ebx
  105016:	83 ec 10             	sub    esp,0x10
  105019:	e8 44 18 00 00       	call   106862 <__x86.get_pc_thunk.cx>
  10501e:	81 c1 ea 3f 00 00    	add    ecx,0x3fea
  105024:	c7 45 f8 00 00 00 00 	mov    DWORD PTR [ebp-0x8],0x0
  10502b:	eb 31                	jmp    10505e <scroll_on_newline+0x4c>
  10502d:	8b 81 fc ff ff ff    	mov    eax,DWORD PTR [ecx-0x4]
  105033:	8b 55 f8             	mov    edx,DWORD PTR [ebp-0x8]
  105036:	01 d2                	add    edx,edx
  105038:	01 d0                	add    eax,edx
  10503a:	8b 91 38 df 01 00    	mov    edx,DWORD PTR [ecx+0x1df38]
  105040:	0f b7 18             	movzx  ebx,WORD PTR [eax]
  105043:	89 d0                	mov    eax,edx
  105045:	c1 e0 02             	shl    eax,0x2
  105048:	01 d0                	add    eax,edx
  10504a:	c1 e0 04             	shl    eax,0x4
  10504d:	8b 55 f8             	mov    edx,DWORD PTR [ebp-0x8]
  105050:	01 d0                	add    eax,edx
  105052:	66 89 9c 41 98 52 01 	mov    WORD PTR [ecx+eax*2+0x15298],bx
  105059:	00 
  10505a:	83 45 f8 01          	add    DWORD PTR [ebp-0x8],0x1
  10505e:	83 7d f8 4f          	cmp    DWORD PTR [ebp-0x8],0x4f
  105062:	7e c9                	jle    10502d <scroll_on_newline+0x1b>
  105064:	8b 81 38 df 01 00    	mov    eax,DWORD PTR [ecx+0x1df38]
  10506a:	8d 58 01             	lea    ebx,[eax+0x1]
  10506d:	ba 1f 85 eb 51       	mov    edx,0x51eb851f
  105072:	89 d8                	mov    eax,ebx
  105074:	f7 ea                	imul   edx
  105076:	89 d0                	mov    eax,edx
  105078:	c1 f8 06             	sar    eax,0x6
  10507b:	89 da                	mov    edx,ebx
  10507d:	c1 fa 1f             	sar    edx,0x1f
  105080:	29 d0                	sub    eax,edx
  105082:	69 d0 c8 00 00 00    	imul   edx,eax,0xc8
  105088:	89 d8                	mov    eax,ebx
  10508a:	29 d0                	sub    eax,edx
  10508c:	89 81 38 df 01 00    	mov    DWORD PTR [ecx+0x1df38],eax
  105092:	8b 81 3c df 01 00    	mov    eax,DWORD PTR [ecx+0x1df3c]
  105098:	3d c7 00 00 00       	cmp    eax,0xc7
  10509d:	7f 0f                	jg     1050ae <scroll_on_newline+0x9c>
  10509f:	8b 81 3c df 01 00    	mov    eax,DWORD PTR [ecx+0x1df3c]
  1050a5:	83 c0 01             	add    eax,0x1
  1050a8:	89 81 3c df 01 00    	mov    DWORD PTR [ecx+0x1df3c],eax
  1050ae:	8b 81 40 df 01 00    	mov    eax,DWORD PTR [ecx+0x1df40]
  1050b4:	85 c0                	test   eax,eax
  1050b6:	74 1f                	je     1050d7 <scroll_on_newline+0xc5>
  1050b8:	8b 81 40 df 01 00    	mov    eax,DWORD PTR [ecx+0x1df40]
  1050be:	8b 91 3c df 01 00    	mov    edx,DWORD PTR [ecx+0x1df3c]
  1050c4:	39 d0                	cmp    eax,edx
  1050c6:	73 0f                	jae    1050d7 <scroll_on_newline+0xc5>
  1050c8:	8b 81 40 df 01 00    	mov    eax,DWORD PTR [ecx+0x1df40]
  1050ce:	83 c0 01             	add    eax,0x1
  1050d1:	89 81 40 df 01 00    	mov    DWORD PTR [ecx+0x1df40],eax
  1050d7:	90                   	nop
  1050d8:	8b 5d fc             	mov    ebx,DWORD PTR [ebp-0x4]
  1050db:	c9                   	leave
  1050dc:	c3                   	ret

001050dd <scroll_reset>:
  1050dd:	55                   	push   ebp
  1050de:	89 e5                	mov    ebp,esp
  1050e0:	53                   	push   ebx
  1050e1:	83 ec 14             	sub    esp,0x14
  1050e4:	e8 75 17 00 00       	call   10685e <__x86.get_pc_thunk.dx>
  1050e9:	81 c2 1f 3f 00 00    	add    edx,0x3f1f
  1050ef:	8b 82 40 df 01 00    	mov    eax,DWORD PTR [edx+0x1df40]
  1050f5:	85 c0                	test   eax,eax
  1050f7:	74 74                	je     10516d <scroll_reset+0x90>
  1050f9:	c7 45 f4 00 00 00 00 	mov    DWORD PTR [ebp-0xc],0x0
  105100:	eb 52                	jmp    105154 <scroll_reset+0x77>
  105102:	c7 45 f0 00 00 00 00 	mov    DWORD PTR [ebp-0x10],0x0
  105109:	eb 3f                	jmp    10514a <scroll_reset+0x6d>
  10510b:	8b 9a fc ff ff ff    	mov    ebx,DWORD PTR [edx-0x4]
  105111:	8b 4d f4             	mov    ecx,DWORD PTR [ebp-0xc]
  105114:	89 c8                	mov    eax,ecx
  105116:	c1 e0 02             	shl    eax,0x2
  105119:	01 c8                	add    eax,ecx
  10511b:	c1 e0 04             	shl    eax,0x4
  10511e:	89 c1                	mov    ecx,eax
  105120:	8b 45 f0             	mov    eax,DWORD PTR [ebp-0x10]
  105123:	01 c8                	add    eax,ecx
  105125:	01 c0                	add    eax,eax
  105127:	01 c3                	add    ebx,eax
  105129:	8b 4d f4             	mov    ecx,DWORD PTR [ebp-0xc]
  10512c:	89 c8                	mov    eax,ecx
  10512e:	c1 e0 02             	shl    eax,0x2
  105131:	01 c8                	add    eax,ecx
  105133:	c1 e0 04             	shl    eax,0x4
  105136:	8b 4d f0             	mov    ecx,DWORD PTR [ebp-0x10]
  105139:	01 c8                	add    eax,ecx
  10513b:	0f b7 84 42 98 cf 01 	movzx  eax,WORD PTR [edx+eax*2+0x1cf98]
  105142:	00 
  105143:	66 89 03             	mov    WORD PTR [ebx],ax
  105146:	83 45 f0 01          	add    DWORD PTR [ebp-0x10],0x1
  10514a:	83 7d f0 4f          	cmp    DWORD PTR [ebp-0x10],0x4f
  10514e:	7e bb                	jle    10510b <scroll_reset+0x2e>
  105150:	83 45 f4 01          	add    DWORD PTR [ebp-0xc],0x1
  105154:	83 7d f4 18          	cmp    DWORD PTR [ebp-0xc],0x18
  105158:	7e a8                	jle    105102 <scroll_reset+0x25>
  10515a:	c7 82 40 df 01 00 00 	mov    DWORD PTR [edx+0x1df40],0x0
  105161:	00 00 00 
  105164:	89 d3                	mov    ebx,edx
  105166:	e8 94 c6 ff ff       	call   1017ff <vga_set_cursor>
  10516b:	eb 01                	jmp    10516e <scroll_reset+0x91>
  10516d:	90                   	nop
  10516e:	8b 5d fc             	mov    ebx,DWORD PTR [ebp-0x4]
  105171:	c9                   	leave
  105172:	c3                   	ret

00105173 <scroll_pgup>:
  105173:	55                   	push   ebp
  105174:	89 e5                	mov    ebp,esp
  105176:	56                   	push   esi
  105177:	53                   	push   ebx
  105178:	83 ec 30             	sub    esp,0x30
  10517b:	e8 e2 16 00 00       	call   106862 <__x86.get_pc_thunk.cx>
  105180:	81 c1 88 3e 00 00    	add    ecx,0x3e88
  105186:	8b 81 3c df 01 00    	mov    eax,DWORD PTR [ecx+0x1df3c]
  10518c:	85 c0                	test   eax,eax
  10518e:	0f 84 d5 01 00 00    	je     105369 <scroll_pgup+0x1f6>
  105194:	8b 81 40 df 01 00    	mov    eax,DWORD PTR [ecx+0x1df40]
  10519a:	85 c0                	test   eax,eax
  10519c:	75 61                	jne    1051ff <scroll_pgup+0x8c>
  10519e:	c7 45 f4 00 00 00 00 	mov    DWORD PTR [ebp-0xc],0x0
  1051a5:	eb 52                	jmp    1051f9 <scroll_pgup+0x86>
  1051a7:	c7 45 f0 00 00 00 00 	mov    DWORD PTR [ebp-0x10],0x0
  1051ae:	eb 3f                	jmp    1051ef <scroll_pgup+0x7c>
  1051b0:	8b 99 fc ff ff ff    	mov    ebx,DWORD PTR [ecx-0x4]
  1051b6:	8b 55 f4             	mov    edx,DWORD PTR [ebp-0xc]
  1051b9:	89 d0                	mov    eax,edx
  1051bb:	c1 e0 02             	shl    eax,0x2
  1051be:	01 d0                	add    eax,edx
  1051c0:	c1 e0 04             	shl    eax,0x4
  1051c3:	89 c2                	mov    edx,eax
  1051c5:	8b 45 f0             	mov    eax,DWORD PTR [ebp-0x10]
  1051c8:	01 d0                	add    eax,edx
  1051ca:	01 c0                	add    eax,eax
  1051cc:	01 d8                	add    eax,ebx
  1051ce:	0f b7 18             	movzx  ebx,WORD PTR [eax]
  1051d1:	8b 55 f4             	mov    edx,DWORD PTR [ebp-0xc]
  1051d4:	89 d0                	mov    eax,edx
  1051d6:	c1 e0 02             	shl    eax,0x2
  1051d9:	01 d0                	add    eax,edx
  1051db:	c1 e0 04             	shl    eax,0x4
  1051de:	8b 55 f0             	mov    edx,DWORD PTR [ebp-0x10]
  1051e1:	01 d0                	add    eax,edx
  1051e3:	66 89 9c 41 98 cf 01 	mov    WORD PTR [ecx+eax*2+0x1cf98],bx
  1051ea:	00 
  1051eb:	83 45 f0 01          	add    DWORD PTR [ebp-0x10],0x1
  1051ef:	83 7d f0 4f          	cmp    DWORD PTR [ebp-0x10],0x4f
  1051f3:	7e bb                	jle    1051b0 <scroll_pgup+0x3d>
  1051f5:	83 45 f4 01          	add    DWORD PTR [ebp-0xc],0x1
  1051f9:	83 7d f4 18          	cmp    DWORD PTR [ebp-0xc],0x18
  1051fd:	7e a8                	jle    1051a7 <scroll_pgup+0x34>
  1051ff:	8b 81 3c df 01 00    	mov    eax,DWORD PTR [ecx+0x1df3c]
  105205:	8b 91 40 df 01 00    	mov    edx,DWORD PTR [ecx+0x1df40]
  10520b:	29 d0                	sub    eax,edx
  10520d:	89 45 d4             	mov    DWORD PTR [ebp-0x2c],eax
  105210:	83 7d d4 00          	cmp    DWORD PTR [ebp-0x2c],0x0
  105214:	0f 8e 52 01 00 00    	jle    10536c <scroll_pgup+0x1f9>
  10521a:	c7 45 ec 0c 00 00 00 	mov    DWORD PTR [ebp-0x14],0xc
  105221:	8b 45 ec             	mov    eax,DWORD PTR [ebp-0x14]
  105224:	3b 45 d4             	cmp    eax,DWORD PTR [ebp-0x2c]
  105227:	7e 06                	jle    10522f <scroll_pgup+0xbc>
  105229:	8b 45 d4             	mov    eax,DWORD PTR [ebp-0x2c]
  10522c:	89 45 ec             	mov    DWORD PTR [ebp-0x14],eax
  10522f:	c7 45 e8 18 00 00 00 	mov    DWORD PTR [ebp-0x18],0x18
  105236:	eb 5f                	jmp    105297 <scroll_pgup+0x124>
  105238:	c7 45 e4 00 00 00 00 	mov    DWORD PTR [ebp-0x1c],0x0
  10523f:	eb 4c                	jmp    10528d <scroll_pgup+0x11a>
  105241:	8b 99 fc ff ff ff    	mov    ebx,DWORD PTR [ecx-0x4]
  105247:	8b 45 e8             	mov    eax,DWORD PTR [ebp-0x18]
  10524a:	2b 45 ec             	sub    eax,DWORD PTR [ebp-0x14]
  10524d:	89 c2                	mov    edx,eax
  10524f:	89 d0                	mov    eax,edx
  105251:	c1 e0 02             	shl    eax,0x2
  105254:	01 d0                	add    eax,edx
  105256:	c1 e0 04             	shl    eax,0x4
  105259:	89 c2                	mov    edx,eax
  10525b:	8b 45 e4             	mov    eax,DWORD PTR [ebp-0x1c]
  10525e:	01 d0                	add    eax,edx
  105260:	01 c0                	add    eax,eax
  105262:	01 c3                	add    ebx,eax
  105264:	8b b1 fc ff ff ff    	mov    esi,DWORD PTR [ecx-0x4]
  10526a:	8b 55 e8             	mov    edx,DWORD PTR [ebp-0x18]
  10526d:	89 d0                	mov    eax,edx
  10526f:	c1 e0 02             	shl    eax,0x2
  105272:	01 d0                	add    eax,edx
  105274:	c1 e0 04             	shl    eax,0x4
  105277:	89 c2                	mov    edx,eax
  105279:	8b 45 e4             	mov    eax,DWORD PTR [ebp-0x1c]
  10527c:	01 d0                	add    eax,edx
  10527e:	01 c0                	add    eax,eax
  105280:	8d 14 06             	lea    edx,[esi+eax*1]
  105283:	0f b7 03             	movzx  eax,WORD PTR [ebx]
  105286:	66 89 02             	mov    WORD PTR [edx],ax
  105289:	83 45 e4 01          	add    DWORD PTR [ebp-0x1c],0x1
  10528d:	83 7d e4 4f          	cmp    DWORD PTR [ebp-0x1c],0x4f
  105291:	7e ae                	jle    105241 <scroll_pgup+0xce>
  105293:	83 6d e8 01          	sub    DWORD PTR [ebp-0x18],0x1
  105297:	8b 45 e8             	mov    eax,DWORD PTR [ebp-0x18]
  10529a:	3b 45 ec             	cmp    eax,DWORD PTR [ebp-0x14]
  10529d:	7d 99                	jge    105238 <scroll_pgup+0xc5>
  10529f:	c7 45 e0 00 00 00 00 	mov    DWORD PTR [ebp-0x20],0x0
  1052a6:	e9 9f 00 00 00       	jmp    10534a <scroll_pgup+0x1d7>
  1052ab:	8b 81 38 df 01 00    	mov    eax,DWORD PTR [ecx+0x1df38]
  1052b1:	8b 91 40 df 01 00    	mov    edx,DWORD PTR [ecx+0x1df40]
  1052b7:	29 d0                	sub    eax,edx
  1052b9:	2b 45 ec             	sub    eax,DWORD PTR [ebp-0x14]
  1052bc:	89 c2                	mov    edx,eax
  1052be:	8b 45 e0             	mov    eax,DWORD PTR [ebp-0x20]
  1052c1:	01 d0                	add    eax,edx
  1052c3:	89 45 dc             	mov    DWORD PTR [ebp-0x24],eax
  1052c6:	eb 07                	jmp    1052cf <scroll_pgup+0x15c>
  1052c8:	81 45 dc c8 00 00 00 	add    DWORD PTR [ebp-0x24],0xc8
  1052cf:	83 7d dc 00          	cmp    DWORD PTR [ebp-0x24],0x0
  1052d3:	78 f3                	js     1052c8 <scroll_pgup+0x155>
  1052d5:	8b 5d dc             	mov    ebx,DWORD PTR [ebp-0x24]
  1052d8:	ba 1f 85 eb 51       	mov    edx,0x51eb851f
  1052dd:	89 d8                	mov    eax,ebx
  1052df:	f7 ea                	imul   edx
  1052e1:	c1 fa 06             	sar    edx,0x6
  1052e4:	89 d8                	mov    eax,ebx
  1052e6:	c1 f8 1f             	sar    eax,0x1f
  1052e9:	29 c2                	sub    edx,eax
  1052eb:	69 c2 c8 00 00 00    	imul   eax,edx,0xc8
  1052f1:	29 c3                	sub    ebx,eax
  1052f3:	89 da                	mov    edx,ebx
  1052f5:	89 55 dc             	mov    DWORD PTR [ebp-0x24],edx
  1052f8:	c7 45 d8 00 00 00 00 	mov    DWORD PTR [ebp-0x28],0x0
  1052ff:	eb 3f                	jmp    105340 <scroll_pgup+0x1cd>
  105301:	8b 99 fc ff ff ff    	mov    ebx,DWORD PTR [ecx-0x4]
  105307:	8b 55 e0             	mov    edx,DWORD PTR [ebp-0x20]
  10530a:	89 d0                	mov    eax,edx
  10530c:	c1 e0 02             	shl    eax,0x2
  10530f:	01 d0                	add    eax,edx
  105311:	c1 e0 04             	shl    eax,0x4
  105314:	89 c2                	mov    edx,eax
  105316:	8b 45 d8             	mov    eax,DWORD PTR [ebp-0x28]
  105319:	01 d0                	add    eax,edx
  10531b:	01 c0                	add    eax,eax
  10531d:	01 c3                	add    ebx,eax
  10531f:	8b 55 dc             	mov    edx,DWORD PTR [ebp-0x24]
  105322:	89 d0                	mov    eax,edx
  105324:	c1 e0 02             	shl    eax,0x2
  105327:	01 d0                	add    eax,edx
  105329:	c1 e0 04             	shl    eax,0x4
  10532c:	8b 55 d8             	mov    edx,DWORD PTR [ebp-0x28]
  10532f:	01 d0                	add    eax,edx
  105331:	0f b7 84 41 98 52 01 	movzx  eax,WORD PTR [ecx+eax*2+0x15298]
  105338:	00 
  105339:	66 89 03             	mov    WORD PTR [ebx],ax
  10533c:	83 45 d8 01          	add    DWORD PTR [ebp-0x28],0x1
  105340:	83 7d d8 4f          	cmp    DWORD PTR [ebp-0x28],0x4f
  105344:	7e bb                	jle    105301 <scroll_pgup+0x18e>
  105346:	83 45 e0 01          	add    DWORD PTR [ebp-0x20],0x1
  10534a:	8b 45 e0             	mov    eax,DWORD PTR [ebp-0x20]
  10534d:	3b 45 ec             	cmp    eax,DWORD PTR [ebp-0x14]
  105350:	0f 8c 55 ff ff ff    	jl     1052ab <scroll_pgup+0x138>
  105356:	8b 91 40 df 01 00    	mov    edx,DWORD PTR [ecx+0x1df40]
  10535c:	8b 45 ec             	mov    eax,DWORD PTR [ebp-0x14]
  10535f:	01 d0                	add    eax,edx
  105361:	89 81 40 df 01 00    	mov    DWORD PTR [ecx+0x1df40],eax
  105367:	eb 04                	jmp    10536d <scroll_pgup+0x1fa>
  105369:	90                   	nop
  10536a:	eb 01                	jmp    10536d <scroll_pgup+0x1fa>
  10536c:	90                   	nop
  10536d:	83 c4 30             	add    esp,0x30
  105370:	5b                   	pop    ebx
  105371:	5e                   	pop    esi
  105372:	5d                   	pop    ebp
  105373:	c3                   	ret

00105374 <scroll_pgdn>:
  105374:	55                   	push   ebp
  105375:	89 e5                	mov    ebp,esp
  105377:	83 ec 08             	sub    esp,0x8
  10537a:	e8 db 14 00 00       	call   10685a <__x86.get_pc_thunk.ax>
  10537f:	05 89 3c 00 00       	add    eax,0x3c89
  105384:	8b 80 40 df 01 00    	mov    eax,DWORD PTR [eax+0x1df40]
  10538a:	85 c0                	test   eax,eax
  10538c:	74 07                	je     105395 <scroll_pgdn+0x21>
  10538e:	e8 4a fd ff ff       	call   1050dd <scroll_reset>
  105393:	eb 01                	jmp    105396 <scroll_pgdn+0x22>
  105395:	90                   	nop
  105396:	c9                   	leave
  105397:	c3                   	ret

00105398 <outb>:
  105398:	55                   	push   ebp
  105399:	89 e5                	mov    ebp,esp
  10539b:	83 ec 08             	sub    esp,0x8
  10539e:	e8 b7 14 00 00       	call   10685a <__x86.get_pc_thunk.ax>
  1053a3:	05 65 3c 00 00       	add    eax,0x3c65
  1053a8:	8b 55 08             	mov    edx,DWORD PTR [ebp+0x8]
  1053ab:	8b 45 0c             	mov    eax,DWORD PTR [ebp+0xc]
  1053ae:	66 89 55 fc          	mov    WORD PTR [ebp-0x4],dx
  1053b2:	88 45 f8             	mov    BYTE PTR [ebp-0x8],al
  1053b5:	0f b7 55 fc          	movzx  edx,WORD PTR [ebp-0x4]
  1053b9:	0f b6 45 f8          	movzx  eax,BYTE PTR [ebp-0x8]
  1053bd:	ee                   	out    dx,al
  1053be:	90                   	nop
  1053bf:	c9                   	leave
  1053c0:	c3                   	ret

001053c1 <inb>:
  1053c1:	55                   	push   ebp
  1053c2:	89 e5                	mov    ebp,esp
  1053c4:	83 ec 14             	sub    esp,0x14
  1053c7:	e8 8e 14 00 00       	call   10685a <__x86.get_pc_thunk.ax>
  1053cc:	05 3c 3c 00 00       	add    eax,0x3c3c
  1053d1:	8b 45 08             	mov    eax,DWORD PTR [ebp+0x8]
  1053d4:	66 89 45 ec          	mov    WORD PTR [ebp-0x14],ax
  1053d8:	0f b7 45 ec          	movzx  eax,WORD PTR [ebp-0x14]
  1053dc:	89 c2                	mov    edx,eax
  1053de:	ec                   	in     al,dx
  1053df:	88 45 ff             	mov    BYTE PTR [ebp-0x1],al
  1053e2:	0f b6 45 ff          	movzx  eax,BYTE PTR [ebp-0x1]
  1053e6:	c9                   	leave
  1053e7:	c3                   	ret

001053e8 <inw>:
  1053e8:	55                   	push   ebp
  1053e9:	89 e5                	mov    ebp,esp
  1053eb:	83 ec 14             	sub    esp,0x14
  1053ee:	e8 67 14 00 00       	call   10685a <__x86.get_pc_thunk.ax>
  1053f3:	05 15 3c 00 00       	add    eax,0x3c15
  1053f8:	8b 45 08             	mov    eax,DWORD PTR [ebp+0x8]
  1053fb:	66 89 45 ec          	mov    WORD PTR [ebp-0x14],ax
  1053ff:	0f b7 45 ec          	movzx  eax,WORD PTR [ebp-0x14]
  105403:	89 c2                	mov    edx,eax
  105405:	66 ed                	in     ax,dx
  105407:	66 89 45 fe          	mov    WORD PTR [ebp-0x2],ax
  10540b:	0f b7 45 fe          	movzx  eax,WORD PTR [ebp-0x2]
  10540f:	c9                   	leave
  105410:	c3                   	ret

00105411 <outw>:
  105411:	55                   	push   ebp
  105412:	89 e5                	mov    ebp,esp
  105414:	83 ec 08             	sub    esp,0x8
  105417:	e8 3e 14 00 00       	call   10685a <__x86.get_pc_thunk.ax>
  10541c:	05 ec 3b 00 00       	add    eax,0x3bec
  105421:	8b 55 08             	mov    edx,DWORD PTR [ebp+0x8]
  105424:	8b 45 0c             	mov    eax,DWORD PTR [ebp+0xc]
  105427:	66 89 55 fc          	mov    WORD PTR [ebp-0x4],dx
  10542b:	66 89 45 f8          	mov    WORD PTR [ebp-0x8],ax
  10542f:	0f b7 55 fc          	movzx  edx,WORD PTR [ebp-0x4]
  105433:	0f b7 45 f8          	movzx  eax,WORD PTR [ebp-0x8]
  105437:	66 ef                	out    dx,ax
  105439:	90                   	nop
  10543a:	c9                   	leave
  10543b:	c3                   	ret

0010543c <ata_wait_ready>:
  10543c:	55                   	push   ebp
  10543d:	89 e5                	mov    ebp,esp
  10543f:	83 ec 10             	sub    esp,0x10
  105442:	e8 13 14 00 00       	call   10685a <__x86.get_pc_thunk.ax>
  105447:	05 c1 3b 00 00       	add    eax,0x3bc1
  10544c:	c7 45 fc 00 00 10 00 	mov    DWORD PTR [ebp-0x4],0x100000
  105453:	eb 3c                	jmp    105491 <ata_wait_ready+0x55>
  105455:	68 f7 01 00 00       	push   0x1f7
  10545a:	e8 62 ff ff ff       	call   1053c1 <inb>
  10545f:	83 c4 04             	add    esp,0x4
  105462:	88 45 fb             	mov    BYTE PTR [ebp-0x5],al
  105465:	0f b6 45 fb          	movzx  eax,BYTE PTR [ebp-0x5]
  105469:	83 e0 01             	and    eax,0x1
  10546c:	85 c0                	test   eax,eax
  10546e:	74 07                	je     105477 <ata_wait_ready+0x3b>
  105470:	b8 ff ff ff ff       	mov    eax,0xffffffff
  105475:	eb 2c                	jmp    1054a3 <ata_wait_ready+0x67>
  105477:	0f b6 45 fb          	movzx  eax,BYTE PTR [ebp-0x5]
  10547b:	84 c0                	test   al,al
  10547d:	78 12                	js     105491 <ata_wait_ready+0x55>
  10547f:	0f b6 45 fb          	movzx  eax,BYTE PTR [ebp-0x5]
  105483:	83 e0 40             	and    eax,0x40
  105486:	85 c0                	test   eax,eax
  105488:	74 07                	je     105491 <ata_wait_ready+0x55>
  10548a:	b8 00 00 00 00       	mov    eax,0x0
  10548f:	eb 12                	jmp    1054a3 <ata_wait_ready+0x67>
  105491:	8b 45 fc             	mov    eax,DWORD PTR [ebp-0x4]
  105494:	8d 50 ff             	lea    edx,[eax-0x1]
  105497:	89 55 fc             	mov    DWORD PTR [ebp-0x4],edx
  10549a:	85 c0                	test   eax,eax
  10549c:	75 b7                	jne    105455 <ata_wait_ready+0x19>
  10549e:	b8 ff ff ff ff       	mov    eax,0xffffffff
  1054a3:	c9                   	leave
  1054a4:	c3                   	ret

001054a5 <ata_wait_drq>:
  1054a5:	55                   	push   ebp
  1054a6:	89 e5                	mov    ebp,esp
  1054a8:	83 ec 10             	sub    esp,0x10
  1054ab:	e8 aa 13 00 00       	call   10685a <__x86.get_pc_thunk.ax>
  1054b0:	05 58 3b 00 00       	add    eax,0x3b58
  1054b5:	c7 45 fc 00 00 10 00 	mov    DWORD PTR [ebp-0x4],0x100000
  1054bc:	eb 3c                	jmp    1054fa <ata_wait_drq+0x55>
  1054be:	68 f7 01 00 00       	push   0x1f7
  1054c3:	e8 f9 fe ff ff       	call   1053c1 <inb>
  1054c8:	83 c4 04             	add    esp,0x4
  1054cb:	88 45 fb             	mov    BYTE PTR [ebp-0x5],al
  1054ce:	0f b6 45 fb          	movzx  eax,BYTE PTR [ebp-0x5]
  1054d2:	83 e0 01             	and    eax,0x1
  1054d5:	85 c0                	test   eax,eax
  1054d7:	74 07                	je     1054e0 <ata_wait_drq+0x3b>
  1054d9:	b8 ff ff ff ff       	mov    eax,0xffffffff
  1054de:	eb 2c                	jmp    10550c <ata_wait_drq+0x67>
  1054e0:	0f b6 45 fb          	movzx  eax,BYTE PTR [ebp-0x5]
  1054e4:	84 c0                	test   al,al
  1054e6:	78 12                	js     1054fa <ata_wait_drq+0x55>
  1054e8:	0f b6 45 fb          	movzx  eax,BYTE PTR [ebp-0x5]
  1054ec:	83 e0 08             	and    eax,0x8
  1054ef:	85 c0                	test   eax,eax
  1054f1:	74 07                	je     1054fa <ata_wait_drq+0x55>
  1054f3:	b8 00 00 00 00       	mov    eax,0x0
  1054f8:	eb 12                	jmp    10550c <ata_wait_drq+0x67>
  1054fa:	8b 45 fc             	mov    eax,DWORD PTR [ebp-0x4]
  1054fd:	8d 50 ff             	lea    edx,[eax-0x1]
  105500:	89 55 fc             	mov    DWORD PTR [ebp-0x4],edx
  105503:	85 c0                	test   eax,eax
  105505:	75 b7                	jne    1054be <ata_wait_drq+0x19>
  105507:	b8 ff ff ff ff       	mov    eax,0xffffffff
  10550c:	c9                   	leave
  10550d:	c3                   	ret

0010550e <ata_identify>:
  10550e:	55                   	push   ebp
  10550f:	89 e5                	mov    ebp,esp
  105511:	53                   	push   ebx
  105512:	81 ec 20 02 00 00    	sub    esp,0x220
  105518:	e8 39 13 00 00       	call   106856 <__x86.get_pc_thunk.bx>
  10551d:	81 c3 eb 3a 00 00    	add    ebx,0x3aeb
  105523:	68 a0 00 00 00       	push   0xa0
  105528:	68 f6 01 00 00       	push   0x1f6
  10552d:	e8 66 fe ff ff       	call   105398 <outb>
  105532:	83 c4 08             	add    esp,0x8
  105535:	6a 00                	push   0x0
  105537:	68 f2 01 00 00       	push   0x1f2
  10553c:	e8 57 fe ff ff       	call   105398 <outb>
  105541:	83 c4 08             	add    esp,0x8
  105544:	6a 00                	push   0x0
  105546:	68 f3 01 00 00       	push   0x1f3
  10554b:	e8 48 fe ff ff       	call   105398 <outb>
  105550:	83 c4 08             	add    esp,0x8
  105553:	6a 00                	push   0x0
  105555:	68 f4 01 00 00       	push   0x1f4
  10555a:	e8 39 fe ff ff       	call   105398 <outb>
  10555f:	83 c4 08             	add    esp,0x8
  105562:	6a 00                	push   0x0
  105564:	68 f5 01 00 00       	push   0x1f5
  105569:	e8 2a fe ff ff       	call   105398 <outb>
  10556e:	83 c4 08             	add    esp,0x8
  105571:	68 ec 00 00 00       	push   0xec
  105576:	68 f7 01 00 00       	push   0x1f7
  10557b:	e8 18 fe ff ff       	call   105398 <outb>
  105580:	83 c4 08             	add    esp,0x8
  105583:	68 f7 01 00 00       	push   0x1f7
  105588:	e8 34 fe ff ff       	call   1053c1 <inb>
  10558d:	83 c4 04             	add    esp,0x4
  105590:	88 45 eb             	mov    BYTE PTR [ebp-0x15],al
  105593:	80 7d eb 00          	cmp    BYTE PTR [ebp-0x15],0x0
  105597:	75 0a                	jne    1055a3 <ata_identify+0x95>
  105599:	b8 ff ff ff ff       	mov    eax,0xffffffff
  10559e:	e9 65 01 00 00       	jmp    105708 <ata_identify+0x1fa>
  1055a3:	c7 45 f8 00 00 10 00 	mov    DWORD PTR [ebp-0x8],0x100000
  1055aa:	eb 18                	jmp    1055c4 <ata_identify+0xb6>
  1055ac:	68 f7 01 00 00       	push   0x1f7
  1055b1:	e8 0b fe ff ff       	call   1053c1 <inb>
  1055b6:	83 c4 04             	add    esp,0x4
  1055b9:	88 45 eb             	mov    BYTE PTR [ebp-0x15],al
  1055bc:	0f b6 45 eb          	movzx  eax,BYTE PTR [ebp-0x15]
  1055c0:	84 c0                	test   al,al
  1055c2:	79 0f                	jns    1055d3 <ata_identify+0xc5>
  1055c4:	8b 45 f8             	mov    eax,DWORD PTR [ebp-0x8]
  1055c7:	8d 50 ff             	lea    edx,[eax-0x1]
  1055ca:	89 55 f8             	mov    DWORD PTR [ebp-0x8],edx
  1055cd:	85 c0                	test   eax,eax
  1055cf:	75 db                	jne    1055ac <ata_identify+0x9e>
  1055d1:	eb 01                	jmp    1055d4 <ata_identify+0xc6>
  1055d3:	90                   	nop
  1055d4:	83 7d f8 00          	cmp    DWORD PTR [ebp-0x8],0x0
  1055d8:	75 0a                	jne    1055e4 <ata_identify+0xd6>
  1055da:	b8 ff ff ff ff       	mov    eax,0xffffffff
  1055df:	e9 24 01 00 00       	jmp    105708 <ata_identify+0x1fa>
  1055e4:	68 f4 01 00 00       	push   0x1f4
  1055e9:	e8 d3 fd ff ff       	call   1053c1 <inb>
  1055ee:	83 c4 04             	add    esp,0x4
  1055f1:	84 c0                	test   al,al
  1055f3:	75 11                	jne    105606 <ata_identify+0xf8>
  1055f5:	68 f5 01 00 00       	push   0x1f5
  1055fa:	e8 c2 fd ff ff       	call   1053c1 <inb>
  1055ff:	83 c4 04             	add    esp,0x4
  105602:	84 c0                	test   al,al
  105604:	74 0a                	je     105610 <ata_identify+0x102>
  105606:	b8 ff ff ff ff       	mov    eax,0xffffffff
  10560b:	e9 f8 00 00 00       	jmp    105708 <ata_identify+0x1fa>
  105610:	e8 90 fe ff ff       	call   1054a5 <ata_wait_drq>
  105615:	85 c0                	test   eax,eax
  105617:	74 0a                	je     105623 <ata_identify+0x115>
  105619:	b8 ff ff ff ff       	mov    eax,0xffffffff
  10561e:	e9 e5 00 00 00       	jmp    105708 <ata_identify+0x1fa>
  105623:	c7 45 f4 00 00 00 00 	mov    DWORD PTR [ebp-0xc],0x0
  10562a:	eb 1c                	jmp    105648 <ata_identify+0x13a>
  10562c:	68 f0 01 00 00       	push   0x1f0
  105631:	e8 b2 fd ff ff       	call   1053e8 <inw>
  105636:	83 c4 04             	add    esp,0x4
  105639:	8b 55 f4             	mov    edx,DWORD PTR [ebp-0xc]
  10563c:	66 89 84 55 ea fd ff 	mov    WORD PTR [ebp+edx*2-0x216],ax
  105643:	ff 
  105644:	83 45 f4 01          	add    DWORD PTR [ebp-0xc],0x1
  105648:	81 7d f4 ff 00 00 00 	cmp    DWORD PTR [ebp-0xc],0xff
  10564f:	7e db                	jle    10562c <ata_identify+0x11e>
  105651:	0f b7 85 64 fe ff ff 	movzx  eax,WORD PTR [ebp-0x19c]
  105658:	0f b7 c0             	movzx  eax,ax
  10565b:	c1 e0 10             	shl    eax,0x10
  10565e:	89 c2                	mov    edx,eax
  105660:	0f b7 85 62 fe ff ff 	movzx  eax,WORD PTR [ebp-0x19e]
  105667:	0f b7 c0             	movzx  eax,ax
  10566a:	09 d0                	or     eax,edx
  10566c:	89 83 5c df 01 00    	mov    DWORD PTR [ebx+0x1df5c],eax
  105672:	c7 45 f0 00 00 00 00 	mov    DWORD PTR [ebp-0x10],0x0
  105679:	eb 41                	jmp    1056bc <ata_identify+0x1ae>
  10567b:	8b 45 f0             	mov    eax,DWORD PTR [ebp-0x10]
  10567e:	83 c0 1b             	add    eax,0x1b
  105681:	0f b7 84 45 ea fd ff 	movzx  eax,WORD PTR [ebp+eax*2-0x216]
  105688:	ff 
  105689:	66 c1 e8 08          	shr    ax,0x8
  10568d:	89 c2                	mov    edx,eax
  10568f:	8b 45 f0             	mov    eax,DWORD PTR [ebp-0x10]
  105692:	01 c0                	add    eax,eax
  105694:	88 94 03 60 df 01 00 	mov    BYTE PTR [ebx+eax*1+0x1df60],dl
  10569b:	8b 45 f0             	mov    eax,DWORD PTR [ebp-0x10]
  10569e:	83 c0 1b             	add    eax,0x1b
  1056a1:	0f b7 94 45 ea fd ff 	movzx  edx,WORD PTR [ebp+eax*2-0x216]
  1056a8:	ff 
  1056a9:	8b 45 f0             	mov    eax,DWORD PTR [ebp-0x10]
  1056ac:	01 c0                	add    eax,eax
  1056ae:	83 c0 01             	add    eax,0x1
  1056b1:	88 94 03 60 df 01 00 	mov    BYTE PTR [ebx+eax*1+0x1df60],dl
  1056b8:	83 45 f0 01          	add    DWORD PTR [ebp-0x10],0x1
  1056bc:	83 7d f0 13          	cmp    DWORD PTR [ebp-0x10],0x13
  1056c0:	7e b9                	jle    10567b <ata_identify+0x16d>
  1056c2:	c6 83 88 df 01 00 00 	mov    BYTE PTR [ebx+0x1df88],0x0
  1056c9:	c7 45 ec 27 00 00 00 	mov    DWORD PTR [ebp-0x14],0x27
  1056d0:	eb 12                	jmp    1056e4 <ata_identify+0x1d6>
  1056d2:	8d 93 60 df 01 00    	lea    edx,[ebx+0x1df60]
  1056d8:	8b 45 ec             	mov    eax,DWORD PTR [ebp-0x14]
  1056db:	01 d0                	add    eax,edx
  1056dd:	c6 00 00             	mov    BYTE PTR [eax],0x0
  1056e0:	83 6d ec 01          	sub    DWORD PTR [ebp-0x14],0x1
  1056e4:	83 7d ec 00          	cmp    DWORD PTR [ebp-0x14],0x0
  1056e8:	78 12                	js     1056fc <ata_identify+0x1ee>
  1056ea:	8d 93 60 df 01 00    	lea    edx,[ebx+0x1df60]
  1056f0:	8b 45 ec             	mov    eax,DWORD PTR [ebp-0x14]
  1056f3:	01 d0                	add    eax,edx
  1056f5:	0f b6 00             	movzx  eax,BYTE PTR [eax]
  1056f8:	3c 20                	cmp    al,0x20
  1056fa:	74 d6                	je     1056d2 <ata_identify+0x1c4>
  1056fc:	c6 83 58 df 01 00 01 	mov    BYTE PTR [ebx+0x1df58],0x1
  105703:	b8 00 00 00 00       	mov    eax,0x0
  105708:	8b 5d fc             	mov    ebx,DWORD PTR [ebp-0x4]
  10570b:	c9                   	leave
  10570c:	c3                   	ret

0010570d <ata_setup_lba>:
  10570d:	55                   	push   ebp
  10570e:	89 e5                	mov    ebp,esp
  105710:	83 ec 04             	sub    esp,0x4
  105713:	e8 42 11 00 00       	call   10685a <__x86.get_pc_thunk.ax>
  105718:	05 f0 38 00 00       	add    eax,0x38f0
  10571d:	8b 45 0c             	mov    eax,DWORD PTR [ebp+0xc]
  105720:	88 45 fc             	mov    BYTE PTR [ebp-0x4],al
  105723:	8b 45 08             	mov    eax,DWORD PTR [ebp+0x8]
  105726:	c1 e8 18             	shr    eax,0x18
  105729:	83 e0 0f             	and    eax,0xf
  10572c:	83 c8 e0             	or     eax,0xffffffe0
  10572f:	0f b6 c0             	movzx  eax,al
  105732:	50                   	push   eax
  105733:	68 f6 01 00 00       	push   0x1f6
  105738:	e8 5b fc ff ff       	call   105398 <outb>
  10573d:	83 c4 08             	add    esp,0x8
  105740:	6a 00                	push   0x0
  105742:	68 f1 01 00 00       	push   0x1f1
  105747:	e8 4c fc ff ff       	call   105398 <outb>
  10574c:	83 c4 08             	add    esp,0x8
  10574f:	0f b6 45 fc          	movzx  eax,BYTE PTR [ebp-0x4]
  105753:	50                   	push   eax
  105754:	68 f2 01 00 00       	push   0x1f2
  105759:	e8 3a fc ff ff       	call   105398 <outb>
  10575e:	83 c4 08             	add    esp,0x8
  105761:	8b 45 08             	mov    eax,DWORD PTR [ebp+0x8]
  105764:	0f b6 c0             	movzx  eax,al
  105767:	50                   	push   eax
  105768:	68 f3 01 00 00       	push   0x1f3
  10576d:	e8 26 fc ff ff       	call   105398 <outb>
  105772:	83 c4 08             	add    esp,0x8
  105775:	8b 45 08             	mov    eax,DWORD PTR [ebp+0x8]
  105778:	c1 e8 08             	shr    eax,0x8
  10577b:	0f b6 c0             	movzx  eax,al
  10577e:	50                   	push   eax
  10577f:	68 f4 01 00 00       	push   0x1f4
  105784:	e8 0f fc ff ff       	call   105398 <outb>
  105789:	83 c4 08             	add    esp,0x8
  10578c:	8b 45 08             	mov    eax,DWORD PTR [ebp+0x8]
  10578f:	c1 e8 10             	shr    eax,0x10
  105792:	0f b6 c0             	movzx  eax,al
  105795:	50                   	push   eax
  105796:	68 f5 01 00 00       	push   0x1f5
  10579b:	e8 f8 fb ff ff       	call   105398 <outb>
  1057a0:	83 c4 08             	add    esp,0x8
  1057a3:	90                   	nop
  1057a4:	c9                   	leave
  1057a5:	c3                   	ret

001057a6 <ata_init>:
  1057a6:	55                   	push   ebp
  1057a7:	89 e5                	mov    ebp,esp
  1057a9:	53                   	push   ebx
  1057aa:	83 ec 24             	sub    esp,0x24
  1057ad:	e8 a4 10 00 00       	call   106856 <__x86.get_pc_thunk.bx>
  1057b2:	81 c3 56 38 00 00    	add    ebx,0x3856
  1057b8:	c6 83 58 df 01 00 00 	mov    BYTE PTR [ebx+0x1df58],0x0
  1057bf:	c7 83 5c df 01 00 00 	mov    DWORD PTR [ebx+0x1df5c],0x0
  1057c6:	00 00 00 
  1057c9:	c6 83 60 df 01 00 00 	mov    BYTE PTR [ebx+0x1df60],0x0
  1057d0:	6a 04                	push   0x4
  1057d2:	68 f6 03 00 00       	push   0x3f6
  1057d7:	e8 bc fb ff ff       	call   105398 <outb>
  1057dc:	83 c4 08             	add    esp,0x8
  1057df:	c7 45 dc 00 00 00 00 	mov    DWORD PTR [ebp-0x24],0x0
  1057e6:	eb 09                	jmp    1057f1 <ata_init+0x4b>
  1057e8:	8b 45 dc             	mov    eax,DWORD PTR [ebp-0x24]
  1057eb:	83 c0 01             	add    eax,0x1
  1057ee:	89 45 dc             	mov    DWORD PTR [ebp-0x24],eax
  1057f1:	8b 45 dc             	mov    eax,DWORD PTR [ebp-0x24]
  1057f4:	3d 0f 27 00 00       	cmp    eax,0x270f
  1057f9:	7e ed                	jle    1057e8 <ata_init+0x42>
  1057fb:	6a 00                	push   0x0
  1057fd:	68 f6 03 00 00       	push   0x3f6
  105802:	e8 91 fb ff ff       	call   105398 <outb>
  105807:	83 c4 08             	add    esp,0x8
  10580a:	c7 45 d8 00 00 00 00 	mov    DWORD PTR [ebp-0x28],0x0
  105811:	eb 09                	jmp    10581c <ata_init+0x76>
  105813:	8b 45 d8             	mov    eax,DWORD PTR [ebp-0x28]
  105816:	83 c0 01             	add    eax,0x1
  105819:	89 45 d8             	mov    DWORD PTR [ebp-0x28],eax
  10581c:	8b 45 d8             	mov    eax,DWORD PTR [ebp-0x28]
  10581f:	3d 0f 27 00 00       	cmp    eax,0x270f
  105824:	7e ed                	jle    105813 <ata_init+0x6d>
  105826:	e8 e3 fc ff ff       	call   10550e <ata_identify>
  10582b:	85 c0                	test   eax,eax
  10582d:	74 35                	je     105864 <ata_init+0xbe>
  10582f:	83 ec 08             	sub    esp,0x8
  105832:	6a 00                	push   0x0
  105834:	6a 0c                	push   0xc
  105836:	e8 9e ba ff ff       	call   1012d9 <vga_set_color>
  10583b:	83 c4 10             	add    esp,0x10
  10583e:	83 ec 0c             	sub    esp,0xc
  105841:	8d 83 d4 ec ff ff    	lea    eax,[ebx-0x132c]
  105847:	50                   	push   eax
  105848:	e8 0b c1 ff ff       	call   101958 <vga_print>
  10584d:	83 c4 10             	add    esp,0x10
  105850:	83 ec 08             	sub    esp,0x8
  105853:	6a 00                	push   0x0
  105855:	6a 0f                	push   0xf
  105857:	e8 7d ba ff ff       	call   1012d9 <vga_set_color>
  10585c:	83 c4 10             	add    esp,0x10
  10585f:	e9 d8 01 00 00       	jmp    105a3c <ata_init+0x296>
  105864:	83 ec 08             	sub    esp,0x8
  105867:	6a 00                	push   0x0
  105869:	6a 0b                	push   0xb
  10586b:	e8 69 ba ff ff       	call   1012d9 <vga_set_color>
  105870:	83 c4 10             	add    esp,0x10
  105873:	83 ec 0c             	sub    esp,0xc
  105876:	8d 83 fd ec ff ff    	lea    eax,[ebx-0x1303]
  10587c:	50                   	push   eax
  10587d:	e8 d6 c0 ff ff       	call   101958 <vga_print>
  105882:	83 c4 10             	add    esp,0x10
  105885:	83 ec 08             	sub    esp,0x8
  105888:	6a 00                	push   0x0
  10588a:	6a 0f                	push   0xf
  10588c:	e8 48 ba ff ff       	call   1012d9 <vga_set_color>
  105891:	83 c4 10             	add    esp,0x10
  105894:	83 ec 0c             	sub    esp,0xc
  105897:	8d 83 13 ed ff ff    	lea    eax,[ebx-0x12ed]
  10589d:	50                   	push   eax
  10589e:	e8 b5 c0 ff ff       	call   101958 <vga_print>
  1058a3:	83 c4 10             	add    esp,0x10
  1058a6:	0f b6 83 60 df 01 00 	movzx  eax,BYTE PTR [ebx+0x1df60]
  1058ad:	84 c0                	test   al,al
  1058af:	74 08                	je     1058b9 <ata_init+0x113>
  1058b1:	8d 83 60 df 01 00    	lea    eax,[ebx+0x1df60]
  1058b7:	eb 06                	jmp    1058bf <ata_init+0x119>
  1058b9:	8d 83 24 ed ff ff    	lea    eax,[ebx-0x12dc]
  1058bf:	83 ec 0c             	sub    esp,0xc
  1058c2:	50                   	push   eax
  1058c3:	e8 90 c0 ff ff       	call   101958 <vga_print>
  1058c8:	83 c4 10             	add    esp,0x10
  1058cb:	83 ec 0c             	sub    esp,0xc
  1058ce:	8d 83 2e ed ff ff    	lea    eax,[ebx-0x12d2]
  1058d4:	50                   	push   eax
  1058d5:	e8 7e c0 ff ff       	call   101958 <vga_print>
  1058da:	83 c4 10             	add    esp,0x10
  1058dd:	83 ec 0c             	sub    esp,0xc
  1058e0:	8d 83 30 ed ff ff    	lea    eax,[ebx-0x12d0]
  1058e6:	50                   	push   eax
  1058e7:	e8 6c c0 ff ff       	call   101958 <vga_print>
  1058ec:	83 c4 10             	add    esp,0x10
  1058ef:	c6 45 eb 00          	mov    BYTE PTR [ebp-0x15],0x0
  1058f3:	c7 45 f4 0a 00 00 00 	mov    DWORD PTR [ebp-0xc],0xa
  1058fa:	8b 83 5c df 01 00    	mov    eax,DWORD PTR [ebx+0x1df5c]
  105900:	89 45 f0             	mov    DWORD PTR [ebp-0x10],eax
  105903:	83 7d f0 00          	cmp    DWORD PTR [ebp-0x10],0x0
  105907:	75 56                	jne    10595f <ata_init+0x1b9>
  105909:	83 ec 0c             	sub    esp,0xc
  10590c:	8d 83 41 ed ff ff    	lea    eax,[ebx-0x12bf]
  105912:	50                   	push   eax
  105913:	e8 40 c0 ff ff       	call   101958 <vga_print>
  105918:	83 c4 10             	add    esp,0x10
  10591b:	eb 65                	jmp    105982 <ata_init+0x1dc>
  10591d:	8b 4d f0             	mov    ecx,DWORD PTR [ebp-0x10]
  105920:	ba cd cc cc cc       	mov    edx,0xcccccccd
  105925:	89 c8                	mov    eax,ecx
  105927:	f7 e2                	mul    edx
  105929:	c1 ea 03             	shr    edx,0x3
  10592c:	89 d0                	mov    eax,edx
  10592e:	c1 e0 02             	shl    eax,0x2
  105931:	01 d0                	add    eax,edx
  105933:	01 c0                	add    eax,eax
  105935:	29 c1                	sub    ecx,eax
  105937:	89 ca                	mov    edx,ecx
  105939:	89 d0                	mov    eax,edx
  10593b:	8d 48 30             	lea    ecx,[eax+0x30]
  10593e:	8b 45 f4             	mov    eax,DWORD PTR [ebp-0xc]
  105941:	8d 50 ff             	lea    edx,[eax-0x1]
  105944:	89 55 f4             	mov    DWORD PTR [ebp-0xc],edx
  105947:	89 ca                	mov    edx,ecx
  105949:	88 54 05 e0          	mov    BYTE PTR [ebp+eax*1-0x20],dl
  10594d:	8b 45 f0             	mov    eax,DWORD PTR [ebp-0x10]
  105950:	ba cd cc cc cc       	mov    edx,0xcccccccd
  105955:	f7 e2                	mul    edx
  105957:	89 d0                	mov    eax,edx
  105959:	c1 e8 03             	shr    eax,0x3
  10595c:	89 45 f0             	mov    DWORD PTR [ebp-0x10],eax
  10595f:	83 7d f0 00          	cmp    DWORD PTR [ebp-0x10],0x0
  105963:	74 06                	je     10596b <ata_init+0x1c5>
  105965:	83 7d f4 00          	cmp    DWORD PTR [ebp-0xc],0x0
  105969:	79 b2                	jns    10591d <ata_init+0x177>
  10596b:	8b 45 f4             	mov    eax,DWORD PTR [ebp-0xc]
  10596e:	8d 50 01             	lea    edx,[eax+0x1]
  105971:	8d 45 e0             	lea    eax,[ebp-0x20]
  105974:	01 d0                	add    eax,edx
  105976:	83 ec 0c             	sub    esp,0xc
  105979:	50                   	push   eax
  10597a:	e8 d9 bf ff ff       	call   101958 <vga_print>
  10597f:	83 c4 10             	add    esp,0x10
  105982:	83 ec 0c             	sub    esp,0xc
  105985:	8d 83 43 ed ff ff    	lea    eax,[ebx-0x12bd]
  10598b:	50                   	push   eax
  10598c:	e8 c7 bf ff ff       	call   101958 <vga_print>
  105991:	83 c4 10             	add    esp,0x10
  105994:	c6 45 eb 00          	mov    BYTE PTR [ebp-0x15],0x0
  105998:	c7 45 f4 0a 00 00 00 	mov    DWORD PTR [ebp-0xc],0xa
  10599f:	8b 83 5c df 01 00    	mov    eax,DWORD PTR [ebx+0x1df5c]
  1059a5:	c1 e8 0b             	shr    eax,0xb
  1059a8:	89 45 ec             	mov    DWORD PTR [ebp-0x14],eax
  1059ab:	83 7d ec 00          	cmp    DWORD PTR [ebp-0x14],0x0
  1059af:	75 56                	jne    105a07 <ata_init+0x261>
  1059b1:	83 ec 0c             	sub    esp,0xc
  1059b4:	8d 83 41 ed ff ff    	lea    eax,[ebx-0x12bf]
  1059ba:	50                   	push   eax
  1059bb:	e8 98 bf ff ff       	call   101958 <vga_print>
  1059c0:	83 c4 10             	add    esp,0x10
  1059c3:	eb 65                	jmp    105a2a <ata_init+0x284>
  1059c5:	8b 4d ec             	mov    ecx,DWORD PTR [ebp-0x14]
  1059c8:	ba cd cc cc cc       	mov    edx,0xcccccccd
  1059cd:	89 c8                	mov    eax,ecx
  1059cf:	f7 e2                	mul    edx
  1059d1:	c1 ea 03             	shr    edx,0x3
  1059d4:	89 d0                	mov    eax,edx
  1059d6:	c1 e0 02             	shl    eax,0x2
  1059d9:	01 d0                	add    eax,edx
  1059db:	01 c0                	add    eax,eax
  1059dd:	29 c1                	sub    ecx,eax
  1059df:	89 ca                	mov    edx,ecx
  1059e1:	89 d0                	mov    eax,edx
  1059e3:	8d 48 30             	lea    ecx,[eax+0x30]
  1059e6:	8b 45 f4             	mov    eax,DWORD PTR [ebp-0xc]
  1059e9:	8d 50 ff             	lea    edx,[eax-0x1]
  1059ec:	89 55 f4             	mov    DWORD PTR [ebp-0xc],edx
  1059ef:	89 ca                	mov    edx,ecx
  1059f1:	88 54 05 e0          	mov    BYTE PTR [ebp+eax*1-0x20],dl
  1059f5:	8b 45 ec             	mov    eax,DWORD PTR [ebp-0x14]
  1059f8:	ba cd cc cc cc       	mov    edx,0xcccccccd
  1059fd:	f7 e2                	mul    edx
  1059ff:	89 d0                	mov    eax,edx
  105a01:	c1 e8 03             	shr    eax,0x3
  105a04:	89 45 ec             	mov    DWORD PTR [ebp-0x14],eax
  105a07:	83 7d ec 00          	cmp    DWORD PTR [ebp-0x14],0x0
  105a0b:	74 06                	je     105a13 <ata_init+0x26d>
  105a0d:	83 7d f4 00          	cmp    DWORD PTR [ebp-0xc],0x0
  105a11:	79 b2                	jns    1059c5 <ata_init+0x21f>
  105a13:	8b 45 f4             	mov    eax,DWORD PTR [ebp-0xc]
  105a16:	8d 50 01             	lea    edx,[eax+0x1]
  105a19:	8d 45 e0             	lea    eax,[ebp-0x20]
  105a1c:	01 d0                	add    eax,edx
  105a1e:	83 ec 0c             	sub    esp,0xc
  105a21:	50                   	push   eax
  105a22:	e8 31 bf ff ff       	call   101958 <vga_print>
  105a27:	83 c4 10             	add    esp,0x10
  105a2a:	83 ec 0c             	sub    esp,0xc
  105a2d:	8d 83 47 ed ff ff    	lea    eax,[ebx-0x12b9]
  105a33:	50                   	push   eax
  105a34:	e8 1f bf ff ff       	call   101958 <vga_print>
  105a39:	83 c4 10             	add    esp,0x10
  105a3c:	8b 5d fc             	mov    ebx,DWORD PTR [ebp-0x4]
  105a3f:	c9                   	leave
  105a40:	c3                   	ret

00105a41 <ata_read_sector>:
  105a41:	55                   	push   ebp
  105a42:	89 e5                	mov    ebp,esp
  105a44:	53                   	push   ebx
  105a45:	83 ec 10             	sub    esp,0x10
  105a48:	e8 0d 0e 00 00       	call   10685a <__x86.get_pc_thunk.ax>
  105a4d:	05 bb 35 00 00       	add    eax,0x35bb
  105a52:	0f b6 80 58 df 01 00 	movzx  eax,BYTE PTR [eax+0x1df58]
  105a59:	84 c0                	test   al,al
  105a5b:	75 07                	jne    105a64 <ata_read_sector+0x23>
  105a5d:	b8 ff ff ff ff       	mov    eax,0xffffffff
  105a62:	eb 79                	jmp    105add <ata_read_sector+0x9c>
  105a64:	e8 d3 f9 ff ff       	call   10543c <ata_wait_ready>
  105a69:	85 c0                	test   eax,eax
  105a6b:	74 07                	je     105a74 <ata_read_sector+0x33>
  105a6d:	b8 ff ff ff ff       	mov    eax,0xffffffff
  105a72:	eb 69                	jmp    105add <ata_read_sector+0x9c>
  105a74:	6a 01                	push   0x1
  105a76:	ff 75 08             	push   DWORD PTR [ebp+0x8]
  105a79:	e8 8f fc ff ff       	call   10570d <ata_setup_lba>
  105a7e:	83 c4 08             	add    esp,0x8
  105a81:	6a 20                	push   0x20
  105a83:	68 f7 01 00 00       	push   0x1f7
  105a88:	e8 0b f9 ff ff       	call   105398 <outb>
  105a8d:	83 c4 08             	add    esp,0x8
  105a90:	e8 10 fa ff ff       	call   1054a5 <ata_wait_drq>
  105a95:	85 c0                	test   eax,eax
  105a97:	74 07                	je     105aa0 <ata_read_sector+0x5f>
  105a99:	b8 ff ff ff ff       	mov    eax,0xffffffff
  105a9e:	eb 3d                	jmp    105add <ata_read_sector+0x9c>
  105aa0:	8b 45 0c             	mov    eax,DWORD PTR [ebp+0xc]
  105aa3:	89 45 f4             	mov    DWORD PTR [ebp-0xc],eax
  105aa6:	c7 45 f8 00 00 00 00 	mov    DWORD PTR [ebp-0x8],0x0
  105aad:	eb 20                	jmp    105acf <ata_read_sector+0x8e>
  105aaf:	8b 45 f8             	mov    eax,DWORD PTR [ebp-0x8]
  105ab2:	8d 14 00             	lea    edx,[eax+eax*1]
  105ab5:	8b 45 f4             	mov    eax,DWORD PTR [ebp-0xc]
  105ab8:	8d 1c 02             	lea    ebx,[edx+eax*1]
  105abb:	68 f0 01 00 00       	push   0x1f0
  105ac0:	e8 23 f9 ff ff       	call   1053e8 <inw>
  105ac5:	83 c4 04             	add    esp,0x4
  105ac8:	66 89 03             	mov    WORD PTR [ebx],ax
  105acb:	83 45 f8 01          	add    DWORD PTR [ebp-0x8],0x1
  105acf:	81 7d f8 ff 00 00 00 	cmp    DWORD PTR [ebp-0x8],0xff
  105ad6:	7e d7                	jle    105aaf <ata_read_sector+0x6e>
  105ad8:	b8 00 00 00 00       	mov    eax,0x0
  105add:	8b 5d fc             	mov    ebx,DWORD PTR [ebp-0x4]
  105ae0:	c9                   	leave
  105ae1:	c3                   	ret

00105ae2 <ata_write_sector>:
  105ae2:	55                   	push   ebp
  105ae3:	89 e5                	mov    ebp,esp
  105ae5:	83 ec 10             	sub    esp,0x10
  105ae8:	e8 6d 0d 00 00       	call   10685a <__x86.get_pc_thunk.ax>
  105aed:	05 1b 35 00 00       	add    eax,0x351b
  105af2:	0f b6 80 58 df 01 00 	movzx  eax,BYTE PTR [eax+0x1df58]
  105af9:	84 c0                	test   al,al
  105afb:	75 0a                	jne    105b07 <ata_write_sector+0x25>
  105afd:	b8 ff ff ff ff       	mov    eax,0xffffffff
  105b02:	e9 96 00 00 00       	jmp    105b9d <ata_write_sector+0xbb>
  105b07:	e8 30 f9 ff ff       	call   10543c <ata_wait_ready>
  105b0c:	85 c0                	test   eax,eax
  105b0e:	74 0a                	je     105b1a <ata_write_sector+0x38>
  105b10:	b8 ff ff ff ff       	mov    eax,0xffffffff
  105b15:	e9 83 00 00 00       	jmp    105b9d <ata_write_sector+0xbb>
  105b1a:	6a 01                	push   0x1
  105b1c:	ff 75 08             	push   DWORD PTR [ebp+0x8]
  105b1f:	e8 e9 fb ff ff       	call   10570d <ata_setup_lba>
  105b24:	83 c4 08             	add    esp,0x8
  105b27:	6a 30                	push   0x30
  105b29:	68 f7 01 00 00       	push   0x1f7
  105b2e:	e8 65 f8 ff ff       	call   105398 <outb>
  105b33:	83 c4 08             	add    esp,0x8
  105b36:	e8 6a f9 ff ff       	call   1054a5 <ata_wait_drq>
  105b3b:	85 c0                	test   eax,eax
  105b3d:	74 07                	je     105b46 <ata_write_sector+0x64>
  105b3f:	b8 ff ff ff ff       	mov    eax,0xffffffff
  105b44:	eb 57                	jmp    105b9d <ata_write_sector+0xbb>
  105b46:	8b 45 0c             	mov    eax,DWORD PTR [ebp+0xc]
  105b49:	89 45 f8             	mov    DWORD PTR [ebp-0x8],eax
  105b4c:	c7 45 fc 00 00 00 00 	mov    DWORD PTR [ebp-0x4],0x0
  105b53:	eb 23                	jmp    105b78 <ata_write_sector+0x96>
  105b55:	8b 45 fc             	mov    eax,DWORD PTR [ebp-0x4]
  105b58:	8d 14 00             	lea    edx,[eax+eax*1]
  105b5b:	8b 45 f8             	mov    eax,DWORD PTR [ebp-0x8]
  105b5e:	01 d0                	add    eax,edx
  105b60:	0f b7 00             	movzx  eax,WORD PTR [eax]
  105b63:	0f b7 c0             	movzx  eax,ax
  105b66:	50                   	push   eax
  105b67:	68 f0 01 00 00       	push   0x1f0
  105b6c:	e8 a0 f8 ff ff       	call   105411 <outw>
  105b71:	83 c4 08             	add    esp,0x8
  105b74:	83 45 fc 01          	add    DWORD PTR [ebp-0x4],0x1
  105b78:	81 7d fc ff 00 00 00 	cmp    DWORD PTR [ebp-0x4],0xff
  105b7f:	7e d4                	jle    105b55 <ata_write_sector+0x73>
  105b81:	68 e7 00 00 00       	push   0xe7
  105b86:	68 f7 01 00 00       	push   0x1f7
  105b8b:	e8 08 f8 ff ff       	call   105398 <outb>
  105b90:	83 c4 08             	add    esp,0x8
  105b93:	e8 a4 f8 ff ff       	call   10543c <ata_wait_ready>
  105b98:	b8 00 00 00 00       	mov    eax,0x0
  105b9d:	c9                   	leave
  105b9e:	c3                   	ret

00105b9f <print_uint32>:
  105b9f:	55                   	push   ebp
  105ba0:	89 e5                	mov    ebp,esp
  105ba2:	53                   	push   ebx
  105ba3:	83 ec 14             	sub    esp,0x14
  105ba6:	e8 b7 0c 00 00       	call   106862 <__x86.get_pc_thunk.cx>
  105bab:	81 c1 5d 34 00 00    	add    ecx,0x345d
  105bb1:	83 7d 08 00          	cmp    DWORD PTR [ebp+0x8],0x0
  105bb5:	75 16                	jne    105bcd <print_uint32+0x2e>
  105bb7:	83 ec 0c             	sub    esp,0xc
  105bba:	8d 81 50 ed ff ff    	lea    eax,[ecx-0x12b0]
  105bc0:	50                   	push   eax
  105bc1:	89 cb                	mov    ebx,ecx
  105bc3:	e8 90 bd ff ff       	call   101958 <vga_print>
  105bc8:	83 c4 10             	add    esp,0x10
  105bcb:	eb 74                	jmp    105c41 <print_uint32+0xa2>
  105bcd:	c6 45 f3 00          	mov    BYTE PTR [ebp-0xd],0x0
  105bd1:	c7 45 f4 0a 00 00 00 	mov    DWORD PTR [ebp-0xc],0xa
  105bd8:	eb 42                	jmp    105c1c <print_uint32+0x7d>
  105bda:	8b 5d 08             	mov    ebx,DWORD PTR [ebp+0x8]
  105bdd:	ba cd cc cc cc       	mov    edx,0xcccccccd
  105be2:	89 d8                	mov    eax,ebx
  105be4:	f7 e2                	mul    edx
  105be6:	c1 ea 03             	shr    edx,0x3
  105be9:	89 d0                	mov    eax,edx
  105beb:	c1 e0 02             	shl    eax,0x2
  105bee:	01 d0                	add    eax,edx
  105bf0:	01 c0                	add    eax,eax
  105bf2:	29 c3                	sub    ebx,eax
  105bf4:	89 da                	mov    edx,ebx
  105bf6:	89 d0                	mov    eax,edx
  105bf8:	8d 58 30             	lea    ebx,[eax+0x30]
  105bfb:	8b 45 f4             	mov    eax,DWORD PTR [ebp-0xc]
  105bfe:	8d 50 ff             	lea    edx,[eax-0x1]
  105c01:	89 55 f4             	mov    DWORD PTR [ebp-0xc],edx
  105c04:	89 da                	mov    edx,ebx
  105c06:	88 54 05 e8          	mov    BYTE PTR [ebp+eax*1-0x18],dl
  105c0a:	8b 45 08             	mov    eax,DWORD PTR [ebp+0x8]
  105c0d:	ba cd cc cc cc       	mov    edx,0xcccccccd
  105c12:	f7 e2                	mul    edx
  105c14:	89 d0                	mov    eax,edx
  105c16:	c1 e8 03             	shr    eax,0x3
  105c19:	89 45 08             	mov    DWORD PTR [ebp+0x8],eax
  105c1c:	83 7d 08 00          	cmp    DWORD PTR [ebp+0x8],0x0
  105c20:	74 06                	je     105c28 <print_uint32+0x89>
  105c22:	83 7d f4 00          	cmp    DWORD PTR [ebp-0xc],0x0
  105c26:	79 b2                	jns    105bda <print_uint32+0x3b>
  105c28:	8b 45 f4             	mov    eax,DWORD PTR [ebp-0xc]
  105c2b:	8d 50 01             	lea    edx,[eax+0x1]
  105c2e:	8d 45 e8             	lea    eax,[ebp-0x18]
  105c31:	01 d0                	add    eax,edx
  105c33:	83 ec 0c             	sub    esp,0xc
  105c36:	50                   	push   eax
  105c37:	89 cb                	mov    ebx,ecx
  105c39:	e8 1a bd ff ff       	call   101958 <vga_print>
  105c3e:	83 c4 10             	add    esp,0x10
  105c41:	8b 5d fc             	mov    ebx,DWORD PTR [ebp-0x4]
  105c44:	c9                   	leave
  105c45:	c3                   	ret

00105c46 <fat12_next_cluster>:
  105c46:	55                   	push   ebp
  105c47:	89 e5                	mov    ebp,esp
  105c49:	83 ec 14             	sub    esp,0x14
  105c4c:	e8 09 0c 00 00       	call   10685a <__x86.get_pc_thunk.ax>
  105c51:	05 b7 33 00 00       	add    eax,0x33b7
  105c56:	8b 55 08             	mov    edx,DWORD PTR [ebp+0x8]
  105c59:	66 89 55 ec          	mov    WORD PTR [ebp-0x14],dx
  105c5d:	c7 45 fc 00 80 00 00 	mov    DWORD PTR [ebp-0x4],0x8000
  105c64:	0f b7 4d ec          	movzx  ecx,WORD PTR [ebp-0x14]
  105c68:	0f b7 55 ec          	movzx  edx,WORD PTR [ebp-0x14]
  105c6c:	66 d1 ea             	shr    dx,1
  105c6f:	0f b7 d2             	movzx  edx,dx
  105c72:	01 ca                	add    edx,ecx
  105c74:	89 55 f8             	mov    DWORD PTR [ebp-0x8],edx
  105c77:	8b 55 f8             	mov    edx,DWORD PTR [ebp-0x8]
  105c7a:	83 c2 01             	add    edx,0x1
  105c7d:	3b 55 fc             	cmp    edx,DWORD PTR [ebp-0x4]
  105c80:	72 07                	jb     105c89 <fat12_next_cluster+0x43>
  105c82:	b8 ff 0f 00 00       	mov    eax,0xfff
  105c87:	eb 48                	jmp    105cd1 <fat12_next_cluster+0x8b>
  105c89:	8d 88 b8 df 01 00    	lea    ecx,[eax+0x1dfb8]
  105c8f:	8b 55 f8             	mov    edx,DWORD PTR [ebp-0x8]
  105c92:	01 ca                	add    edx,ecx
  105c94:	0f b6 12             	movzx  edx,BYTE PTR [edx]
  105c97:	0f b6 ca             	movzx  ecx,dl
  105c9a:	8b 55 f8             	mov    edx,DWORD PTR [ebp-0x8]
  105c9d:	83 c2 01             	add    edx,0x1
  105ca0:	0f b6 84 10 b8 df 01 	movzx  eax,BYTE PTR [eax+edx*1+0x1dfb8]
  105ca7:	00 
  105ca8:	0f b6 c0             	movzx  eax,al
  105cab:	c1 e0 08             	shl    eax,0x8
  105cae:	09 c8                	or     eax,ecx
  105cb0:	66 89 45 f6          	mov    WORD PTR [ebp-0xa],ax
  105cb4:	0f b7 45 ec          	movzx  eax,WORD PTR [ebp-0x14]
  105cb8:	83 e0 01             	and    eax,0x1
  105cbb:	85 c0                	test   eax,eax
  105cbd:	74 0a                	je     105cc9 <fat12_next_cluster+0x83>
  105cbf:	0f b7 45 f6          	movzx  eax,WORD PTR [ebp-0xa]
  105cc3:	66 c1 e8 04          	shr    ax,0x4
  105cc7:	eb 08                	jmp    105cd1 <fat12_next_cluster+0x8b>
  105cc9:	0f b7 45 f6          	movzx  eax,WORD PTR [ebp-0xa]
  105ccd:	66 25 ff 0f          	and    ax,0xfff
  105cd1:	c9                   	leave
  105cd2:	c3                   	ret

00105cd3 <to_upper>:
  105cd3:	55                   	push   ebp
  105cd4:	89 e5                	mov    ebp,esp
  105cd6:	83 ec 04             	sub    esp,0x4
  105cd9:	e8 7c 0b 00 00       	call   10685a <__x86.get_pc_thunk.ax>
  105cde:	05 2a 33 00 00       	add    eax,0x332a
  105ce3:	8b 45 08             	mov    eax,DWORD PTR [ebp+0x8]
  105ce6:	88 45 fc             	mov    BYTE PTR [ebp-0x4],al
  105ce9:	80 7d fc 60          	cmp    BYTE PTR [ebp-0x4],0x60
  105ced:	7e 0f                	jle    105cfe <to_upper+0x2b>
  105cef:	80 7d fc 7a          	cmp    BYTE PTR [ebp-0x4],0x7a
  105cf3:	7f 09                	jg     105cfe <to_upper+0x2b>
  105cf5:	0f b6 45 fc          	movzx  eax,BYTE PTR [ebp-0x4]
  105cf9:	83 e8 20             	sub    eax,0x20
  105cfc:	eb 04                	jmp    105d02 <to_upper+0x2f>
  105cfe:	0f b6 45 fc          	movzx  eax,BYTE PTR [ebp-0x4]
  105d02:	c9                   	leave
  105d03:	c3                   	ret

00105d04 <fat12_init>:
  105d04:	55                   	push   ebp
  105d05:	89 e5                	mov    ebp,esp
  105d07:	53                   	push   ebx
  105d08:	83 ec 14             	sub    esp,0x14
  105d0b:	e8 46 0b 00 00       	call   106856 <__x86.get_pc_thunk.bx>
  105d10:	81 c3 f8 32 00 00    	add    ebx,0x32f8
  105d16:	c7 83 98 df 01 00 00 	mov    DWORD PTR [ebx+0x1df98],0x0
  105d1d:	00 00 00 
  105d20:	c7 c0 60 6f 12 00    	mov    eax,0x126f60
  105d26:	0f b6 00             	movzx  eax,BYTE PTR [eax]
  105d29:	84 c0                	test   al,al
  105d2b:	75 0a                	jne    105d37 <fat12_init+0x33>
  105d2d:	b8 ff ff ff ff       	mov    eax,0xffffffff
  105d32:	e9 50 01 00 00       	jmp    105e87 <fat12_init+0x183>
  105d37:	83 ec 08             	sub    esp,0x8
  105d3a:	8d 83 b8 5f 02 00    	lea    eax,[ebx+0x25fb8]
  105d40:	50                   	push   eax
  105d41:	6a 00                	push   0x0
  105d43:	e8 f9 fc ff ff       	call   105a41 <ata_read_sector>
  105d48:	83 c4 10             	add    esp,0x10
  105d4b:	85 c0                	test   eax,eax
  105d4d:	74 0a                	je     105d59 <fat12_init+0x55>
  105d4f:	b8 ff ff ff ff       	mov    eax,0xffffffff
  105d54:	e9 2e 01 00 00       	jmp    105e87 <fat12_init+0x183>
  105d59:	8d 83 c3 5f 02 00    	lea    eax,[ebx+0x25fc3]
  105d5f:	89 45 ec             	mov    DWORD PTR [ebp-0x14],eax
  105d62:	8b 45 ec             	mov    eax,DWORD PTR [ebp-0x14]
  105d65:	0f b7 00             	movzx  eax,WORD PTR [eax]
  105d68:	66 89 83 ac df 01 00 	mov    WORD PTR [ebx+0x1dfac],ax
  105d6f:	8b 45 ec             	mov    eax,DWORD PTR [ebp-0x14]
  105d72:	0f b6 40 02          	movzx  eax,BYTE PTR [eax+0x2]
  105d76:	88 83 ae df 01 00    	mov    BYTE PTR [ebx+0x1dfae],al
  105d7c:	8b 45 ec             	mov    eax,DWORD PTR [ebp-0x14]
  105d7f:	0f b7 40 06          	movzx  eax,WORD PTR [eax+0x6]
  105d83:	66 89 83 b0 df 01 00 	mov    WORD PTR [ebx+0x1dfb0],ax
  105d8a:	8b 45 ec             	mov    eax,DWORD PTR [ebp-0x14]
  105d8d:	0f b7 40 03          	movzx  eax,WORD PTR [eax+0x3]
  105d91:	0f b7 c0             	movzx  eax,ax
  105d94:	89 83 9c df 01 00    	mov    DWORD PTR [ebx+0x1df9c],eax
  105d9a:	8b 45 ec             	mov    eax,DWORD PTR [ebp-0x14]
  105d9d:	0f b7 40 03          	movzx  eax,WORD PTR [eax+0x3]
  105da1:	0f b7 c8             	movzx  ecx,ax
  105da4:	8b 45 ec             	mov    eax,DWORD PTR [ebp-0x14]
  105da7:	0f b6 40 05          	movzx  eax,BYTE PTR [eax+0x5]
  105dab:	0f b6 d0             	movzx  edx,al
  105dae:	8b 45 ec             	mov    eax,DWORD PTR [ebp-0x14]
  105db1:	0f b7 40 0b          	movzx  eax,WORD PTR [eax+0xb]
  105db5:	0f b7 c0             	movzx  eax,ax
  105db8:	0f af c2             	imul   eax,edx
  105dbb:	01 c8                	add    eax,ecx
  105dbd:	89 83 a0 df 01 00    	mov    DWORD PTR [ebx+0x1dfa0],eax
  105dc3:	8b 45 ec             	mov    eax,DWORD PTR [ebp-0x14]
  105dc6:	0f b7 40 06          	movzx  eax,WORD PTR [eax+0x6]
  105dca:	0f b7 c0             	movzx  eax,ax
  105dcd:	c1 e0 05             	shl    eax,0x5
  105dd0:	05 ff 01 00 00       	add    eax,0x1ff
  105dd5:	c1 e8 09             	shr    eax,0x9
  105dd8:	89 83 a4 df 01 00    	mov    DWORD PTR [ebx+0x1dfa4],eax
  105dde:	8b 93 a0 df 01 00    	mov    edx,DWORD PTR [ebx+0x1dfa0]
  105de4:	8b 83 a4 df 01 00    	mov    eax,DWORD PTR [ebx+0x1dfa4]
  105dea:	01 d0                	add    eax,edx
  105dec:	89 83 a8 df 01 00    	mov    DWORD PTR [ebx+0x1dfa8],eax
  105df2:	8b 45 ec             	mov    eax,DWORD PTR [ebp-0x14]
  105df5:	0f b7 40 08          	movzx  eax,WORD PTR [eax+0x8]
  105df9:	66 85 c0             	test   ax,ax
  105dfc:	74 0c                	je     105e0a <fat12_init+0x106>
  105dfe:	8b 45 ec             	mov    eax,DWORD PTR [ebp-0x14]
  105e01:	0f b7 40 08          	movzx  eax,WORD PTR [eax+0x8]
  105e05:	0f b7 c0             	movzx  eax,ax
  105e08:	eb 06                	jmp    105e10 <fat12_init+0x10c>
  105e0a:	8b 45 ec             	mov    eax,DWORD PTR [ebp-0x14]
  105e0d:	8b 40 15             	mov    eax,DWORD PTR [eax+0x15]
  105e10:	89 83 b4 df 01 00    	mov    DWORD PTR [ebx+0x1dfb4],eax
  105e16:	8b 45 ec             	mov    eax,DWORD PTR [ebp-0x14]
  105e19:	0f b7 40 0b          	movzx  eax,WORD PTR [eax+0xb]
  105e1d:	0f b7 c0             	movzx  eax,ax
  105e20:	89 45 f4             	mov    DWORD PTR [ebp-0xc],eax
  105e23:	83 7d f4 40          	cmp    DWORD PTR [ebp-0xc],0x40
  105e27:	76 07                	jbe    105e30 <fat12_init+0x12c>
  105e29:	c7 45 f4 40 00 00 00 	mov    DWORD PTR [ebp-0xc],0x40
  105e30:	c7 45 f0 00 00 00 00 	mov    DWORD PTR [ebp-0x10],0x0
  105e37:	eb 37                	jmp    105e70 <fat12_init+0x16c>
  105e39:	8b 45 f0             	mov    eax,DWORD PTR [ebp-0x10]
  105e3c:	c1 e0 09             	shl    eax,0x9
  105e3f:	89 c2                	mov    edx,eax
  105e41:	8d 83 b8 df 01 00    	lea    eax,[ebx+0x1dfb8]
  105e47:	01 c2                	add    edx,eax
  105e49:	8b 8b 9c df 01 00    	mov    ecx,DWORD PTR [ebx+0x1df9c]
  105e4f:	8b 45 f0             	mov    eax,DWORD PTR [ebp-0x10]
  105e52:	01 c8                	add    eax,ecx
  105e54:	83 ec 08             	sub    esp,0x8
  105e57:	52                   	push   edx
  105e58:	50                   	push   eax
  105e59:	e8 e3 fb ff ff       	call   105a41 <ata_read_sector>
  105e5e:	83 c4 10             	add    esp,0x10
  105e61:	85 c0                	test   eax,eax
  105e63:	74 07                	je     105e6c <fat12_init+0x168>
  105e65:	b8 ff ff ff ff       	mov    eax,0xffffffff
  105e6a:	eb 1b                	jmp    105e87 <fat12_init+0x183>
  105e6c:	83 45 f0 01          	add    DWORD PTR [ebp-0x10],0x1
  105e70:	8b 45 f0             	mov    eax,DWORD PTR [ebp-0x10]
  105e73:	3b 45 f4             	cmp    eax,DWORD PTR [ebp-0xc]
  105e76:	72 c1                	jb     105e39 <fat12_init+0x135>
  105e78:	c7 83 98 df 01 00 01 	mov    DWORD PTR [ebx+0x1df98],0x1
  105e7f:	00 00 00 
  105e82:	b8 00 00 00 00       	mov    eax,0x0
  105e87:	8b 5d fc             	mov    ebx,DWORD PTR [ebp-0x4]
  105e8a:	c9                   	leave
  105e8b:	c3                   	ret

00105e8c <fat12_list_root>:
  105e8c:	55                   	push   ebp
  105e8d:	89 e5                	mov    ebp,esp
  105e8f:	53                   	push   ebx
  105e90:	83 ec 44             	sub    esp,0x44
  105e93:	e8 be 09 00 00       	call   106856 <__x86.get_pc_thunk.bx>
  105e98:	81 c3 70 31 00 00    	add    ebx,0x3170
  105e9e:	8b 83 98 df 01 00    	mov    eax,DWORD PTR [ebx+0x1df98]
  105ea4:	85 c0                	test   eax,eax
  105ea6:	75 17                	jne    105ebf <fat12_list_root+0x33>
  105ea8:	83 ec 0c             	sub    esp,0xc
  105eab:	8d 83 52 ed ff ff    	lea    eax,[ebx-0x12ae]
  105eb1:	50                   	push   eax
  105eb2:	e8 a1 ba ff ff       	call   101958 <vga_print>
  105eb7:	83 c4 10             	add    esp,0x10
  105eba:	e9 c5 03 00 00       	jmp    106284 <fat12_list_root+0x3f8>
  105ebf:	c7 45 f4 00 00 00 00 	mov    DWORD PTR [ebp-0xc],0x0
  105ec6:	c7 45 f0 00 00 00 00 	mov    DWORD PTR [ebp-0x10],0x0
  105ecd:	e9 6a 03 00 00       	jmp    10623c <fat12_list_root+0x3b0>
  105ed2:	8b 93 a0 df 01 00    	mov    edx,DWORD PTR [ebx+0x1dfa0]
  105ed8:	8b 45 f0             	mov    eax,DWORD PTR [ebp-0x10]
  105edb:	01 c2                	add    edx,eax
  105edd:	83 ec 08             	sub    esp,0x8
  105ee0:	8d 83 b8 5f 02 00    	lea    eax,[ebx+0x25fb8]
  105ee6:	50                   	push   eax
  105ee7:	52                   	push   edx
  105ee8:	e8 54 fb ff ff       	call   105a41 <ata_read_sector>
  105eed:	83 c4 10             	add    esp,0x10
  105ef0:	85 c0                	test   eax,eax
  105ef2:	74 17                	je     105f0b <fat12_list_root+0x7f>
  105ef4:	83 ec 0c             	sub    esp,0xc
  105ef7:	8d 83 6d ed ff ff    	lea    eax,[ebx-0x1293]
  105efd:	50                   	push   eax
  105efe:	e8 55 ba ff ff       	call   101958 <vga_print>
  105f03:	83 c4 10             	add    esp,0x10
  105f06:	e9 79 03 00 00       	jmp    106284 <fat12_list_root+0x3f8>
  105f0b:	8d 83 b8 5f 02 00    	lea    eax,[ebx+0x25fb8]
  105f11:	89 45 d4             	mov    DWORD PTR [ebp-0x2c],eax
  105f14:	c7 45 d0 10 00 00 00 	mov    DWORD PTR [ebp-0x30],0x10
  105f1b:	c7 45 ec 00 00 00 00 	mov    DWORD PTR [ebp-0x14],0x0
  105f22:	e9 05 03 00 00       	jmp    10622c <fat12_list_root+0x3a0>
  105f27:	8b 45 ec             	mov    eax,DWORD PTR [ebp-0x14]
  105f2a:	c1 e0 05             	shl    eax,0x5
  105f2d:	89 c2                	mov    edx,eax
  105f2f:	8b 45 d4             	mov    eax,DWORD PTR [ebp-0x2c]
  105f32:	01 d0                	add    eax,edx
  105f34:	0f b6 00             	movzx  eax,BYTE PTR [eax]
  105f37:	88 45 cf             	mov    BYTE PTR [ebp-0x31],al
  105f3a:	80 7d cf 00          	cmp    BYTE PTR [ebp-0x31],0x0
  105f3e:	0f 84 3f 03 00 00    	je     106283 <fat12_list_root+0x3f7>
  105f44:	80 7d cf e5          	cmp    BYTE PTR [ebp-0x31],0xe5
  105f48:	0f 84 d3 02 00 00    	je     106221 <fat12_list_root+0x395>
  105f4e:	8b 45 ec             	mov    eax,DWORD PTR [ebp-0x14]
  105f51:	c1 e0 05             	shl    eax,0x5
  105f54:	89 c2                	mov    edx,eax
  105f56:	8b 45 d4             	mov    eax,DWORD PTR [ebp-0x2c]
  105f59:	01 d0                	add    eax,edx
  105f5b:	0f b6 40 0b          	movzx  eax,BYTE PTR [eax+0xb]
  105f5f:	0f b6 c0             	movzx  eax,al
  105f62:	83 e0 08             	and    eax,0x8
  105f65:	85 c0                	test   eax,eax
  105f67:	0f 85 b7 02 00 00    	jne    106224 <fat12_list_root+0x398>
  105f6d:	8b 45 ec             	mov    eax,DWORD PTR [ebp-0x14]
  105f70:	c1 e0 05             	shl    eax,0x5
  105f73:	89 c2                	mov    edx,eax
  105f75:	8b 45 d4             	mov    eax,DWORD PTR [ebp-0x2c]
  105f78:	01 d0                	add    eax,edx
  105f7a:	0f b6 40 0b          	movzx  eax,BYTE PTR [eax+0xb]
  105f7e:	0f b6 c0             	movzx  eax,al
  105f81:	83 e0 04             	and    eax,0x4
  105f84:	85 c0                	test   eax,eax
  105f86:	0f 85 9b 02 00 00    	jne    106227 <fat12_list_root+0x39b>
  105f8c:	c7 45 e8 00 00 00 00 	mov    DWORD PTR [ebp-0x18],0x0
  105f93:	c7 45 e4 00 00 00 00 	mov    DWORD PTR [ebp-0x1c],0x0
  105f9a:	eb 44                	jmp    105fe0 <fat12_list_root+0x154>
  105f9c:	8b 45 ec             	mov    eax,DWORD PTR [ebp-0x14]
  105f9f:	c1 e0 05             	shl    eax,0x5
  105fa2:	89 c2                	mov    edx,eax
  105fa4:	8b 45 d4             	mov    eax,DWORD PTR [ebp-0x2c]
  105fa7:	01 c2                	add    edx,eax
  105fa9:	8b 45 e4             	mov    eax,DWORD PTR [ebp-0x1c]
  105fac:	01 d0                	add    eax,edx
  105fae:	0f b6 00             	movzx  eax,BYTE PTR [eax]
  105fb1:	88 45 ce             	mov    BYTE PTR [ebp-0x32],al
  105fb4:	80 7d ce 40          	cmp    BYTE PTR [ebp-0x32],0x40
  105fb8:	7e 11                	jle    105fcb <fat12_list_root+0x13f>
  105fba:	80 7d ce 5a          	cmp    BYTE PTR [ebp-0x32],0x5a
  105fbe:	7f 0b                	jg     105fcb <fat12_list_root+0x13f>
  105fc0:	0f b6 45 ce          	movzx  eax,BYTE PTR [ebp-0x32]
  105fc4:	83 c0 20             	add    eax,0x20
  105fc7:	89 c2                	mov    edx,eax
  105fc9:	eb 04                	jmp    105fcf <fat12_list_root+0x143>
  105fcb:	0f b6 55 ce          	movzx  edx,BYTE PTR [ebp-0x32]
  105fcf:	8b 45 e8             	mov    eax,DWORD PTR [ebp-0x18]
  105fd2:	8d 48 01             	lea    ecx,[eax+0x1]
  105fd5:	89 4d e8             	mov    DWORD PTR [ebp-0x18],ecx
  105fd8:	88 54 05 c0          	mov    BYTE PTR [ebp+eax*1-0x40],dl
  105fdc:	83 45 e4 01          	add    DWORD PTR [ebp-0x1c],0x1
  105fe0:	83 7d e4 07          	cmp    DWORD PTR [ebp-0x1c],0x7
  105fe4:	7f 19                	jg     105fff <fat12_list_root+0x173>
  105fe6:	8b 45 ec             	mov    eax,DWORD PTR [ebp-0x14]
  105fe9:	c1 e0 05             	shl    eax,0x5
  105fec:	89 c2                	mov    edx,eax
  105fee:	8b 45 d4             	mov    eax,DWORD PTR [ebp-0x2c]
  105ff1:	01 c2                	add    edx,eax
  105ff3:	8b 45 e4             	mov    eax,DWORD PTR [ebp-0x1c]
  105ff6:	01 d0                	add    eax,edx
  105ff8:	0f b6 00             	movzx  eax,BYTE PTR [eax]
  105ffb:	3c 20                	cmp    al,0x20
  105ffd:	75 9d                	jne    105f9c <fat12_list_root+0x110>
  105fff:	c7 45 e0 00 00 00 00 	mov    DWORD PTR [ebp-0x20],0x0
  106006:	c7 45 dc 00 00 00 00 	mov    DWORD PTR [ebp-0x24],0x0
  10600d:	eb 29                	jmp    106038 <fat12_list_root+0x1ac>
  10600f:	8b 45 ec             	mov    eax,DWORD PTR [ebp-0x14]
  106012:	c1 e0 05             	shl    eax,0x5
  106015:	89 c2                	mov    edx,eax
  106017:	8b 45 d4             	mov    eax,DWORD PTR [ebp-0x2c]
  10601a:	01 c2                	add    edx,eax
  10601c:	8b 45 dc             	mov    eax,DWORD PTR [ebp-0x24]
  10601f:	01 d0                	add    eax,edx
  106021:	83 c0 08             	add    eax,0x8
  106024:	0f b6 00             	movzx  eax,BYTE PTR [eax]
  106027:	3c 20                	cmp    al,0x20
  106029:	74 09                	je     106034 <fat12_list_root+0x1a8>
  10602b:	c7 45 e0 01 00 00 00 	mov    DWORD PTR [ebp-0x20],0x1
  106032:	eb 0a                	jmp    10603e <fat12_list_root+0x1b2>
  106034:	83 45 dc 01          	add    DWORD PTR [ebp-0x24],0x1
  106038:	83 7d dc 02          	cmp    DWORD PTR [ebp-0x24],0x2
  10603c:	7e d1                	jle    10600f <fat12_list_root+0x183>
  10603e:	83 7d e0 00          	cmp    DWORD PTR [ebp-0x20],0x0
  106042:	0f 84 9f 00 00 00    	je     1060e7 <fat12_list_root+0x25b>
  106048:	8b 45 ec             	mov    eax,DWORD PTR [ebp-0x14]
  10604b:	c1 e0 05             	shl    eax,0x5
  10604e:	89 c2                	mov    edx,eax
  106050:	8b 45 d4             	mov    eax,DWORD PTR [ebp-0x2c]
  106053:	01 d0                	add    eax,edx
  106055:	0f b6 40 0b          	movzx  eax,BYTE PTR [eax+0xb]
  106059:	0f b6 c0             	movzx  eax,al
  10605c:	83 e0 10             	and    eax,0x10
  10605f:	85 c0                	test   eax,eax
  106061:	0f 85 80 00 00 00    	jne    1060e7 <fat12_list_root+0x25b>
  106067:	8b 45 e8             	mov    eax,DWORD PTR [ebp-0x18]
  10606a:	8d 50 01             	lea    edx,[eax+0x1]
  10606d:	89 55 e8             	mov    DWORD PTR [ebp-0x18],edx
  106070:	c6 44 05 c0 2e       	mov    BYTE PTR [ebp+eax*1-0x40],0x2e
  106075:	c7 45 d8 00 00 00 00 	mov    DWORD PTR [ebp-0x28],0x0
  10607c:	eb 47                	jmp    1060c5 <fat12_list_root+0x239>
  10607e:	8b 45 ec             	mov    eax,DWORD PTR [ebp-0x14]
  106081:	c1 e0 05             	shl    eax,0x5
  106084:	89 c2                	mov    edx,eax
  106086:	8b 45 d4             	mov    eax,DWORD PTR [ebp-0x2c]
  106089:	01 c2                	add    edx,eax
  10608b:	8b 45 d8             	mov    eax,DWORD PTR [ebp-0x28]
  10608e:	01 d0                	add    eax,edx
  106090:	83 c0 08             	add    eax,0x8
  106093:	0f b6 00             	movzx  eax,BYTE PTR [eax]
  106096:	88 45 cd             	mov    BYTE PTR [ebp-0x33],al
  106099:	80 7d cd 40          	cmp    BYTE PTR [ebp-0x33],0x40
  10609d:	7e 11                	jle    1060b0 <fat12_list_root+0x224>
  10609f:	80 7d cd 5a          	cmp    BYTE PTR [ebp-0x33],0x5a
  1060a3:	7f 0b                	jg     1060b0 <fat12_list_root+0x224>
  1060a5:	0f b6 45 cd          	movzx  eax,BYTE PTR [ebp-0x33]
  1060a9:	83 c0 20             	add    eax,0x20
  1060ac:	89 c2                	mov    edx,eax
  1060ae:	eb 04                	jmp    1060b4 <fat12_list_root+0x228>
  1060b0:	0f b6 55 cd          	movzx  edx,BYTE PTR [ebp-0x33]
  1060b4:	8b 45 e8             	mov    eax,DWORD PTR [ebp-0x18]
  1060b7:	8d 48 01             	lea    ecx,[eax+0x1]
  1060ba:	89 4d e8             	mov    DWORD PTR [ebp-0x18],ecx
  1060bd:	88 54 05 c0          	mov    BYTE PTR [ebp+eax*1-0x40],dl
  1060c1:	83 45 d8 01          	add    DWORD PTR [ebp-0x28],0x1
  1060c5:	83 7d d8 02          	cmp    DWORD PTR [ebp-0x28],0x2
  1060c9:	7f 1c                	jg     1060e7 <fat12_list_root+0x25b>
  1060cb:	8b 45 ec             	mov    eax,DWORD PTR [ebp-0x14]
  1060ce:	c1 e0 05             	shl    eax,0x5
  1060d1:	89 c2                	mov    edx,eax
  1060d3:	8b 45 d4             	mov    eax,DWORD PTR [ebp-0x2c]
  1060d6:	01 c2                	add    edx,eax
  1060d8:	8b 45 d8             	mov    eax,DWORD PTR [ebp-0x28]
  1060db:	01 d0                	add    eax,edx
  1060dd:	83 c0 08             	add    eax,0x8
  1060e0:	0f b6 00             	movzx  eax,BYTE PTR [eax]
  1060e3:	3c 20                	cmp    al,0x20
  1060e5:	75 97                	jne    10607e <fat12_list_root+0x1f2>
  1060e7:	8d 55 c0             	lea    edx,[ebp-0x40]
  1060ea:	8b 45 e8             	mov    eax,DWORD PTR [ebp-0x18]
  1060ed:	01 d0                	add    eax,edx
  1060ef:	c6 00 00             	mov    BYTE PTR [eax],0x0
  1060f2:	83 ec 0c             	sub    esp,0xc
  1060f5:	8d 83 7c ed ff ff    	lea    eax,[ebx-0x1284]
  1060fb:	50                   	push   eax
  1060fc:	e8 57 b8 ff ff       	call   101958 <vga_print>
  106101:	83 c4 10             	add    esp,0x10
  106104:	8b 45 ec             	mov    eax,DWORD PTR [ebp-0x14]
  106107:	c1 e0 05             	shl    eax,0x5
  10610a:	89 c2                	mov    edx,eax
  10610c:	8b 45 d4             	mov    eax,DWORD PTR [ebp-0x2c]
  10610f:	01 d0                	add    eax,edx
  106111:	0f b6 40 0b          	movzx  eax,BYTE PTR [eax+0xb]
  106115:	0f b6 c0             	movzx  eax,al
  106118:	83 e0 10             	and    eax,0x10
  10611b:	85 c0                	test   eax,eax
  10611d:	74 32                	je     106151 <fat12_list_root+0x2c5>
  10611f:	83 ec 08             	sub    esp,0x8
  106122:	6a 00                	push   0x0
  106124:	6a 0b                	push   0xb
  106126:	e8 ae b1 ff ff       	call   1012d9 <vga_set_color>
  10612b:	83 c4 10             	add    esp,0x10
  10612e:	83 ec 0c             	sub    esp,0xc
  106131:	8d 83 7f ed ff ff    	lea    eax,[ebx-0x1281]
  106137:	50                   	push   eax
  106138:	e8 1b b8 ff ff       	call   101958 <vga_print>
  10613d:	83 c4 10             	add    esp,0x10
  106140:	83 ec 08             	sub    esp,0x8
  106143:	6a 00                	push   0x0
  106145:	6a 0b                	push   0xb
  106147:	e8 8d b1 ff ff       	call   1012d9 <vga_set_color>
  10614c:	83 c4 10             	add    esp,0x10
  10614f:	eb 21                	jmp    106172 <fat12_list_root+0x2e6>
  106151:	83 ec 08             	sub    esp,0x8
  106154:	6a 00                	push   0x0
  106156:	6a 0f                	push   0xf
  106158:	e8 7c b1 ff ff       	call   1012d9 <vga_set_color>
  10615d:	83 c4 10             	add    esp,0x10
  106160:	83 ec 0c             	sub    esp,0xc
  106163:	8d 83 87 ed ff ff    	lea    eax,[ebx-0x1279]
  106169:	50                   	push   eax
  10616a:	e8 e9 b7 ff ff       	call   101958 <vga_print>
  10616f:	83 c4 10             	add    esp,0x10
  106172:	83 ec 08             	sub    esp,0x8
  106175:	6a 00                	push   0x0
  106177:	6a 0f                	push   0xf
  106179:	e8 5b b1 ff ff       	call   1012d9 <vga_set_color>
  10617e:	83 c4 10             	add    esp,0x10
  106181:	83 ec 0c             	sub    esp,0xc
  106184:	8d 45 c0             	lea    eax,[ebp-0x40]
  106187:	50                   	push   eax
  106188:	e8 cb b7 ff ff       	call   101958 <vga_print>
  10618d:	83 c4 10             	add    esp,0x10
  106190:	8b 45 ec             	mov    eax,DWORD PTR [ebp-0x14]
  106193:	c1 e0 05             	shl    eax,0x5
  106196:	89 c2                	mov    edx,eax
  106198:	8b 45 d4             	mov    eax,DWORD PTR [ebp-0x2c]
  10619b:	01 d0                	add    eax,edx
  10619d:	0f b6 40 0b          	movzx  eax,BYTE PTR [eax+0xb]
  1061a1:	0f b6 c0             	movzx  eax,al
  1061a4:	83 e0 10             	and    eax,0x10
  1061a7:	85 c0                	test   eax,eax
  1061a9:	75 5e                	jne    106209 <fat12_list_root+0x37d>
  1061ab:	83 ec 08             	sub    esp,0x8
  1061ae:	6a 00                	push   0x0
  1061b0:	6a 08                	push   0x8
  1061b2:	e8 22 b1 ff ff       	call   1012d9 <vga_set_color>
  1061b7:	83 c4 10             	add    esp,0x10
  1061ba:	83 ec 0c             	sub    esp,0xc
  1061bd:	8d 83 7c ed ff ff    	lea    eax,[ebx-0x1284]
  1061c3:	50                   	push   eax
  1061c4:	e8 8f b7 ff ff       	call   101958 <vga_print>
  1061c9:	83 c4 10             	add    esp,0x10
  1061cc:	8b 45 ec             	mov    eax,DWORD PTR [ebp-0x14]
  1061cf:	c1 e0 05             	shl    eax,0x5
  1061d2:	89 c2                	mov    edx,eax
  1061d4:	8b 45 d4             	mov    eax,DWORD PTR [ebp-0x2c]
  1061d7:	01 d0                	add    eax,edx
  1061d9:	8b 40 1c             	mov    eax,DWORD PTR [eax+0x1c]
  1061dc:	83 ec 0c             	sub    esp,0xc
  1061df:	50                   	push   eax
  1061e0:	e8 ba f9 ff ff       	call   105b9f <print_uint32>
  1061e5:	83 c4 10             	add    esp,0x10
  1061e8:	83 ec 0c             	sub    esp,0xc
  1061eb:	8d 83 8f ed ff ff    	lea    eax,[ebx-0x1271]
  1061f1:	50                   	push   eax
  1061f2:	e8 61 b7 ff ff       	call   101958 <vga_print>
  1061f7:	83 c4 10             	add    esp,0x10
  1061fa:	83 ec 08             	sub    esp,0x8
  1061fd:	6a 00                	push   0x0
  1061ff:	6a 0f                	push   0xf
  106201:	e8 d3 b0 ff ff       	call   1012d9 <vga_set_color>
  106206:	83 c4 10             	add    esp,0x10
  106209:	83 ec 0c             	sub    esp,0xc
  10620c:	8d 83 92 ed ff ff    	lea    eax,[ebx-0x126e]
  106212:	50                   	push   eax
  106213:	e8 40 b7 ff ff       	call   101958 <vga_print>
  106218:	83 c4 10             	add    esp,0x10
  10621b:	83 45 f4 01          	add    DWORD PTR [ebp-0xc],0x1
  10621f:	eb 07                	jmp    106228 <fat12_list_root+0x39c>
  106221:	90                   	nop
  106222:	eb 04                	jmp    106228 <fat12_list_root+0x39c>
  106224:	90                   	nop
  106225:	eb 01                	jmp    106228 <fat12_list_root+0x39c>
  106227:	90                   	nop
  106228:	83 45 ec 01          	add    DWORD PTR [ebp-0x14],0x1
  10622c:	8b 45 ec             	mov    eax,DWORD PTR [ebp-0x14]
  10622f:	3b 45 d0             	cmp    eax,DWORD PTR [ebp-0x30]
  106232:	0f 82 ef fc ff ff    	jb     105f27 <fat12_list_root+0x9b>
  106238:	83 45 f0 01          	add    DWORD PTR [ebp-0x10],0x1
  10623c:	8b 83 a4 df 01 00    	mov    eax,DWORD PTR [ebx+0x1dfa4]
  106242:	39 45 f0             	cmp    DWORD PTR [ebp-0x10],eax
  106245:	0f 82 87 fc ff ff    	jb     105ed2 <fat12_list_root+0x46>
  10624b:	83 7d f4 00          	cmp    DWORD PTR [ebp-0xc],0x0
  10624f:	75 33                	jne    106284 <fat12_list_root+0x3f8>
  106251:	83 ec 08             	sub    esp,0x8
  106254:	6a 00                	push   0x0
  106256:	6a 08                	push   0x8
  106258:	e8 7c b0 ff ff       	call   1012d9 <vga_set_color>
  10625d:	83 c4 10             	add    esp,0x10
  106260:	83 ec 0c             	sub    esp,0xc
  106263:	8d 83 94 ed ff ff    	lea    eax,[ebx-0x126c]
  106269:	50                   	push   eax
  10626a:	e8 e9 b6 ff ff       	call   101958 <vga_print>
  10626f:	83 c4 10             	add    esp,0x10
  106272:	83 ec 08             	sub    esp,0x8
  106275:	6a 00                	push   0x0
  106277:	6a 0f                	push   0xf
  106279:	e8 5b b0 ff ff       	call   1012d9 <vga_set_color>
  10627e:	83 c4 10             	add    esp,0x10
  106281:	eb 01                	jmp    106284 <fat12_list_root+0x3f8>
  106283:	90                   	nop
  106284:	8b 5d fc             	mov    ebx,DWORD PTR [ebp-0x4]
  106287:	c9                   	leave
  106288:	c3                   	ret

00106289 <fat12_read_file>:
  106289:	55                   	push   ebp
  10628a:	89 e5                	mov    ebp,esp
  10628c:	53                   	push   ebx
  10628d:	83 ec 74             	sub    esp,0x74
  106290:	e8 c1 05 00 00       	call   106856 <__x86.get_pc_thunk.bx>
  106295:	81 c3 73 2d 00 00    	add    ebx,0x2d73
  10629b:	8b 83 98 df 01 00    	mov    eax,DWORD PTR [ebx+0x1df98]
  1062a1:	85 c0                	test   eax,eax
  1062a3:	75 0a                	jne    1062af <fat12_read_file+0x26>
  1062a5:	b8 ff ff ff ff       	mov    eax,0xffffffff
  1062aa:	e9 76 03 00 00       	jmp    106625 <fat12_read_file+0x39c>
  1062af:	8b 45 18             	mov    eax,DWORD PTR [ebp+0x18]
  1062b2:	c7 00 00 00 00 00    	mov    DWORD PTR [eax],0x0
  1062b8:	c7 45 f4 00 00 00 00 	mov    DWORD PTR [ebp-0xc],0x0
  1062bf:	c7 45 f0 00 00 00 00 	mov    DWORD PTR [ebp-0x10],0x0
  1062c6:	c7 45 ec 00 00 00 00 	mov    DWORD PTR [ebp-0x14],0x0
  1062cd:	e9 ec 01 00 00       	jmp    1064be <fat12_read_file+0x235>
  1062d2:	8b 93 a0 df 01 00    	mov    edx,DWORD PTR [ebx+0x1dfa0]
  1062d8:	8b 45 ec             	mov    eax,DWORD PTR [ebp-0x14]
  1062db:	01 c2                	add    edx,eax
  1062dd:	83 ec 08             	sub    esp,0x8
  1062e0:	8d 83 b8 5f 02 00    	lea    eax,[ebx+0x25fb8]
  1062e6:	50                   	push   eax
  1062e7:	52                   	push   edx
  1062e8:	e8 54 f7 ff ff       	call   105a41 <ata_read_sector>
  1062ed:	83 c4 10             	add    esp,0x10
  1062f0:	85 c0                	test   eax,eax
  1062f2:	74 0a                	je     1062fe <fat12_read_file+0x75>
  1062f4:	b8 ff ff ff ff       	mov    eax,0xffffffff
  1062f9:	e9 27 03 00 00       	jmp    106625 <fat12_read_file+0x39c>
  1062fe:	8d 83 b8 5f 02 00    	lea    eax,[ebx+0x25fb8]
  106304:	89 45 bc             	mov    DWORD PTR [ebp-0x44],eax
  106307:	c7 45 b8 10 00 00 00 	mov    DWORD PTR [ebp-0x48],0x10
  10630e:	c7 45 e8 00 00 00 00 	mov    DWORD PTR [ebp-0x18],0x0
  106315:	e9 8e 01 00 00       	jmp    1064a8 <fat12_read_file+0x21f>
  10631a:	8b 45 e8             	mov    eax,DWORD PTR [ebp-0x18]
  10631d:	c1 e0 05             	shl    eax,0x5
  106320:	89 c2                	mov    edx,eax
  106322:	8b 45 bc             	mov    eax,DWORD PTR [ebp-0x44]
  106325:	01 d0                	add    eax,edx
  106327:	0f b6 00             	movzx  eax,BYTE PTR [eax]
  10632a:	84 c0                	test   al,al
  10632c:	75 0c                	jne    10633a <fat12_read_file+0xb1>
  10632e:	c7 45 f0 01 00 00 00 	mov    DWORD PTR [ebp-0x10],0x1
  106335:	e9 80 01 00 00       	jmp    1064ba <fat12_read_file+0x231>
  10633a:	8b 45 e8             	mov    eax,DWORD PTR [ebp-0x18]
  10633d:	c1 e0 05             	shl    eax,0x5
  106340:	89 c2                	mov    edx,eax
  106342:	8b 45 bc             	mov    eax,DWORD PTR [ebp-0x44]
  106345:	01 d0                	add    eax,edx
  106347:	0f b6 00             	movzx  eax,BYTE PTR [eax]
  10634a:	3c e5                	cmp    al,0xe5
  10634c:	0f 84 4e 01 00 00    	je     1064a0 <fat12_read_file+0x217>
  106352:	8b 45 e8             	mov    eax,DWORD PTR [ebp-0x18]
  106355:	c1 e0 05             	shl    eax,0x5
  106358:	89 c2                	mov    edx,eax
  10635a:	8b 45 bc             	mov    eax,DWORD PTR [ebp-0x44]
  10635d:	01 d0                	add    eax,edx
  10635f:	0f b6 40 0b          	movzx  eax,BYTE PTR [eax+0xb]
  106363:	0f b6 c0             	movzx  eax,al
  106366:	83 e0 18             	and    eax,0x18
  106369:	85 c0                	test   eax,eax
  10636b:	0f 85 32 01 00 00    	jne    1064a3 <fat12_read_file+0x21a>
  106371:	c7 45 e4 01 00 00 00 	mov    DWORD PTR [ebp-0x1c],0x1
  106378:	c7 45 e0 00 00 00 00 	mov    DWORD PTR [ebp-0x20],0x0
  10637f:	eb 67                	jmp    1063e8 <fat12_read_file+0x15f>
  106381:	8b 55 e0             	mov    edx,DWORD PTR [ebp-0x20]
  106384:	8b 45 08             	mov    eax,DWORD PTR [ebp+0x8]
  106387:	01 d0                	add    eax,edx
  106389:	0f b6 00             	movzx  eax,BYTE PTR [eax]
  10638c:	3c 60                	cmp    al,0x60
  10638e:	7e 22                	jle    1063b2 <fat12_read_file+0x129>
  106390:	8b 55 e0             	mov    edx,DWORD PTR [ebp-0x20]
  106393:	8b 45 08             	mov    eax,DWORD PTR [ebp+0x8]
  106396:	01 d0                	add    eax,edx
  106398:	0f b6 00             	movzx  eax,BYTE PTR [eax]
  10639b:	3c 7a                	cmp    al,0x7a
  10639d:	7f 13                	jg     1063b2 <fat12_read_file+0x129>
  10639f:	8b 55 e0             	mov    edx,DWORD PTR [ebp-0x20]
  1063a2:	8b 45 08             	mov    eax,DWORD PTR [ebp+0x8]
  1063a5:	01 d0                	add    eax,edx
  1063a7:	0f b6 00             	movzx  eax,BYTE PTR [eax]
  1063aa:	83 e8 20             	sub    eax,0x20
  1063ad:	88 45 df             	mov    BYTE PTR [ebp-0x21],al
  1063b0:	eb 0e                	jmp    1063c0 <fat12_read_file+0x137>
  1063b2:	8b 55 e0             	mov    edx,DWORD PTR [ebp-0x20]
  1063b5:	8b 45 08             	mov    eax,DWORD PTR [ebp+0x8]
  1063b8:	01 d0                	add    eax,edx
  1063ba:	0f b6 00             	movzx  eax,BYTE PTR [eax]
  1063bd:	88 45 df             	mov    BYTE PTR [ebp-0x21],al
  1063c0:	8b 45 e8             	mov    eax,DWORD PTR [ebp-0x18]
  1063c3:	c1 e0 05             	shl    eax,0x5
  1063c6:	89 c2                	mov    edx,eax
  1063c8:	8b 45 bc             	mov    eax,DWORD PTR [ebp-0x44]
  1063cb:	01 c2                	add    edx,eax
  1063cd:	8b 45 e0             	mov    eax,DWORD PTR [ebp-0x20]
  1063d0:	01 d0                	add    eax,edx
  1063d2:	0f b6 10             	movzx  edx,BYTE PTR [eax]
  1063d5:	0f b6 45 df          	movzx  eax,BYTE PTR [ebp-0x21]
  1063d9:	38 c2                	cmp    dl,al
  1063db:	74 07                	je     1063e4 <fat12_read_file+0x15b>
  1063dd:	c7 45 e4 00 00 00 00 	mov    DWORD PTR [ebp-0x1c],0x0
  1063e4:	83 45 e0 01          	add    DWORD PTR [ebp-0x20],0x1
  1063e8:	83 7d e0 07          	cmp    DWORD PTR [ebp-0x20],0x7
  1063ec:	7f 06                	jg     1063f4 <fat12_read_file+0x16b>
  1063ee:	83 7d e4 00          	cmp    DWORD PTR [ebp-0x1c],0x0
  1063f2:	75 8d                	jne    106381 <fat12_read_file+0xf8>
  1063f4:	c7 45 d8 00 00 00 00 	mov    DWORD PTR [ebp-0x28],0x0
  1063fb:	eb 6a                	jmp    106467 <fat12_read_file+0x1de>
  1063fd:	8b 55 d8             	mov    edx,DWORD PTR [ebp-0x28]
  106400:	8b 45 0c             	mov    eax,DWORD PTR [ebp+0xc]
  106403:	01 d0                	add    eax,edx
  106405:	0f b6 00             	movzx  eax,BYTE PTR [eax]
  106408:	3c 60                	cmp    al,0x60
  10640a:	7e 22                	jle    10642e <fat12_read_file+0x1a5>
  10640c:	8b 55 d8             	mov    edx,DWORD PTR [ebp-0x28]
  10640f:	8b 45 0c             	mov    eax,DWORD PTR [ebp+0xc]
  106412:	01 d0                	add    eax,edx
  106414:	0f b6 00             	movzx  eax,BYTE PTR [eax]
  106417:	3c 7a                	cmp    al,0x7a
  106419:	7f 13                	jg     10642e <fat12_read_file+0x1a5>
  10641b:	8b 55 d8             	mov    edx,DWORD PTR [ebp-0x28]
  10641e:	8b 45 0c             	mov    eax,DWORD PTR [ebp+0xc]
  106421:	01 d0                	add    eax,edx
  106423:	0f b6 00             	movzx  eax,BYTE PTR [eax]
  106426:	83 e8 20             	sub    eax,0x20
  106429:	88 45 d7             	mov    BYTE PTR [ebp-0x29],al
  10642c:	eb 0e                	jmp    10643c <fat12_read_file+0x1b3>
  10642e:	8b 55 d8             	mov    edx,DWORD PTR [ebp-0x28]
  106431:	8b 45 0c             	mov    eax,DWORD PTR [ebp+0xc]
  106434:	01 d0                	add    eax,edx
  106436:	0f b6 00             	movzx  eax,BYTE PTR [eax]
  106439:	88 45 d7             	mov    BYTE PTR [ebp-0x29],al
  10643c:	8b 45 e8             	mov    eax,DWORD PTR [ebp-0x18]
  10643f:	c1 e0 05             	shl    eax,0x5
  106442:	89 c2                	mov    edx,eax
  106444:	8b 45 bc             	mov    eax,DWORD PTR [ebp-0x44]
  106447:	01 c2                	add    edx,eax
  106449:	8b 45 d8             	mov    eax,DWORD PTR [ebp-0x28]
  10644c:	01 d0                	add    eax,edx
  10644e:	83 c0 08             	add    eax,0x8
  106451:	0f b6 10             	movzx  edx,BYTE PTR [eax]
  106454:	0f b6 45 d7          	movzx  eax,BYTE PTR [ebp-0x29]
  106458:	38 c2                	cmp    dl,al
  10645a:	74 07                	je     106463 <fat12_read_file+0x1da>
  10645c:	c7 45 e4 00 00 00 00 	mov    DWORD PTR [ebp-0x1c],0x0
  106463:	83 45 d8 01          	add    DWORD PTR [ebp-0x28],0x1
  106467:	83 7d d8 02          	cmp    DWORD PTR [ebp-0x28],0x2
  10646b:	7f 06                	jg     106473 <fat12_read_file+0x1ea>
  10646d:	83 7d e4 00          	cmp    DWORD PTR [ebp-0x1c],0x0
  106471:	75 8a                	jne    1063fd <fat12_read_file+0x174>
  106473:	83 7d e4 00          	cmp    DWORD PTR [ebp-0x1c],0x0
  106477:	74 2b                	je     1064a4 <fat12_read_file+0x21b>
  106479:	8b 45 e8             	mov    eax,DWORD PTR [ebp-0x18]
  10647c:	c1 e0 05             	shl    eax,0x5
  10647f:	89 c2                	mov    edx,eax
  106481:	8b 45 bc             	mov    eax,DWORD PTR [ebp-0x44]
  106484:	01 d0                	add    eax,edx
  106486:	f3 0f 6f 00          	movdqu xmm0,XMMWORD PTR [eax]
  10648a:	0f 11 45 94          	movups XMMWORD PTR [ebp-0x6c],xmm0
  10648e:	f3 0f 6f 40 10       	movdqu xmm0,XMMWORD PTR [eax+0x10]
  106493:	0f 11 45 a4          	movups XMMWORD PTR [ebp-0x5c],xmm0
  106497:	c7 45 f4 01 00 00 00 	mov    DWORD PTR [ebp-0xc],0x1
  10649e:	eb 04                	jmp    1064a4 <fat12_read_file+0x21b>
  1064a0:	90                   	nop
  1064a1:	eb 01                	jmp    1064a4 <fat12_read_file+0x21b>
  1064a3:	90                   	nop
  1064a4:	83 45 e8 01          	add    DWORD PTR [ebp-0x18],0x1
  1064a8:	8b 45 e8             	mov    eax,DWORD PTR [ebp-0x18]
  1064ab:	3b 45 b8             	cmp    eax,DWORD PTR [ebp-0x48]
  1064ae:	73 0a                	jae    1064ba <fat12_read_file+0x231>
  1064b0:	83 7d f0 00          	cmp    DWORD PTR [ebp-0x10],0x0
  1064b4:	0f 84 60 fe ff ff    	je     10631a <fat12_read_file+0x91>
  1064ba:	83 45 ec 01          	add    DWORD PTR [ebp-0x14],0x1
  1064be:	8b 83 a4 df 01 00    	mov    eax,DWORD PTR [ebx+0x1dfa4]
  1064c4:	39 45 ec             	cmp    DWORD PTR [ebp-0x14],eax
  1064c7:	73 10                	jae    1064d9 <fat12_read_file+0x250>
  1064c9:	83 7d f4 00          	cmp    DWORD PTR [ebp-0xc],0x0
  1064cd:	75 0a                	jne    1064d9 <fat12_read_file+0x250>
  1064cf:	83 7d f0 00          	cmp    DWORD PTR [ebp-0x10],0x0
  1064d3:	0f 84 f9 fd ff ff    	je     1062d2 <fat12_read_file+0x49>
  1064d9:	83 7d f4 00          	cmp    DWORD PTR [ebp-0xc],0x0
  1064dd:	75 0a                	jne    1064e9 <fat12_read_file+0x260>
  1064df:	b8 ff ff ff ff       	mov    eax,0xffffffff
  1064e4:	e9 3c 01 00 00       	jmp    106625 <fat12_read_file+0x39c>
  1064e9:	0f b7 45 ae          	movzx  eax,WORD PTR [ebp-0x52]
  1064ed:	66 89 45 d4          	mov    WORD PTR [ebp-0x2c],ax
  1064f1:	8b 45 b0             	mov    eax,DWORD PTR [ebp-0x50]
  1064f4:	89 45 d0             	mov    DWORD PTR [ebp-0x30],eax
  1064f7:	c7 45 cc 00 10 00 00 	mov    DWORD PTR [ebp-0x34],0x1000
  1064fe:	e9 f7 00 00 00       	jmp    1065fa <fat12_read_file+0x371>
  106503:	8b 93 a8 df 01 00    	mov    edx,DWORD PTR [ebx+0x1dfa8]
  106509:	0f b7 45 d4          	movzx  eax,WORD PTR [ebp-0x2c]
  10650d:	8d 48 fe             	lea    ecx,[eax-0x2]
  106510:	0f b6 83 ae df 01 00 	movzx  eax,BYTE PTR [ebx+0x1dfae]
  106517:	0f b6 c0             	movzx  eax,al
  10651a:	0f af c1             	imul   eax,ecx
  10651d:	01 d0                	add    eax,edx
  10651f:	89 45 b4             	mov    DWORD PTR [ebp-0x4c],eax
  106522:	c6 45 cb 00          	mov    BYTE PTR [ebp-0x35],0x0
  106526:	e9 a8 00 00 00       	jmp    1065d3 <fat12_read_file+0x34a>
  10652b:	0f b6 55 cb          	movzx  edx,BYTE PTR [ebp-0x35]
  10652f:	8b 45 b4             	mov    eax,DWORD PTR [ebp-0x4c]
  106532:	01 c2                	add    edx,eax
  106534:	83 ec 08             	sub    esp,0x8
  106537:	8d 83 b8 61 02 00    	lea    eax,[ebx+0x261b8]
  10653d:	50                   	push   eax
  10653e:	52                   	push   edx
  10653f:	e8 fd f4 ff ff       	call   105a41 <ata_read_sector>
  106544:	83 c4 10             	add    esp,0x10
  106547:	85 c0                	test   eax,eax
  106549:	74 0a                	je     106555 <fat12_read_file+0x2cc>
  10654b:	b8 ff ff ff ff       	mov    eax,0xffffffff
  106550:	e9 d0 00 00 00       	jmp    106625 <fat12_read_file+0x39c>
  106555:	c7 45 c4 00 02 00 00 	mov    DWORD PTR [ebp-0x3c],0x200
  10655c:	8b 45 c4             	mov    eax,DWORD PTR [ebp-0x3c]
  10655f:	39 45 d0             	cmp    DWORD PTR [ebp-0x30],eax
  106562:	73 06                	jae    10656a <fat12_read_file+0x2e1>
  106564:	8b 45 d0             	mov    eax,DWORD PTR [ebp-0x30]
  106567:	89 45 c4             	mov    DWORD PTR [ebp-0x3c],eax
  10656a:	8b 45 18             	mov    eax,DWORD PTR [ebp+0x18]
  10656d:	8b 10                	mov    edx,DWORD PTR [eax]
  10656f:	8b 45 c4             	mov    eax,DWORD PTR [ebp-0x3c]
  106572:	01 d0                	add    eax,edx
  106574:	39 45 14             	cmp    DWORD PTR [ebp+0x14],eax
  106577:	73 0d                	jae    106586 <fat12_read_file+0x2fd>
  106579:	8b 45 18             	mov    eax,DWORD PTR [ebp+0x18]
  10657c:	8b 00                	mov    eax,DWORD PTR [eax]
  10657e:	8b 55 14             	mov    edx,DWORD PTR [ebp+0x14]
  106581:	29 c2                	sub    edx,eax
  106583:	89 55 c4             	mov    DWORD PTR [ebp-0x3c],edx
  106586:	83 7d c4 00          	cmp    DWORD PTR [ebp-0x3c],0x0
  10658a:	74 59                	je     1065e5 <fat12_read_file+0x35c>
  10658c:	c7 45 c0 00 00 00 00 	mov    DWORD PTR [ebp-0x40],0x0
  106593:	eb 26                	jmp    1065bb <fat12_read_file+0x332>
  106595:	8b 45 18             	mov    eax,DWORD PTR [ebp+0x18]
  106598:	8b 00                	mov    eax,DWORD PTR [eax]
  10659a:	8d 48 01             	lea    ecx,[eax+0x1]
  10659d:	8b 55 18             	mov    edx,DWORD PTR [ebp+0x18]
  1065a0:	89 0a                	mov    DWORD PTR [edx],ecx
  1065a2:	8b 55 10             	mov    edx,DWORD PTR [ebp+0x10]
  1065a5:	01 c2                	add    edx,eax
  1065a7:	8d 8b b8 61 02 00    	lea    ecx,[ebx+0x261b8]
  1065ad:	8b 45 c0             	mov    eax,DWORD PTR [ebp-0x40]
  1065b0:	01 c8                	add    eax,ecx
  1065b2:	0f b6 00             	movzx  eax,BYTE PTR [eax]
  1065b5:	88 02                	mov    BYTE PTR [edx],al
  1065b7:	83 45 c0 01          	add    DWORD PTR [ebp-0x40],0x1
  1065bb:	8b 45 c0             	mov    eax,DWORD PTR [ebp-0x40]
  1065be:	3b 45 c4             	cmp    eax,DWORD PTR [ebp-0x3c]
  1065c1:	72 d2                	jb     106595 <fat12_read_file+0x30c>
  1065c3:	8b 45 c4             	mov    eax,DWORD PTR [ebp-0x3c]
  1065c6:	29 45 d0             	sub    DWORD PTR [ebp-0x30],eax
  1065c9:	0f b6 45 cb          	movzx  eax,BYTE PTR [ebp-0x35]
  1065cd:	83 c0 01             	add    eax,0x1
  1065d0:	88 45 cb             	mov    BYTE PTR [ebp-0x35],al
  1065d3:	0f b6 83 ae df 01 00 	movzx  eax,BYTE PTR [ebx+0x1dfae]
  1065da:	38 45 cb             	cmp    BYTE PTR [ebp-0x35],al
  1065dd:	0f 82 48 ff ff ff    	jb     10652b <fat12_read_file+0x2a2>
  1065e3:	eb 01                	jmp    1065e6 <fat12_read_file+0x35d>
  1065e5:	90                   	nop
  1065e6:	0f b7 45 d4          	movzx  eax,WORD PTR [ebp-0x2c]
  1065ea:	83 ec 0c             	sub    esp,0xc
  1065ed:	50                   	push   eax
  1065ee:	e8 53 f6 ff ff       	call   105c46 <fat12_next_cluster>
  1065f3:	83 c4 10             	add    esp,0x10
  1065f6:	66 89 45 d4          	mov    WORD PTR [ebp-0x2c],ax
  1065fa:	66 83 7d d4 01       	cmp    WORD PTR [ebp-0x2c],0x1
  1065ff:	76 1f                	jbe    106620 <fat12_read_file+0x397>
  106601:	66 81 7d d4 f7 0f    	cmp    WORD PTR [ebp-0x2c],0xff7
  106607:	77 17                	ja     106620 <fat12_read_file+0x397>
  106609:	83 7d d0 00          	cmp    DWORD PTR [ebp-0x30],0x0
  10660d:	74 11                	je     106620 <fat12_read_file+0x397>
  10660f:	8b 45 cc             	mov    eax,DWORD PTR [ebp-0x34]
  106612:	8d 50 ff             	lea    edx,[eax-0x1]
  106615:	89 55 cc             	mov    DWORD PTR [ebp-0x34],edx
  106618:	85 c0                	test   eax,eax
  10661a:	0f 85 e3 fe ff ff    	jne    106503 <fat12_read_file+0x27a>
  106620:	b8 00 00 00 00       	mov    eax,0x0
  106625:	8b 5d fc             	mov    ebx,DWORD PTR [ebp-0x4]
  106628:	c9                   	leave
  106629:	c3                   	ret

0010662a <fat12_print_info>:
  10662a:	55                   	push   ebp
  10662b:	89 e5                	mov    ebp,esp
  10662d:	53                   	push   ebx
  10662e:	83 ec 04             	sub    esp,0x4
  106631:	e8 20 02 00 00       	call   106856 <__x86.get_pc_thunk.bx>
  106636:	81 c3 d2 29 00 00    	add    ebx,0x29d2
  10663c:	8b 83 98 df 01 00    	mov    eax,DWORD PTR [ebx+0x1df98]
  106642:	85 c0                	test   eax,eax
  106644:	75 17                	jne    10665d <fat12_print_info+0x33>
  106646:	83 ec 0c             	sub    esp,0xc
  106649:	8d 83 9f ed ff ff    	lea    eax,[ebx-0x1261]
  10664f:	50                   	push   eax
  106650:	e8 03 b3 ff ff       	call   101958 <vga_print>
  106655:	83 c4 10             	add    esp,0x10
  106658:	e9 f4 01 00 00       	jmp    106851 <fat12_print_info+0x227>
  10665d:	83 ec 0c             	sub    esp,0xc
  106660:	8d 83 92 ed ff ff    	lea    eax,[ebx-0x126e]
  106666:	50                   	push   eax
  106667:	e8 ec b2 ff ff       	call   101958 <vga_print>
  10666c:	83 c4 10             	add    esp,0x10
  10666f:	83 ec 08             	sub    esp,0x8
  106672:	6a 00                	push   0x0
  106674:	6a 0b                	push   0xb
  106676:	e8 5e ac ff ff       	call   1012d9 <vga_set_color>
  10667b:	83 c4 10             	add    esp,0x10
  10667e:	83 ec 0c             	sub    esp,0xc
  106681:	8d 83 af ed ff ff    	lea    eax,[ebx-0x1251]
  106687:	50                   	push   eax
  106688:	e8 cb b2 ff ff       	call   101958 <vga_print>
  10668d:	83 c4 10             	add    esp,0x10
  106690:	83 ec 08             	sub    esp,0x8
  106693:	6a 00                	push   0x0
  106695:	6a 0f                	push   0xf
  106697:	e8 3d ac ff ff       	call   1012d9 <vga_set_color>
  10669c:	83 c4 10             	add    esp,0x10
  10669f:	83 ec 0c             	sub    esp,0xc
  1066a2:	8d 83 c4 ed ff ff    	lea    eax,[ebx-0x123c]
  1066a8:	50                   	push   eax
  1066a9:	e8 aa b2 ff ff       	call   101958 <vga_print>
  1066ae:	83 c4 10             	add    esp,0x10
  1066b1:	0f b7 83 ac df 01 00 	movzx  eax,WORD PTR [ebx+0x1dfac]
  1066b8:	0f b7 c0             	movzx  eax,ax
  1066bb:	83 ec 0c             	sub    esp,0xc
  1066be:	50                   	push   eax
  1066bf:	e8 db f4 ff ff       	call   105b9f <print_uint32>
  1066c4:	83 c4 10             	add    esp,0x10
  1066c7:	83 ec 0c             	sub    esp,0xc
  1066ca:	8d 83 92 ed ff ff    	lea    eax,[ebx-0x126e]
  1066d0:	50                   	push   eax
  1066d1:	e8 82 b2 ff ff       	call   101958 <vga_print>
  1066d6:	83 c4 10             	add    esp,0x10
  1066d9:	83 ec 0c             	sub    esp,0xc
  1066dc:	8d 83 dd ed ff ff    	lea    eax,[ebx-0x1223]
  1066e2:	50                   	push   eax
  1066e3:	e8 70 b2 ff ff       	call   101958 <vga_print>
  1066e8:	83 c4 10             	add    esp,0x10
  1066eb:	0f b6 83 ae df 01 00 	movzx  eax,BYTE PTR [ebx+0x1dfae]
  1066f2:	0f b6 c0             	movzx  eax,al
  1066f5:	83 ec 0c             	sub    esp,0xc
  1066f8:	50                   	push   eax
  1066f9:	e8 a1 f4 ff ff       	call   105b9f <print_uint32>
  1066fe:	83 c4 10             	add    esp,0x10
  106701:	83 ec 0c             	sub    esp,0xc
  106704:	8d 83 92 ed ff ff    	lea    eax,[ebx-0x126e]
  10670a:	50                   	push   eax
  10670b:	e8 48 b2 ff ff       	call   101958 <vga_print>
  106710:	83 c4 10             	add    esp,0x10
  106713:	83 ec 0c             	sub    esp,0xc
  106716:	8d 83 f6 ed ff ff    	lea    eax,[ebx-0x120a]
  10671c:	50                   	push   eax
  10671d:	e8 36 b2 ff ff       	call   101958 <vga_print>
  106722:	83 c4 10             	add    esp,0x10
  106725:	8b 83 9c df 01 00    	mov    eax,DWORD PTR [ebx+0x1df9c]
  10672b:	83 ec 0c             	sub    esp,0xc
  10672e:	50                   	push   eax
  10672f:	e8 6b f4 ff ff       	call   105b9f <print_uint32>
  106734:	83 c4 10             	add    esp,0x10
  106737:	83 ec 0c             	sub    esp,0xc
  10673a:	8d 83 92 ed ff ff    	lea    eax,[ebx-0x126e]
  106740:	50                   	push   eax
  106741:	e8 12 b2 ff ff       	call   101958 <vga_print>
  106746:	83 c4 10             	add    esp,0x10
  106749:	83 ec 0c             	sub    esp,0xc
  10674c:	8d 83 0f ee ff ff    	lea    eax,[ebx-0x11f1]
  106752:	50                   	push   eax
  106753:	e8 00 b2 ff ff       	call   101958 <vga_print>
  106758:	83 c4 10             	add    esp,0x10
  10675b:	8b 83 a0 df 01 00    	mov    eax,DWORD PTR [ebx+0x1dfa0]
  106761:	83 ec 0c             	sub    esp,0xc
  106764:	50                   	push   eax
  106765:	e8 35 f4 ff ff       	call   105b9f <print_uint32>
  10676a:	83 c4 10             	add    esp,0x10
  10676d:	83 ec 0c             	sub    esp,0xc
  106770:	8d 83 92 ed ff ff    	lea    eax,[ebx-0x126e]
  106776:	50                   	push   eax
  106777:	e8 dc b1 ff ff       	call   101958 <vga_print>
  10677c:	83 c4 10             	add    esp,0x10
  10677f:	83 ec 0c             	sub    esp,0xc
  106782:	8d 83 28 ee ff ff    	lea    eax,[ebx-0x11d8]
  106788:	50                   	push   eax
  106789:	e8 ca b1 ff ff       	call   101958 <vga_print>
  10678e:	83 c4 10             	add    esp,0x10
  106791:	8b 83 a4 df 01 00    	mov    eax,DWORD PTR [ebx+0x1dfa4]
  106797:	83 ec 0c             	sub    esp,0xc
  10679a:	50                   	push   eax
  10679b:	e8 ff f3 ff ff       	call   105b9f <print_uint32>
  1067a0:	83 c4 10             	add    esp,0x10
  1067a3:	83 ec 0c             	sub    esp,0xc
  1067a6:	8d 83 92 ed ff ff    	lea    eax,[ebx-0x126e]
  1067ac:	50                   	push   eax
  1067ad:	e8 a6 b1 ff ff       	call   101958 <vga_print>
  1067b2:	83 c4 10             	add    esp,0x10
  1067b5:	83 ec 0c             	sub    esp,0xc
  1067b8:	8d 83 41 ee ff ff    	lea    eax,[ebx-0x11bf]
  1067be:	50                   	push   eax
  1067bf:	e8 94 b1 ff ff       	call   101958 <vga_print>
  1067c4:	83 c4 10             	add    esp,0x10
  1067c7:	8b 83 a8 df 01 00    	mov    eax,DWORD PTR [ebx+0x1dfa8]
  1067cd:	83 ec 0c             	sub    esp,0xc
  1067d0:	50                   	push   eax
  1067d1:	e8 c9 f3 ff ff       	call   105b9f <print_uint32>
  1067d6:	83 c4 10             	add    esp,0x10
  1067d9:	83 ec 0c             	sub    esp,0xc
  1067dc:	8d 83 92 ed ff ff    	lea    eax,[ebx-0x126e]
  1067e2:	50                   	push   eax
  1067e3:	e8 70 b1 ff ff       	call   101958 <vga_print>
  1067e8:	83 c4 10             	add    esp,0x10
  1067eb:	83 ec 0c             	sub    esp,0xc
  1067ee:	8d 83 5a ee ff ff    	lea    eax,[ebx-0x11a6]
  1067f4:	50                   	push   eax
  1067f5:	e8 5e b1 ff ff       	call   101958 <vga_print>
  1067fa:	83 c4 10             	add    esp,0x10
  1067fd:	8b 83 b4 df 01 00    	mov    eax,DWORD PTR [ebx+0x1dfb4]
  106803:	83 ec 0c             	sub    esp,0xc
  106806:	50                   	push   eax
  106807:	e8 93 f3 ff ff       	call   105b9f <print_uint32>
  10680c:	83 c4 10             	add    esp,0x10
  10680f:	83 ec 0c             	sub    esp,0xc
  106812:	8d 83 92 ed ff ff    	lea    eax,[ebx-0x126e]
  106818:	50                   	push   eax
  106819:	e8 3a b1 ff ff       	call   101958 <vga_print>
  10681e:	83 c4 10             	add    esp,0x10
  106821:	83 ec 08             	sub    esp,0x8
  106824:	6a 00                	push   0x0
  106826:	6a 0a                	push   0xa
  106828:	e8 ac aa ff ff       	call   1012d9 <vga_set_color>
  10682d:	83 c4 10             	add    esp,0x10
  106830:	83 ec 0c             	sub    esp,0xc
  106833:	8d 83 74 ee ff ff    	lea    eax,[ebx-0x118c]
  106839:	50                   	push   eax
  10683a:	e8 19 b1 ff ff       	call   101958 <vga_print>
  10683f:	83 c4 10             	add    esp,0x10
  106842:	83 ec 08             	sub    esp,0x8
  106845:	6a 00                	push   0x0
  106847:	6a 0f                	push   0xf
  106849:	e8 8b aa ff ff       	call   1012d9 <vga_set_color>
  10684e:	83 c4 10             	add    esp,0x10
  106851:	8b 5d fc             	mov    ebx,DWORD PTR [ebp-0x4]
  106854:	c9                   	leave
  106855:	c3                   	ret

Disassembly of section .text.__x86.get_pc_thunk.bx:

00106856 <__x86.get_pc_thunk.bx>:
  106856:	8b 1c 24             	mov    ebx,DWORD PTR [esp]
  106859:	c3                   	ret

Disassembly of section .text.__x86.get_pc_thunk.ax:

0010685a <__x86.get_pc_thunk.ax>:
  10685a:	8b 04 24             	mov    eax,DWORD PTR [esp]
  10685d:	c3                   	ret

Disassembly of section .text.__x86.get_pc_thunk.dx:

0010685e <__x86.get_pc_thunk.dx>:
  10685e:	8b 14 24             	mov    edx,DWORD PTR [esp]
  106861:	c3                   	ret

Disassembly of section .text.__x86.get_pc_thunk.cx:

00106862 <__x86.get_pc_thunk.cx>:
  106862:	8b 0c 24             	mov    ecx,DWORD PTR [esp]
  106865:	c3                   	ret
